Archive member included to satisfy reference by file (symbol)

../../../libs\libasr.a(asr_top_outside_port.o)
                              build/objs/command_info.o (symbol from plugin) (asrtop_asr_system_create_model)
../../../libs\libasr.a(decoder_inner_port_rpmsg.o)
                              build/objs/main.o (symbol from plugin) (decoder_port_inner_rpmsg_init)
../../../libs\libasr.a(decoder_manage.o)
                              decoder_inner_port_rpmsg.o (symbol from plugin) (model_parameter_info_clear)
../../../libs\libasr.a(dynmic_confidence.o)
                              build/objs/system_msg_deal.o (symbol from plugin) (dynmic_confidence_config)
../../../libs\libasr.a(dnn_outside_port.o)
                              decoder_manage.o (symbol from plugin) (get_dnn_version)
../../../libs\libasr.a(flash_manage_outside_port.o)
                              build/objs/ci_flash_data_info.o (symbol from plugin) (is_flash_power_off)
../../../libs\libasr.a(vad_fe_outside_port.o)
                              decoder_manage.o (symbol from plugin) (cmvn_update_mean_var_config)
../../../libs\libasr.a(asr_dealwith_result.o)
                              decoder_manage.o (symbol from plugin) (app_deal_asr_reuslt_callback)
../../../libs\libasr.a(asrbest_result.o)
                              decoder_manage.o (symbol from plugin) (asrbest_result_init)
../../../libs\libasr.a(cmp_twice_confidence.o)
                              decoder_manage.o (symbol from plugin) (cmp_twice_init)
../../../libs\libasr.a(decide_result.o)
                              decoder_manage.o (symbol from plugin) (decide_init)
../../../libs\libeq.a(ci_eq.o)
                              build/objs/system_msg_deal.o (symbol from plugin) (ci_eq_deal)
../../../libs\libeq.a(ci_eq_coef.o)
                              ci_eq.o (symbol from plugin) (eq_coef_highfreq)
../../../libs\libnewlib_port.a(sbrk.o)
                              build/objs/platform_config.o (symbol from plugin) (sbrk)
../../../libs\libfreertos_port.a(port.o)
                              build/objs/event_groups.o (symbol from plugin) (vPortSetMSIPInt)
../../../libs\libfreertos_port.a(portasm.o)
                              port.o (symbol from plugin) (vPortYield)
../../../libs\libdsu.a(ci130x_dsu.o)
                              build/objs/main.o (symbol from plugin) (dsu_init)
../../../libs\libdsu.a(ci130x_mailbox.o)
                              build/objs/platform_config.o (symbol from plugin) (mailbox_preinit)
../../../libs\libdsu.a(ci130x_scu.o)
                              build/objs/ci130x_init.o (symbol from plugin) (scu_unlock_system_config)
../../../libs\libdsu.a(ci130x_efuse.o)
                              ci130x_dsu.o (symbol from plugin) (efuse_unlock)
../../../libs\libdsu.a(ci130x_dpmu.o)
                              build/objs/ci130x_init.o (symbol from plugin) (dpmu_unlock_cfg_config)
../../../libs\libdsu.a(ci130x_nuclear_com.o)
                              build/objs/flash_control_inner_port.o (symbol from plugin) (nuclear_com_registe_serve)
../../../libs\libdsu.a(remote_api_for_host.o)
                              build/objs/main.o (symbol from plugin) (rc_caller_set_ssp_registe)
d:/software/yuyin/qiqiyinqiluntai/riscv-nuclei-elf-gcc-9.2.0.0/gcc_fix_raissrc/bin/../lib/gcc/riscv-nuclei-elf/9.2.0/rv32imafc/ilp32f\libgcc.a(save-restore.o)
                              ../../../libs\libnewlib_port.a(sbrk.o) (__riscv_save_4)
d:/software/yuyin/qiqiyinqiluntai/riscv-nuclei-elf-gcc-9.2.0.0/gcc_fix_raissrc/bin/../lib/gcc/riscv-nuclei-elf/9.2.0/../../../../riscv-nuclei-elf/lib/rv32imafc/ilp32f\libg_nano.a(lib_a-atexit.o)
                              build/objs/ci130x_startup.o (atexit)
d:/software/yuyin/qiqiyinqiluntai/riscv-nuclei-elf-gcc-9.2.0.0/gcc_fix_raissrc/bin/../lib/gcc/riscv-nuclei-elf/9.2.0/../../../../riscv-nuclei-elf/lib/rv32imafc/ilp32f\libg_nano.a(lib_a-exit.o)
                              build/objs/ci130x_startup.o (exit)
d:/software/yuyin/qiqiyinqiluntai/riscv-nuclei-elf-gcc-9.2.0.0/gcc_fix_raissrc/bin/../lib/gcc/riscv-nuclei-elf/9.2.0/../../../../riscv-nuclei-elf/lib/rv32imafc/ilp32f\libg_nano.a(lib_a-fini.o)
                              build/objs/ci130x_startup.o (__libc_fini_array)
d:/software/yuyin/qiqiyinqiluntai/riscv-nuclei-elf-gcc-9.2.0.0/gcc_fix_raissrc/bin/../lib/gcc/riscv-nuclei-elf/9.2.0/../../../../riscv-nuclei-elf/lib/rv32imafc/ilp32f\libg_nano.a(lib_a-impure.o)
                              d:/software/yuyin/qiqiyinqiluntai/riscv-nuclei-elf-gcc-9.2.0.0/gcc_fix_raissrc/bin/../lib/gcc/riscv-nuclei-elf/9.2.0/../../../../riscv-nuclei-elf/lib/rv32imafc/ilp32f\libg_nano.a(lib_a-exit.o) (_global_impure_ptr)
d:/software/yuyin/qiqiyinqiluntai/riscv-nuclei-elf-gcc-9.2.0.0/gcc_fix_raissrc/bin/../lib/gcc/riscv-nuclei-elf/9.2.0/../../../../riscv-nuclei-elf/lib/rv32imafc/ilp32f\libg_nano.a(lib_a-init.o)
                              build/objs/ci130x_startup.o (__libc_init_array)
d:/software/yuyin/qiqiyinqiluntai/riscv-nuclei-elf-gcc-9.2.0.0/gcc_fix_raissrc/bin/../lib/gcc/riscv-nuclei-elf/9.2.0/../../../../riscv-nuclei-elf/lib/rv32imafc/ilp32f\libg_nano.a(lib_a-rand.o)
                              build/objs/command_info.o (symbol from plugin) (rand)
d:/software/yuyin/qiqiyinqiluntai/riscv-nuclei-elf-gcc-9.2.0.0/gcc_fix_raissrc/bin/../lib/gcc/riscv-nuclei-elf/9.2.0/../../../../riscv-nuclei-elf/lib/rv32imafc/ilp32f\libg_nano.a(lib_a-__atexit.o)
                              d:/software/yuyin/qiqiyinqiluntai/riscv-nuclei-elf-gcc-9.2.0.0/gcc_fix_raissrc/bin/../lib/gcc/riscv-nuclei-elf/9.2.0/../../../../riscv-nuclei-elf/lib/rv32imafc/ilp32f\libg_nano.a(lib_a-atexit.o) (__register_exitproc)
d:/software/yuyin/qiqiyinqiluntai/riscv-nuclei-elf-gcc-9.2.0.0/gcc_fix_raissrc/bin/../lib/gcc/riscv-nuclei-elf/9.2.0/../../../../riscv-nuclei-elf/lib/rv32imafc/ilp32f\libg_nano.a(lib_a-__call_atexit.o)
                              d:/software/yuyin/qiqiyinqiluntai/riscv-nuclei-elf-gcc-9.2.0.0/gcc_fix_raissrc/bin/../lib/gcc/riscv-nuclei-elf/9.2.0/../../../../riscv-nuclei-elf/lib/rv32imafc/ilp32f\libg_nano.a(lib_a-__atexit.o) (__call_exitprocs)
d:/software/yuyin/qiqiyinqiluntai/riscv-nuclei-elf-gcc-9.2.0.0/gcc_fix_raissrc/bin/../lib/gcc/riscv-nuclei-elf/9.2.0/../../../../riscv-nuclei-elf/lib/rv32imafc/ilp32f\libgloss_nano.a(sys_exit.o)
                              d:/software/yuyin/qiqiyinqiluntai/riscv-nuclei-elf-gcc-9.2.0.0/gcc_fix_raissrc/bin/../lib/gcc/riscv-nuclei-elf/9.2.0/../../../../riscv-nuclei-elf/lib/rv32imafc/ilp32f\libg_nano.a(lib_a-exit.o) (_exit)
d:/software/yuyin/qiqiyinqiluntai/riscv-nuclei-elf-gcc-9.2.0.0/gcc_fix_raissrc/bin/../lib/gcc/riscv-nuclei-elf/9.2.0/../../../../riscv-nuclei-elf/lib/rv32imafc/ilp32f\libc_nano.a(lib_a-errno.o)
                              d:/software/yuyin/qiqiyinqiluntai/riscv-nuclei-elf-gcc-9.2.0.0/gcc_fix_raissrc/bin/../lib/gcc/riscv-nuclei-elf/9.2.0/../../../../riscv-nuclei-elf/lib/rv32imafc/ilp32f\libgloss_nano.a(sys_exit.o) (__errno)
d:/software/yuyin/qiqiyinqiluntai/riscv-nuclei-elf-gcc-9.2.0.0/gcc_fix_raissrc/bin/../lib/gcc/riscv-nuclei-elf/9.2.0/../../../../riscv-nuclei-elf/lib/rv32imafc/ilp32f\libm.a(lib_a-s_floor.o)
                              C:\TMP\nn_denoise_rtc_sample.elf.t3mX4c.ltrans0.ltrans.o (floor)
d:/software/yuyin/qiqiyinqiluntai/riscv-nuclei-elf-gcc-9.2.0.0/gcc_fix_raissrc/bin/../lib/gcc/riscv-nuclei-elf/9.2.0/../../../../riscv-nuclei-elf/lib/rv32imafc/ilp32f\libm.a(lib_a-w_acos.o)
                              C:\TMP\nn_denoise_rtc_sample.elf.t3mX4c.ltrans0.ltrans.o (acos)
d:/software/yuyin/qiqiyinqiluntai/riscv-nuclei-elf-gcc-9.2.0.0/gcc_fix_raissrc/bin/../lib/gcc/riscv-nuclei-elf/9.2.0/../../../../riscv-nuclei-elf/lib/rv32imafc/ilp32f\libm.a(lib_a-w_exp.o)
                              C:\TMP\nn_denoise_rtc_sample.elf.t3mX4c.ltrans0.ltrans.o (exp)
d:/software/yuyin/qiqiyinqiluntai/riscv-nuclei-elf-gcc-9.2.0.0/gcc_fix_raissrc/bin/../lib/gcc/riscv-nuclei-elf/9.2.0/../../../../riscv-nuclei-elf/lib/rv32imafc/ilp32f\libm.a(lib_a-wf_pow.o)
                              C:\TMP\nn_denoise_rtc_sample.elf.t3mX4c.ltrans0.ltrans.o (powf)
d:/software/yuyin/qiqiyinqiluntai/riscv-nuclei-elf-gcc-9.2.0.0/gcc_fix_raissrc/bin/../lib/gcc/riscv-nuclei-elf/9.2.0/../../../../riscv-nuclei-elf/lib/rv32imafc/ilp32f\libm.a(lib_a-w_log.o)
                              C:\TMP\nn_denoise_rtc_sample.elf.t3mX4c.ltrans0.ltrans.o (log)
d:/software/yuyin/qiqiyinqiluntai/riscv-nuclei-elf-gcc-9.2.0.0/gcc_fix_raissrc/bin/../lib/gcc/riscv-nuclei-elf/9.2.0/../../../../riscv-nuclei-elf/lib/rv32imafc/ilp32f\libm.a(lib_a-w_sqrt.o)
                              C:\TMP\nn_denoise_rtc_sample.elf.t3mX4c.ltrans0.ltrans.o (sqrt)
d:/software/yuyin/qiqiyinqiluntai/riscv-nuclei-elf-gcc-9.2.0.0/gcc_fix_raissrc/bin/../lib/gcc/riscv-nuclei-elf/9.2.0/../../../../riscv-nuclei-elf/lib/rv32imafc/ilp32f\libm.a(lib_a-e_acos.o)
                              d:/software/yuyin/qiqiyinqiluntai/riscv-nuclei-elf-gcc-9.2.0.0/gcc_fix_raissrc/bin/../lib/gcc/riscv-nuclei-elf/9.2.0/../../../../riscv-nuclei-elf/lib/rv32imafc/ilp32f\libm.a(lib_a-w_acos.o) (__ieee754_acos)
d:/software/yuyin/qiqiyinqiluntai/riscv-nuclei-elf-gcc-9.2.0.0/gcc_fix_raissrc/bin/../lib/gcc/riscv-nuclei-elf/9.2.0/../../../../riscv-nuclei-elf/lib/rv32imafc/ilp32f\libm.a(lib_a-e_exp.o)
                              d:/software/yuyin/qiqiyinqiluntai/riscv-nuclei-elf-gcc-9.2.0.0/gcc_fix_raissrc/bin/../lib/gcc/riscv-nuclei-elf/9.2.0/../../../../riscv-nuclei-elf/lib/rv32imafc/ilp32f\libm.a(lib_a-w_exp.o) (__ieee754_exp)
d:/software/yuyin/qiqiyinqiluntai/riscv-nuclei-elf-gcc-9.2.0.0/gcc_fix_raissrc/bin/../lib/gcc/riscv-nuclei-elf/9.2.0/../../../../riscv-nuclei-elf/lib/rv32imafc/ilp32f\libm.a(lib_a-ef_pow.o)
                              d:/software/yuyin/qiqiyinqiluntai/riscv-nuclei-elf-gcc-9.2.0.0/gcc_fix_raissrc/bin/../lib/gcc/riscv-nuclei-elf/9.2.0/../../../../riscv-nuclei-elf/lib/rv32imafc/ilp32f\libm.a(lib_a-wf_pow.o) (__ieee754_powf)
d:/software/yuyin/qiqiyinqiluntai/riscv-nuclei-elf-gcc-9.2.0.0/gcc_fix_raissrc/bin/../lib/gcc/riscv-nuclei-elf/9.2.0/../../../../riscv-nuclei-elf/lib/rv32imafc/ilp32f\libm.a(lib_a-ef_sqrt.o)
                              d:/software/yuyin/qiqiyinqiluntai/riscv-nuclei-elf-gcc-9.2.0.0/gcc_fix_raissrc/bin/../lib/gcc/riscv-nuclei-elf/9.2.0/../../../../riscv-nuclei-elf/lib/rv32imafc/ilp32f\libm.a(lib_a-ef_pow.o) (__ieee754_sqrtf)
d:/software/yuyin/qiqiyinqiluntai/riscv-nuclei-elf-gcc-9.2.0.0/gcc_fix_raissrc/bin/../lib/gcc/riscv-nuclei-elf/9.2.0/../../../../riscv-nuclei-elf/lib/rv32imafc/ilp32f\libm.a(lib_a-e_log.o)
                              d:/software/yuyin/qiqiyinqiluntai/riscv-nuclei-elf-gcc-9.2.0.0/gcc_fix_raissrc/bin/../lib/gcc/riscv-nuclei-elf/9.2.0/../../../../riscv-nuclei-elf/lib/rv32imafc/ilp32f\libm.a(lib_a-w_log.o) (__ieee754_log)
d:/software/yuyin/qiqiyinqiluntai/riscv-nuclei-elf-gcc-9.2.0.0/gcc_fix_raissrc/bin/../lib/gcc/riscv-nuclei-elf/9.2.0/../../../../riscv-nuclei-elf/lib/rv32imafc/ilp32f\libm.a(lib_a-e_sqrt.o)
                              d:/software/yuyin/qiqiyinqiluntai/riscv-nuclei-elf-gcc-9.2.0.0/gcc_fix_raissrc/bin/../lib/gcc/riscv-nuclei-elf/9.2.0/../../../../riscv-nuclei-elf/lib/rv32imafc/ilp32f\libm.a(lib_a-w_sqrt.o) (__ieee754_sqrt)
d:/software/yuyin/qiqiyinqiluntai/riscv-nuclei-elf-gcc-9.2.0.0/gcc_fix_raissrc/bin/../lib/gcc/riscv-nuclei-elf/9.2.0/../../../../riscv-nuclei-elf/lib/rv32imafc/ilp32f\libm.a(lib_a-s_fabs.o)
                              d:/software/yuyin/qiqiyinqiluntai/riscv-nuclei-elf-gcc-9.2.0.0/gcc_fix_raissrc/bin/../lib/gcc/riscv-nuclei-elf/9.2.0/../../../../riscv-nuclei-elf/lib/rv32imafc/ilp32f\libm.a(lib_a-w_acos.o) (fabs)
d:/software/yuyin/qiqiyinqiluntai/riscv-nuclei-elf-gcc-9.2.0.0/gcc_fix_raissrc/bin/../lib/gcc/riscv-nuclei-elf/9.2.0/../../../../riscv-nuclei-elf/lib/rv32imafc/ilp32f\libm.a(lib_a-sf_finite.o)
                              d:/software/yuyin/qiqiyinqiluntai/riscv-nuclei-elf-gcc-9.2.0.0/gcc_fix_raissrc/bin/../lib/gcc/riscv-nuclei-elf/9.2.0/../../../../riscv-nuclei-elf/lib/rv32imafc/ilp32f\libm.a(lib_a-wf_pow.o) (finitef)
d:/software/yuyin/qiqiyinqiluntai/riscv-nuclei-elf-gcc-9.2.0.0/gcc_fix_raissrc/bin/../lib/gcc/riscv-nuclei-elf/9.2.0/../../../../riscv-nuclei-elf/lib/rv32imafc/ilp32f\libm.a(lib_a-s_finite.o)
                              d:/software/yuyin/qiqiyinqiluntai/riscv-nuclei-elf-gcc-9.2.0.0/gcc_fix_raissrc/bin/../lib/gcc/riscv-nuclei-elf/9.2.0/../../../../riscv-nuclei-elf/lib/rv32imafc/ilp32f\libm.a(lib_a-w_exp.o) (finite)
d:/software/yuyin/qiqiyinqiluntai/riscv-nuclei-elf-gcc-9.2.0.0/gcc_fix_raissrc/bin/../lib/gcc/riscv-nuclei-elf/9.2.0/../../../../riscv-nuclei-elf/lib/rv32imafc/ilp32f\libm.a(lib_a-sf_nan.o)
                              d:/software/yuyin/qiqiyinqiluntai/riscv-nuclei-elf-gcc-9.2.0.0/gcc_fix_raissrc/bin/../lib/gcc/riscv-nuclei-elf/9.2.0/../../../../riscv-nuclei-elf/lib/rv32imafc/ilp32f\libm.a(lib_a-ef_pow.o) (nanf)
d:/software/yuyin/qiqiyinqiluntai/riscv-nuclei-elf-gcc-9.2.0.0/gcc_fix_raissrc/bin/../lib/gcc/riscv-nuclei-elf/9.2.0/../../../../riscv-nuclei-elf/lib/rv32imafc/ilp32f\libm.a(lib_a-sf_rint.o)
                              d:/software/yuyin/qiqiyinqiluntai/riscv-nuclei-elf-gcc-9.2.0.0/gcc_fix_raissrc/bin/../lib/gcc/riscv-nuclei-elf/9.2.0/../../../../riscv-nuclei-elf/lib/rv32imafc/ilp32f\libm.a(lib_a-wf_pow.o) (rintf)
d:/software/yuyin/qiqiyinqiluntai/riscv-nuclei-elf-gcc-9.2.0.0/gcc_fix_raissrc/bin/../lib/gcc/riscv-nuclei-elf/9.2.0/../../../../riscv-nuclei-elf/lib/rv32imafc/ilp32f\libm.a(lib_a-sf_scalbn.o)
                              d:/software/yuyin/qiqiyinqiluntai/riscv-nuclei-elf-gcc-9.2.0.0/gcc_fix_raissrc/bin/../lib/gcc/riscv-nuclei-elf/9.2.0/../../../../riscv-nuclei-elf/lib/rv32imafc/ilp32f\libm.a(lib_a-ef_pow.o) (scalbnf)
d:/software/yuyin/qiqiyinqiluntai/riscv-nuclei-elf-gcc-9.2.0.0/gcc_fix_raissrc/bin/../lib/gcc/riscv-nuclei-elf/9.2.0/../../../../riscv-nuclei-elf/lib/rv32imafc/ilp32f\libm.a(lib_a-s_lib_ver.o)
                              d:/software/yuyin/qiqiyinqiluntai/riscv-nuclei-elf-gcc-9.2.0.0/gcc_fix_raissrc/bin/../lib/gcc/riscv-nuclei-elf/9.2.0/../../../../riscv-nuclei-elf/lib/rv32imafc/ilp32f\libm.a(lib_a-w_acos.o) (__fdlib_version)
d:/software/yuyin/qiqiyinqiluntai/riscv-nuclei-elf-gcc-9.2.0.0/gcc_fix_raissrc/bin/../lib/gcc/riscv-nuclei-elf/9.2.0/../../../../riscv-nuclei-elf/lib/rv32imafc/ilp32f\libm.a(lib_a-s_matherr.o)
                              d:/software/yuyin/qiqiyinqiluntai/riscv-nuclei-elf-gcc-9.2.0.0/gcc_fix_raissrc/bin/../lib/gcc/riscv-nuclei-elf/9.2.0/../../../../riscv-nuclei-elf/lib/rv32imafc/ilp32f\libm.a(lib_a-w_acos.o) (matherr)
d:/software/yuyin/qiqiyinqiluntai/riscv-nuclei-elf-gcc-9.2.0.0/gcc_fix_raissrc/bin/../lib/gcc/riscv-nuclei-elf/9.2.0/../../../../riscv-nuclei-elf/lib/rv32imafc/ilp32f\libm.a(lib_a-s_nan.o)
                              d:/software/yuyin/qiqiyinqiluntai/riscv-nuclei-elf-gcc-9.2.0.0/gcc_fix_raissrc/bin/../lib/gcc/riscv-nuclei-elf/9.2.0/../../../../riscv-nuclei-elf/lib/rv32imafc/ilp32f\libm.a(lib_a-w_acos.o) (nan)
d:/software/yuyin/qiqiyinqiluntai/riscv-nuclei-elf-gcc-9.2.0.0/gcc_fix_raissrc/bin/../lib/gcc/riscv-nuclei-elf/9.2.0/../../../../riscv-nuclei-elf/lib/rv32imafc/ilp32f\libm.a(lib_a-sf_copysign.o)
                              d:/software/yuyin/qiqiyinqiluntai/riscv-nuclei-elf-gcc-9.2.0.0/gcc_fix_raissrc/bin/../lib/gcc/riscv-nuclei-elf/9.2.0/../../../../riscv-nuclei-elf/lib/rv32imafc/ilp32f\libm.a(lib_a-sf_scalbn.o) (copysignf)
d:/software/yuyin/qiqiyinqiluntai/riscv-nuclei-elf-gcc-9.2.0.0/gcc_fix_raissrc/bin/../lib/gcc/riscv-nuclei-elf/9.2.0/rv32imafc/ilp32f\libgcc.a(adddf3.o)
                              C:\TMP\nn_denoise_rtc_sample.elf.t3mX4c.ltrans0.ltrans.o (__adddf3)
d:/software/yuyin/qiqiyinqiluntai/riscv-nuclei-elf-gcc-9.2.0.0/gcc_fix_raissrc/bin/../lib/gcc/riscv-nuclei-elf/9.2.0/rv32imafc/ilp32f\libgcc.a(divdf3.o)
                              C:\TMP\nn_denoise_rtc_sample.elf.t3mX4c.ltrans0.ltrans.o (__divdf3)
d:/software/yuyin/qiqiyinqiluntai/riscv-nuclei-elf-gcc-9.2.0.0/gcc_fix_raissrc/bin/../lib/gcc/riscv-nuclei-elf/9.2.0/rv32imafc/ilp32f\libgcc.a(eqdf2.o)
                              d:/software/yuyin/qiqiyinqiluntai/riscv-nuclei-elf-gcc-9.2.0.0/gcc_fix_raissrc/bin/../lib/gcc/riscv-nuclei-elf/9.2.0/../../../../riscv-nuclei-elf/lib/rv32imafc/ilp32f\libm.a(lib_a-w_log.o) (__eqdf2)
d:/software/yuyin/qiqiyinqiluntai/riscv-nuclei-elf-gcc-9.2.0.0/gcc_fix_raissrc/bin/../lib/gcc/riscv-nuclei-elf/9.2.0/rv32imafc/ilp32f\libgcc.a(gedf2.o)
                              C:\TMP\nn_denoise_rtc_sample.elf.t3mX4c.ltrans0.ltrans.o (__gtdf2)
d:/software/yuyin/qiqiyinqiluntai/riscv-nuclei-elf-gcc-9.2.0.0/gcc_fix_raissrc/bin/../lib/gcc/riscv-nuclei-elf/9.2.0/rv32imafc/ilp32f\libgcc.a(ledf2.o)
                              C:\TMP\nn_denoise_rtc_sample.elf.t3mX4c.ltrans0.ltrans.o (__ltdf2)
d:/software/yuyin/qiqiyinqiluntai/riscv-nuclei-elf-gcc-9.2.0.0/gcc_fix_raissrc/bin/../lib/gcc/riscv-nuclei-elf/9.2.0/rv32imafc/ilp32f\libgcc.a(muldf3.o)
                              C:\TMP\nn_denoise_rtc_sample.elf.t3mX4c.ltrans0.ltrans.o (__muldf3)
d:/software/yuyin/qiqiyinqiluntai/riscv-nuclei-elf-gcc-9.2.0.0/gcc_fix_raissrc/bin/../lib/gcc/riscv-nuclei-elf/9.2.0/rv32imafc/ilp32f\libgcc.a(subdf3.o)
                              C:\TMP\nn_denoise_rtc_sample.elf.t3mX4c.ltrans0.ltrans.o (__subdf3)
d:/software/yuyin/qiqiyinqiluntai/riscv-nuclei-elf-gcc-9.2.0.0/gcc_fix_raissrc/bin/../lib/gcc/riscv-nuclei-elf/9.2.0/rv32imafc/ilp32f\libgcc.a(unorddf2.o)
                              d:/software/yuyin/qiqiyinqiluntai/riscv-nuclei-elf-gcc-9.2.0.0/gcc_fix_raissrc/bin/../lib/gcc/riscv-nuclei-elf/9.2.0/../../../../riscv-nuclei-elf/lib/rv32imafc/ilp32f\libm.a(lib_a-w_acos.o) (__unorddf2)
d:/software/yuyin/qiqiyinqiluntai/riscv-nuclei-elf-gcc-9.2.0.0/gcc_fix_raissrc/bin/../lib/gcc/riscv-nuclei-elf/9.2.0/rv32imafc/ilp32f\libgcc.a(fixdfsi.o)
                              C:\TMP\nn_denoise_rtc_sample.elf.t3mX4c.ltrans0.ltrans.o (__fixdfsi)
d:/software/yuyin/qiqiyinqiluntai/riscv-nuclei-elf-gcc-9.2.0.0/gcc_fix_raissrc/bin/../lib/gcc/riscv-nuclei-elf/9.2.0/rv32imafc/ilp32f\libgcc.a(floatsidf.o)
                              C:\TMP\nn_denoise_rtc_sample.elf.t3mX4c.ltrans0.ltrans.o (__floatsidf)
d:/software/yuyin/qiqiyinqiluntai/riscv-nuclei-elf-gcc-9.2.0.0/gcc_fix_raissrc/bin/../lib/gcc/riscv-nuclei-elf/9.2.0/rv32imafc/ilp32f\libgcc.a(extendsfdf2.o)
                              C:\TMP\nn_denoise_rtc_sample.elf.t3mX4c.ltrans0.ltrans.o (__extendsfdf2)
d:/software/yuyin/qiqiyinqiluntai/riscv-nuclei-elf-gcc-9.2.0.0/gcc_fix_raissrc/bin/../lib/gcc/riscv-nuclei-elf/9.2.0/rv32imafc/ilp32f\libgcc.a(truncdfsf2.o)
                              C:\TMP\nn_denoise_rtc_sample.elf.t3mX4c.ltrans0.ltrans.o (__truncdfsf2)
d:/software/yuyin/qiqiyinqiluntai/riscv-nuclei-elf-gcc-9.2.0.0/gcc_fix_raissrc/bin/../lib/gcc/riscv-nuclei-elf/9.2.0/rv32imafc/ilp32f\libgcc.a(_clzsi2.o)
                              d:/software/yuyin/qiqiyinqiluntai/riscv-nuclei-elf-gcc-9.2.0.0/gcc_fix_raissrc/bin/../lib/gcc/riscv-nuclei-elf/9.2.0/rv32imafc/ilp32f\libgcc.a(adddf3.o) (__clzsi2)
d:/software/yuyin/qiqiyinqiluntai/riscv-nuclei-elf-gcc-9.2.0.0/gcc_fix_raissrc/bin/../lib/gcc/riscv-nuclei-elf/9.2.0/rv32imafc/ilp32f\libgcc.a(_clz.o)
                              d:/software/yuyin/qiqiyinqiluntai/riscv-nuclei-elf-gcc-9.2.0.0/gcc_fix_raissrc/bin/../lib/gcc/riscv-nuclei-elf/9.2.0/rv32imafc/ilp32f\libgcc.a(_clzsi2.o) (__clz_tab)
d:/software/yuyin/qiqiyinqiluntai/riscv-nuclei-elf-gcc-9.2.0.0/gcc_fix_raissrc/bin/../lib/gcc/riscv-nuclei-elf/9.2.0/../../../../riscv-nuclei-elf/lib/rv32imafc/ilp32f\libg_nano.a(lib_a-calloc.o)
                              C:\TMP\nn_denoise_rtc_sample.elf.t3mX4c.ltrans0.ltrans.o (calloc)
d:/software/yuyin/qiqiyinqiluntai/riscv-nuclei-elf-gcc-9.2.0.0/gcc_fix_raissrc/bin/../lib/gcc/riscv-nuclei-elf/9.2.0/../../../../riscv-nuclei-elf/lib/rv32imafc/ilp32f\libg_nano.a(lib_a-fprintf.o)
                              C:\TMP\nn_denoise_rtc_sample.elf.t3mX4c.ltrans0.ltrans.o (fprintf)
d:/software/yuyin/qiqiyinqiluntai/riscv-nuclei-elf-gcc-9.2.0.0/gcc_fix_raissrc/bin/../lib/gcc/riscv-nuclei-elf/9.2.0/../../../../riscv-nuclei-elf/lib/rv32imafc/ilp32f\libg_nano.a(lib_a-nano-callocr.o)
                              d:/software/yuyin/qiqiyinqiluntai/riscv-nuclei-elf-gcc-9.2.0.0/gcc_fix_raissrc/bin/../lib/gcc/riscv-nuclei-elf/9.2.0/../../../../riscv-nuclei-elf/lib/rv32imafc/ilp32f\libg_nano.a(lib_a-calloc.o) (_calloc_r)
d:/software/yuyin/qiqiyinqiluntai/riscv-nuclei-elf-gcc-9.2.0.0/gcc_fix_raissrc/bin/../lib/gcc/riscv-nuclei-elf/9.2.0/../../../../riscv-nuclei-elf/lib/rv32imafc/ilp32f\libg_nano.a(lib_a-nano-mallocr.o)
                              d:/software/yuyin/qiqiyinqiluntai/riscv-nuclei-elf-gcc-9.2.0.0/gcc_fix_raissrc/bin/../lib/gcc/riscv-nuclei-elf/9.2.0/../../../../riscv-nuclei-elf/lib/rv32imafc/ilp32f\libg_nano.a(lib_a-nano-callocr.o) (_malloc_r)
d:/software/yuyin/qiqiyinqiluntai/riscv-nuclei-elf-gcc-9.2.0.0/gcc_fix_raissrc/bin/../lib/gcc/riscv-nuclei-elf/9.2.0/../../../../riscv-nuclei-elf/lib/rv32imafc/ilp32f\libg_nano.a(lib_a-nano-vfprintf.o)
                              d:/software/yuyin/qiqiyinqiluntai/riscv-nuclei-elf-gcc-9.2.0.0/gcc_fix_raissrc/bin/../lib/gcc/riscv-nuclei-elf/9.2.0/../../../../riscv-nuclei-elf/lib/rv32imafc/ilp32f\libg_nano.a(lib_a-fprintf.o) (_vfprintf_r)
d:/software/yuyin/qiqiyinqiluntai/riscv-nuclei-elf-gcc-9.2.0.0/gcc_fix_raissrc/bin/../lib/gcc/riscv-nuclei-elf/9.2.0/../../../../riscv-nuclei-elf/lib/rv32imafc/ilp32f\libg_nano.a(lib_a-realloc.o)
                              C:\TMP\nn_denoise_rtc_sample.elf.t3mX4c.ltrans1.ltrans.o (realloc)
d:/software/yuyin/qiqiyinqiluntai/riscv-nuclei-elf-gcc-9.2.0.0/gcc_fix_raissrc/bin/../lib/gcc/riscv-nuclei-elf/9.2.0/../../../../riscv-nuclei-elf/lib/rv32imafc/ilp32f\libg_nano.a(lib_a-sbrkr.o)
                              d:/software/yuyin/qiqiyinqiluntai/riscv-nuclei-elf-gcc-9.2.0.0/gcc_fix_raissrc/bin/../lib/gcc/riscv-nuclei-elf/9.2.0/../../../../riscv-nuclei-elf/lib/rv32imafc/ilp32f\libg_nano.a(lib_a-nano-mallocr.o) (_sbrk_r)
d:/software/yuyin/qiqiyinqiluntai/riscv-nuclei-elf-gcc-9.2.0.0/gcc_fix_raissrc/bin/../lib/gcc/riscv-nuclei-elf/9.2.0/../../../../riscv-nuclei-elf/lib/rv32imafc/ilp32f\libg_nano.a(lib_a-wbuf.o)
                              d:/software/yuyin/qiqiyinqiluntai/riscv-nuclei-elf-gcc-9.2.0.0/gcc_fix_raissrc/bin/../lib/gcc/riscv-nuclei-elf/9.2.0/../../../../riscv-nuclei-elf/lib/rv32imafc/ilp32f\libg_nano.a(lib_a-nano-vfprintf.o) (__swbuf_r)
d:/software/yuyin/qiqiyinqiluntai/riscv-nuclei-elf-gcc-9.2.0.0/gcc_fix_raissrc/bin/../lib/gcc/riscv-nuclei-elf/9.2.0/../../../../riscv-nuclei-elf/lib/rv32imafc/ilp32f\libg_nano.a(lib_a-wsetup.o)
                              d:/software/yuyin/qiqiyinqiluntai/riscv-nuclei-elf-gcc-9.2.0.0/gcc_fix_raissrc/bin/../lib/gcc/riscv-nuclei-elf/9.2.0/../../../../riscv-nuclei-elf/lib/rv32imafc/ilp32f\libg_nano.a(lib_a-nano-vfprintf.o) (__swsetup_r)
d:/software/yuyin/qiqiyinqiluntai/riscv-nuclei-elf-gcc-9.2.0.0/gcc_fix_raissrc/bin/../lib/gcc/riscv-nuclei-elf/9.2.0/../../../../riscv-nuclei-elf/lib/rv32imafc/ilp32f\libg_nano.a(lib_a-fflush.o)
                              d:/software/yuyin/qiqiyinqiluntai/riscv-nuclei-elf-gcc-9.2.0.0/gcc_fix_raissrc/bin/../lib/gcc/riscv-nuclei-elf/9.2.0/../../../../riscv-nuclei-elf/lib/rv32imafc/ilp32f\libg_nano.a(lib_a-wbuf.o) (_fflush_r)
d:/software/yuyin/qiqiyinqiluntai/riscv-nuclei-elf-gcc-9.2.0.0/gcc_fix_raissrc/bin/../lib/gcc/riscv-nuclei-elf/9.2.0/../../../../riscv-nuclei-elf/lib/rv32imafc/ilp32f\libg_nano.a(lib_a-findfp.o)
                              d:/software/yuyin/qiqiyinqiluntai/riscv-nuclei-elf-gcc-9.2.0.0/gcc_fix_raissrc/bin/../lib/gcc/riscv-nuclei-elf/9.2.0/../../../../riscv-nuclei-elf/lib/rv32imafc/ilp32f\libg_nano.a(lib_a-nano-vfprintf.o) (__sinit)
d:/software/yuyin/qiqiyinqiluntai/riscv-nuclei-elf-gcc-9.2.0.0/gcc_fix_raissrc/bin/../lib/gcc/riscv-nuclei-elf/9.2.0/../../../../riscv-nuclei-elf/lib/rv32imafc/ilp32f\libg_nano.a(lib_a-fvwrite.o)
                              d:/software/yuyin/qiqiyinqiluntai/riscv-nuclei-elf-gcc-9.2.0.0/gcc_fix_raissrc/bin/../lib/gcc/riscv-nuclei-elf/9.2.0/../../../../riscv-nuclei-elf/lib/rv32imafc/ilp32f\libg_nano.a(lib_a-nano-vfprintf.o) (__sfvwrite_r)
d:/software/yuyin/qiqiyinqiluntai/riscv-nuclei-elf-gcc-9.2.0.0/gcc_fix_raissrc/bin/../lib/gcc/riscv-nuclei-elf/9.2.0/../../../../riscv-nuclei-elf/lib/rv32imafc/ilp32f\libg_nano.a(lib_a-fwalk.o)
                              d:/software/yuyin/qiqiyinqiluntai/riscv-nuclei-elf-gcc-9.2.0.0/gcc_fix_raissrc/bin/../lib/gcc/riscv-nuclei-elf/9.2.0/../../../../riscv-nuclei-elf/lib/rv32imafc/ilp32f\libg_nano.a(lib_a-findfp.o) (_fwalk)
d:/software/yuyin/qiqiyinqiluntai/riscv-nuclei-elf-gcc-9.2.0.0/gcc_fix_raissrc/bin/../lib/gcc/riscv-nuclei-elf/9.2.0/../../../../riscv-nuclei-elf/lib/rv32imafc/ilp32f\libg_nano.a(lib_a-makebuf.o)
                              d:/software/yuyin/qiqiyinqiluntai/riscv-nuclei-elf-gcc-9.2.0.0/gcc_fix_raissrc/bin/../lib/gcc/riscv-nuclei-elf/9.2.0/../../../../riscv-nuclei-elf/lib/rv32imafc/ilp32f\libg_nano.a(lib_a-wsetup.o) (__smakebuf_r)
d:/software/yuyin/qiqiyinqiluntai/riscv-nuclei-elf-gcc-9.2.0.0/gcc_fix_raissrc/bin/../lib/gcc/riscv-nuclei-elf/9.2.0/../../../../riscv-nuclei-elf/lib/rv32imafc/ilp32f\libg_nano.a(lib_a-memchr.o)
                              d:/software/yuyin/qiqiyinqiluntai/riscv-nuclei-elf-gcc-9.2.0.0/gcc_fix_raissrc/bin/../lib/gcc/riscv-nuclei-elf/9.2.0/../../../../riscv-nuclei-elf/lib/rv32imafc/ilp32f\libg_nano.a(lib_a-nano-vfprintf.o) (memchr)
d:/software/yuyin/qiqiyinqiluntai/riscv-nuclei-elf-gcc-9.2.0.0/gcc_fix_raissrc/bin/../lib/gcc/riscv-nuclei-elf/9.2.0/../../../../riscv-nuclei-elf/lib/rv32imafc/ilp32f\libg_nano.a(lib_a-nano-freer.o)
                              d:/software/yuyin/qiqiyinqiluntai/riscv-nuclei-elf-gcc-9.2.0.0/gcc_fix_raissrc/bin/../lib/gcc/riscv-nuclei-elf/9.2.0/../../../../riscv-nuclei-elf/lib/rv32imafc/ilp32f\libg_nano.a(lib_a-wsetup.o) (_free_r)
d:/software/yuyin/qiqiyinqiluntai/riscv-nuclei-elf-gcc-9.2.0.0/gcc_fix_raissrc/bin/../lib/gcc/riscv-nuclei-elf/9.2.0/../../../../riscv-nuclei-elf/lib/rv32imafc/ilp32f\libg_nano.a(lib_a-nano-reallocr.o)
                              d:/software/yuyin/qiqiyinqiluntai/riscv-nuclei-elf-gcc-9.2.0.0/gcc_fix_raissrc/bin/../lib/gcc/riscv-nuclei-elf/9.2.0/../../../../riscv-nuclei-elf/lib/rv32imafc/ilp32f\libg_nano.a(lib_a-realloc.o) (_realloc_r)
d:/software/yuyin/qiqiyinqiluntai/riscv-nuclei-elf-gcc-9.2.0.0/gcc_fix_raissrc/bin/../lib/gcc/riscv-nuclei-elf/9.2.0/../../../../riscv-nuclei-elf/lib/rv32imafc/ilp32f\libg_nano.a(lib_a-nano-vfprintf_i.o)
                              d:/software/yuyin/qiqiyinqiluntai/riscv-nuclei-elf-gcc-9.2.0.0/gcc_fix_raissrc/bin/../lib/gcc/riscv-nuclei-elf/9.2.0/../../../../riscv-nuclei-elf/lib/rv32imafc/ilp32f\libg_nano.a(lib_a-nano-vfprintf.o) (_printf_i)
d:/software/yuyin/qiqiyinqiluntai/riscv-nuclei-elf-gcc-9.2.0.0/gcc_fix_raissrc/bin/../lib/gcc/riscv-nuclei-elf/9.2.0/../../../../riscv-nuclei-elf/lib/rv32imafc/ilp32f\libg_nano.a(lib_a-reent.o)
                              d:/software/yuyin/qiqiyinqiluntai/riscv-nuclei-elf-gcc-9.2.0.0/gcc_fix_raissrc/bin/../lib/gcc/riscv-nuclei-elf/9.2.0/../../../../riscv-nuclei-elf/lib/rv32imafc/ilp32f\libg_nano.a(lib_a-sbrkr.o) (errno)
d:/software/yuyin/qiqiyinqiluntai/riscv-nuclei-elf-gcc-9.2.0.0/gcc_fix_raissrc/bin/../lib/gcc/riscv-nuclei-elf/9.2.0/../../../../riscv-nuclei-elf/lib/rv32imafc/ilp32f\libg_nano.a(lib_a-stdio.o)
                              d:/software/yuyin/qiqiyinqiluntai/riscv-nuclei-elf-gcc-9.2.0.0/gcc_fix_raissrc/bin/../lib/gcc/riscv-nuclei-elf/9.2.0/../../../../riscv-nuclei-elf/lib/rv32imafc/ilp32f\libg_nano.a(lib_a-findfp.o) (__sread)
d:/software/yuyin/qiqiyinqiluntai/riscv-nuclei-elf-gcc-9.2.0.0/gcc_fix_raissrc/bin/../lib/gcc/riscv-nuclei-elf/9.2.0/../../../../riscv-nuclei-elf/lib/rv32imafc/ilp32f\libg_nano.a(lib_a-writer.o)
                              d:/software/yuyin/qiqiyinqiluntai/riscv-nuclei-elf-gcc-9.2.0.0/gcc_fix_raissrc/bin/../lib/gcc/riscv-nuclei-elf/9.2.0/../../../../riscv-nuclei-elf/lib/rv32imafc/ilp32f\libg_nano.a(lib_a-stdio.o) (_write_r)
d:/software/yuyin/qiqiyinqiluntai/riscv-nuclei-elf-gcc-9.2.0.0/gcc_fix_raissrc/bin/../lib/gcc/riscv-nuclei-elf/9.2.0/../../../../riscv-nuclei-elf/lib/rv32imafc/ilp32f\libg_nano.a(lib_a-closer.o)
                              d:/software/yuyin/qiqiyinqiluntai/riscv-nuclei-elf-gcc-9.2.0.0/gcc_fix_raissrc/bin/../lib/gcc/riscv-nuclei-elf/9.2.0/../../../../riscv-nuclei-elf/lib/rv32imafc/ilp32f\libg_nano.a(lib_a-stdio.o) (_close_r)
d:/software/yuyin/qiqiyinqiluntai/riscv-nuclei-elf-gcc-9.2.0.0/gcc_fix_raissrc/bin/../lib/gcc/riscv-nuclei-elf/9.2.0/../../../../riscv-nuclei-elf/lib/rv32imafc/ilp32f\libg_nano.a(lib_a-fstatr.o)
                              d:/software/yuyin/qiqiyinqiluntai/riscv-nuclei-elf-gcc-9.2.0.0/gcc_fix_raissrc/bin/../lib/gcc/riscv-nuclei-elf/9.2.0/../../../../riscv-nuclei-elf/lib/rv32imafc/ilp32f\libg_nano.a(lib_a-makebuf.o) (_fstat_r)
d:/software/yuyin/qiqiyinqiluntai/riscv-nuclei-elf-gcc-9.2.0.0/gcc_fix_raissrc/bin/../lib/gcc/riscv-nuclei-elf/9.2.0/../../../../riscv-nuclei-elf/lib/rv32imafc/ilp32f\libg_nano.a(lib_a-isattyr.o)
                              d:/software/yuyin/qiqiyinqiluntai/riscv-nuclei-elf-gcc-9.2.0.0/gcc_fix_raissrc/bin/../lib/gcc/riscv-nuclei-elf/9.2.0/../../../../riscv-nuclei-elf/lib/rv32imafc/ilp32f\libg_nano.a(lib_a-makebuf.o) (_isatty_r)
d:/software/yuyin/qiqiyinqiluntai/riscv-nuclei-elf-gcc-9.2.0.0/gcc_fix_raissrc/bin/../lib/gcc/riscv-nuclei-elf/9.2.0/../../../../riscv-nuclei-elf/lib/rv32imafc/ilp32f\libg_nano.a(lib_a-lseekr.o)
                              d:/software/yuyin/qiqiyinqiluntai/riscv-nuclei-elf-gcc-9.2.0.0/gcc_fix_raissrc/bin/../lib/gcc/riscv-nuclei-elf/9.2.0/../../../../riscv-nuclei-elf/lib/rv32imafc/ilp32f\libg_nano.a(lib_a-stdio.o) (_lseek_r)
d:/software/yuyin/qiqiyinqiluntai/riscv-nuclei-elf-gcc-9.2.0.0/gcc_fix_raissrc/bin/../lib/gcc/riscv-nuclei-elf/9.2.0/../../../../riscv-nuclei-elf/lib/rv32imafc/ilp32f\libg_nano.a(lib_a-nano-msizer.o)
                              d:/software/yuyin/qiqiyinqiluntai/riscv-nuclei-elf-gcc-9.2.0.0/gcc_fix_raissrc/bin/../lib/gcc/riscv-nuclei-elf/9.2.0/../../../../riscv-nuclei-elf/lib/rv32imafc/ilp32f\libg_nano.a(lib_a-nano-reallocr.o) (_malloc_usable_size_r)
d:/software/yuyin/qiqiyinqiluntai/riscv-nuclei-elf-gcc-9.2.0.0/gcc_fix_raissrc/bin/../lib/gcc/riscv-nuclei-elf/9.2.0/../../../../riscv-nuclei-elf/lib/rv32imafc/ilp32f\libg_nano.a(lib_a-readr.o)
                              d:/software/yuyin/qiqiyinqiluntai/riscv-nuclei-elf-gcc-9.2.0.0/gcc_fix_raissrc/bin/../lib/gcc/riscv-nuclei-elf/9.2.0/../../../../riscv-nuclei-elf/lib/rv32imafc/ilp32f\libg_nano.a(lib_a-stdio.o) (_read_r)
d:/software/yuyin/qiqiyinqiluntai/riscv-nuclei-elf-gcc-9.2.0.0/gcc_fix_raissrc/bin/../lib/gcc/riscv-nuclei-elf/9.2.0/../../../../riscv-nuclei-elf/lib/rv32imafc/ilp32f\libgloss_nano.a(sys_close.o)
                              d:/software/yuyin/qiqiyinqiluntai/riscv-nuclei-elf-gcc-9.2.0.0/gcc_fix_raissrc/bin/../lib/gcc/riscv-nuclei-elf/9.2.0/../../../../riscv-nuclei-elf/lib/rv32imafc/ilp32f\libg_nano.a(lib_a-closer.o) (_close)
d:/software/yuyin/qiqiyinqiluntai/riscv-nuclei-elf-gcc-9.2.0.0/gcc_fix_raissrc/bin/../lib/gcc/riscv-nuclei-elf/9.2.0/../../../../riscv-nuclei-elf/lib/rv32imafc/ilp32f\libgloss_nano.a(sys_fstat.o)
                              d:/software/yuyin/qiqiyinqiluntai/riscv-nuclei-elf-gcc-9.2.0.0/gcc_fix_raissrc/bin/../lib/gcc/riscv-nuclei-elf/9.2.0/../../../../riscv-nuclei-elf/lib/rv32imafc/ilp32f\libg_nano.a(lib_a-fstatr.o) (_fstat)
d:/software/yuyin/qiqiyinqiluntai/riscv-nuclei-elf-gcc-9.2.0.0/gcc_fix_raissrc/bin/../lib/gcc/riscv-nuclei-elf/9.2.0/../../../../riscv-nuclei-elf/lib/rv32imafc/ilp32f\libgloss_nano.a(sys_isatty.o)
                              d:/software/yuyin/qiqiyinqiluntai/riscv-nuclei-elf-gcc-9.2.0.0/gcc_fix_raissrc/bin/../lib/gcc/riscv-nuclei-elf/9.2.0/../../../../riscv-nuclei-elf/lib/rv32imafc/ilp32f\libg_nano.a(lib_a-isattyr.o) (_isatty)
d:/software/yuyin/qiqiyinqiluntai/riscv-nuclei-elf-gcc-9.2.0.0/gcc_fix_raissrc/bin/../lib/gcc/riscv-nuclei-elf/9.2.0/../../../../riscv-nuclei-elf/lib/rv32imafc/ilp32f\libgloss_nano.a(sys_lseek.o)
                              d:/software/yuyin/qiqiyinqiluntai/riscv-nuclei-elf-gcc-9.2.0.0/gcc_fix_raissrc/bin/../lib/gcc/riscv-nuclei-elf/9.2.0/../../../../riscv-nuclei-elf/lib/rv32imafc/ilp32f\libg_nano.a(lib_a-lseekr.o) (_lseek)
d:/software/yuyin/qiqiyinqiluntai/riscv-nuclei-elf-gcc-9.2.0.0/gcc_fix_raissrc/bin/../lib/gcc/riscv-nuclei-elf/9.2.0/../../../../riscv-nuclei-elf/lib/rv32imafc/ilp32f\libgloss_nano.a(sys_read.o)
                              d:/software/yuyin/qiqiyinqiluntai/riscv-nuclei-elf-gcc-9.2.0.0/gcc_fix_raissrc/bin/../lib/gcc/riscv-nuclei-elf/9.2.0/../../../../riscv-nuclei-elf/lib/rv32imafc/ilp32f\libg_nano.a(lib_a-readr.o) (_read)
d:/software/yuyin/qiqiyinqiluntai/riscv-nuclei-elf-gcc-9.2.0.0/gcc_fix_raissrc/bin/../lib/gcc/riscv-nuclei-elf/9.2.0/../../../../riscv-nuclei-elf/lib/rv32imafc/ilp32f\libgloss_nano.a(sys_write.o)
                              d:/software/yuyin/qiqiyinqiluntai/riscv-nuclei-elf-gcc-9.2.0.0/gcc_fix_raissrc/bin/../lib/gcc/riscv-nuclei-elf/9.2.0/../../../../riscv-nuclei-elf/lib/rv32imafc/ilp32f\libg_nano.a(lib_a-writer.o) (_write)
d:/software/yuyin/qiqiyinqiluntai/riscv-nuclei-elf-gcc-9.2.0.0/gcc_fix_raissrc/bin/../lib/gcc/riscv-nuclei-elf/9.2.0/../../../../riscv-nuclei-elf/lib/rv32imafc/ilp32f\libgloss_nano.a(sys_conv_stat.o)
                              d:/software/yuyin/qiqiyinqiluntai/riscv-nuclei-elf-gcc-9.2.0.0/gcc_fix_raissrc/bin/../lib/gcc/riscv-nuclei-elf/9.2.0/../../../../riscv-nuclei-elf/lib/rv32imafc/ilp32f\libgloss_nano.a(sys_fstat.o) (_conv_stat)

Allocating common symbols
Common symbol       size              file

errno               0x4               d:/software/yuyin/qiqiyinqiluntai/riscv-nuclei-elf-gcc-9.2.0.0/gcc_fix_raissrc/bin/../lib/gcc/riscv-nuclei-elf/9.2.0/../../../../riscv-nuclei-elf/lib/rv32imafc/ilp32f\libg_nano.a(lib_a-reent.o)

Discarded input sections

 .text          0x0000000000000000        0x0 C:\TMP\nn_denoise_rtc_sample.elf.t3mX4c.ltrans0.ltrans.o
 .data          0x0000000000000000        0x0 C:\TMP\nn_denoise_rtc_sample.elf.t3mX4c.ltrans0.ltrans.o
 .bss           0x0000000000000000        0x0 C:\TMP\nn_denoise_rtc_sample.elf.t3mX4c.ltrans0.ltrans.o
 .sdata2.EFUSE.lto_priv.0
                0x0000000000000000        0x4 C:\TMP\nn_denoise_rtc_sample.elf.t3mX4c.ltrans0.ltrans.o
 .text          0x0000000000000000        0x0 C:\TMP\nn_denoise_rtc_sample.elf.t3mX4c.ltrans1.ltrans.o
 .data          0x0000000000000000        0x0 C:\TMP\nn_denoise_rtc_sample.elf.t3mX4c.ltrans1.ltrans.o
 .bss           0x0000000000000000        0x0 C:\TMP\nn_denoise_rtc_sample.elf.t3mX4c.ltrans1.ltrans.o
 .text.IISxDMA_TADDR1.part.0
                0x0000000000000000       0x38 C:\TMP\nn_denoise_rtc_sample.elf.t3mX4c.ltrans1.ltrans.o
 .rodata._exit.str1.4
                0x0000000000000000       0x12 C:\TMP\nn_denoise_rtc_sample.elf.t3mX4c.ltrans1.ltrans.o
 .text._exit    0x0000000000000000       0x3e C:\TMP\nn_denoise_rtc_sample.elf.t3mX4c.ltrans1.ltrans.o
 .bss.tmp       0x0000000000000000       0x20 C:\TMP\nn_denoise_rtc_sample.elf.t3mX4c.ltrans1.ltrans.o
 .sbss.adc_cha0_int_flag
                0x0000000000000000        0x1 C:\TMP\nn_denoise_rtc_sample.elf.t3mX4c.ltrans1.ltrans.o
 .sbss.adc_cha1_int_flag
                0x0000000000000000        0x1 C:\TMP\nn_denoise_rtc_sample.elf.t3mX4c.ltrans1.ltrans.o
 .sbss.adc_cha2_int_flag
                0x0000000000000000        0x1 C:\TMP\nn_denoise_rtc_sample.elf.t3mX4c.ltrans1.ltrans.o
 .sbss.adc_cha3_int_flag
                0x0000000000000000        0x1 C:\TMP\nn_denoise_rtc_sample.elf.t3mX4c.ltrans1.ltrans.o
 .sbss.adc_cha4_int_flag
                0x0000000000000000        0x1 C:\TMP\nn_denoise_rtc_sample.elf.t3mX4c.ltrans1.ltrans.o
 .sbss.adc_cha5_int_flag
                0x0000000000000000        0x1 C:\TMP\nn_denoise_rtc_sample.elf.t3mX4c.ltrans1.ltrans.o
 .sbss.audio_block_size
                0x0000000000000000        0x2 C:\TMP\nn_denoise_rtc_sample.elf.t3mX4c.ltrans1.ltrans.o
 .sbss.audio_play_status
                0x0000000000000000        0x1 C:\TMP\nn_denoise_rtc_sample.elf.t3mX4c.ltrans1.ltrans.o
 .sbss.d1_max   0x0000000000000000        0x4 C:\TMP\nn_denoise_rtc_sample.elf.t3mX4c.ltrans1.ltrans.o
 .sbss.d2_max   0x0000000000000000        0x4 C:\TMP\nn_denoise_rtc_sample.elf.t3mX4c.ltrans1.ltrans.o
 .sbss.g_scu_int
                0x0000000000000000        0x1 C:\TMP\nn_denoise_rtc_sample.elf.t3mX4c.ltrans1.ltrans.o
 .sbss.sg_cmp_twice_en
                0x0000000000000000        0x1 C:\TMP\nn_denoise_rtc_sample.elf.t3mX4c.ltrans1.ltrans.o
 .sbss.sg_dnn_psram_transfer_sram_done
                0x0000000000000000        0x1 C:\TMP\nn_denoise_rtc_sample.elf.t3mX4c.ltrans1.ltrans.o
 .sbss.src_from_right_mic
                0x0000000000000000        0x1 C:\TMP\nn_denoise_rtc_sample.elf.t3mX4c.ltrans1.ltrans.o
 .sbss.vad_fe_rpmsg_wait_state
                0x0000000000000000        0x4 C:\TMP\nn_denoise_rtc_sample.elf.t3mX4c.ltrans1.ltrans.o
 .sdata.sg_adpt_skpdecode_flag
                0x0000000000000000        0x1 C:\TMP\nn_denoise_rtc_sample.elf.t3mX4c.ltrans1.ltrans.o
 .sdata2.__FUNCTION__.3941
                0x0000000000000000        0x6 C:\TMP\nn_denoise_rtc_sample.elf.t3mX4c.ltrans1.ltrans.o
 .comment       0x0000000000000000       0x12 C:\TMP\cc4YLWqI.debug.temp.o
 .comment       0x0000000000000000       0x12 C:\TMP\cc6QkfHa.debug.temp.o
 .comment       0x0000000000000000       0x12 C:\TMP\cc4209hD.debug.temp.o
 .comment       0x0000000000000000       0x12 C:\TMP\ccCPWpM5.debug.temp.o
 .comment       0x0000000000000000       0x12 C:\TMP\ccQrCnjy.debug.temp.o
 .debug_info    0x0000000000000000      0x99a C:\TMP\ccaraeN4.debug.temp.o
 .debug_abbrev  0x0000000000000000      0x1e4 C:\TMP\ccaraeN4.debug.temp.o
 .debug_line    0x0000000000000000      0x1cf C:\TMP\ccaraeN4.debug.temp.o
 .debug_str     0x0000000000000000      0x6d8 C:\TMP\ccaraeN4.debug.temp.o
 .comment       0x0000000000000000       0x12 C:\TMP\ccaraeN4.debug.temp.o
 .comment       0x0000000000000000       0x12 C:\TMP\ccCmUm6A.debug.temp.o
 .debug_info    0x0000000000000000      0x91a C:\TMP\ccQWwjT7.debug.temp.o
 .debug_abbrev  0x0000000000000000      0x1b1 C:\TMP\ccQWwjT7.debug.temp.o
 .debug_line    0x0000000000000000      0x151 C:\TMP\ccQWwjT7.debug.temp.o
 .debug_str     0x0000000000000000      0x663 C:\TMP\ccQWwjT7.debug.temp.o
 .comment       0x0000000000000000       0x12 C:\TMP\ccQWwjT7.debug.temp.o
 .comment       0x0000000000000000       0x12 C:\TMP\ccA3nlrE.debug.temp.o
 .comment       0x0000000000000000       0x12 C:\TMP\ccyrueia.debug.temp.o
 .comment       0x0000000000000000       0x12 C:\TMP\ccQH9FZF.debug.temp.o
 .comment       0x0000000000000000       0x12 C:\TMP\ccAkZg8b.debug.temp.o
 .comment       0x0000000000000000       0x12 C:\TMP\ccIrIPbI.debug.temp.o
 .comment       0x0000000000000000       0x12 C:\TMP\cc2w12vd.debug.temp.o
 .comment       0x0000000000000000       0x12 C:\TMP\cckXRLGI.debug.temp.o
 .comment       0x0000000000000000       0x12 C:\TMP\ccWvt5de.debug.temp.o
 .comment       0x0000000000000000       0x12 C:\TMP\ccW86zPJ.debug.temp.o
 .comment       0x0000000000000000       0x12 C:\TMP\ccoG6aIe.debug.temp.o
 .debug_info    0x0000000000000000      0xcde C:\TMP\ccSOoSrN.debug.temp.o
 .debug_abbrev  0x0000000000000000      0x25a C:\TMP\ccSOoSrN.debug.temp.o
 .debug_line    0x0000000000000000      0x263 C:\TMP\ccSOoSrN.debug.temp.o
 .debug_str     0x0000000000000000      0x9ec C:\TMP\ccSOoSrN.debug.temp.o
 .comment       0x0000000000000000       0x12 C:\TMP\ccSOoSrN.debug.temp.o
 .comment       0x0000000000000000       0x12 C:\TMP\ccgOl22l.debug.temp.o
 .debug_info    0x0000000000000000      0xdd8 C:\TMP\ccycRq8U.debug.temp.o
 .debug_abbrev  0x0000000000000000      0x254 C:\TMP\ccycRq8U.debug.temp.o
 .debug_line    0x0000000000000000      0x2d7 C:\TMP\ccycRq8U.debug.temp.o
 .debug_str     0x0000000000000000      0xc0d C:\TMP\ccycRq8U.debug.temp.o
 .comment       0x0000000000000000       0x12 C:\TMP\ccycRq8U.debug.temp.o
 .comment       0x0000000000000000       0x12 C:\TMP\cc6IqVfu.debug.temp.o
 .comment       0x0000000000000000       0x12 C:\TMP\ccoz6Dg3.debug.temp.o
 .comment       0x0000000000000000       0x12 C:\TMP\ccoOXNqB.debug.temp.o
 .comment       0x0000000000000000       0x12 C:\TMP\ccM3YNr9.debug.temp.o
 .comment       0x0000000000000000       0x12 C:\TMP\ccAAQFTH.debug.temp.o
 .comment       0x0000000000000000       0x12 C:\TMP\ccCmYdcg.debug.temp.o
 .debug_info    0x0000000000000000      0xfc7 C:\TMP\ccEivgLN.debug.temp.o
 .debug_abbrev  0x0000000000000000      0x29a C:\TMP\ccEivgLN.debug.temp.o
 .debug_line    0x0000000000000000      0x2b0 C:\TMP\ccEivgLN.debug.temp.o
 .debug_str     0x0000000000000000      0xd3f C:\TMP\ccEivgLN.debug.temp.o
 .comment       0x0000000000000000       0x12 C:\TMP\ccEivgLN.debug.temp.o
 .comment       0x0000000000000000       0x12 C:\TMP\cc6JTJal.debug.temp.o
 .debug_info    0x0000000000000000     0x1f12 C:\TMP\ccc8xR3S.debug.temp.o
 .debug_abbrev  0x0000000000000000      0x310 C:\TMP\ccc8xR3S.debug.temp.o
 .debug_line    0x0000000000000000      0x378 C:\TMP\ccc8xR3S.debug.temp.o
 .debug_str     0x0000000000000000     0x15ac C:\TMP\ccc8xR3S.debug.temp.o
 .comment       0x0000000000000000       0x12 C:\TMP\ccc8xR3S.debug.temp.o
 .debug_info    0x0000000000000000      0x9ea C:\TMP\cc82JiZq.debug.temp.o
 .debug_abbrev  0x0000000000000000      0x203 C:\TMP\cc82JiZq.debug.temp.o
 .debug_line    0x0000000000000000      0x15c C:\TMP\cc82JiZq.debug.temp.o
 .debug_str     0x0000000000000000      0x6a3 C:\TMP\cc82JiZq.debug.temp.o
 .comment       0x0000000000000000       0x12 C:\TMP\cc82JiZq.debug.temp.o
 .debug_info    0x0000000000000000      0xb34 C:\TMP\ccGBs5NY.debug.temp.o
 .debug_abbrev  0x0000000000000000      0x261 C:\TMP\ccGBs5NY.debug.temp.o
 .debug_line    0x0000000000000000      0x268 C:\TMP\ccGBs5NY.debug.temp.o
 .debug_str     0x0000000000000000      0x812 C:\TMP\ccGBs5NY.debug.temp.o
 .comment       0x0000000000000000       0x12 C:\TMP\ccGBs5NY.debug.temp.o
 .debug_info    0x0000000000000000     0x138f C:\TMP\ccgDJ2Mv.debug.temp.o
 .debug_abbrev  0x0000000000000000      0x250 C:\TMP\ccgDJ2Mv.debug.temp.o
 .debug_line    0x0000000000000000      0x2e7 C:\TMP\ccgDJ2Mv.debug.temp.o
 .debug_str     0x0000000000000000      0xbd9 C:\TMP\ccgDJ2Mv.debug.temp.o
 .comment       0x0000000000000000       0x12 C:\TMP\ccgDJ2Mv.debug.temp.o
 .debug_info    0x0000000000000000     0x181e C:\TMP\cc8ZOGC2.debug.temp.o
 .debug_abbrev  0x0000000000000000      0x2c8 C:\TMP\cc8ZOGC2.debug.temp.o
 .debug_line    0x0000000000000000      0x300 C:\TMP\cc8ZOGC2.debug.temp.o
 .debug_str     0x0000000000000000      0xf79 C:\TMP\cc8ZOGC2.debug.temp.o
 .comment       0x0000000000000000       0x12 C:\TMP\cc8ZOGC2.debug.temp.o
 .debug_info    0x0000000000000000      0xba7 C:\TMP\ccMJlFTz.debug.temp.o
 .debug_abbrev  0x0000000000000000      0x263 C:\TMP\ccMJlFTz.debug.temp.o
 .debug_line    0x0000000000000000      0x275 C:\TMP\ccMJlFTz.debug.temp.o
 .debug_str     0x0000000000000000      0x75d C:\TMP\ccMJlFTz.debug.temp.o
 .comment       0x0000000000000000       0x12 C:\TMP\ccMJlFTz.debug.temp.o
 .comment       0x0000000000000000       0x12 C:\TMP\ccwSzk46.debug.temp.o
 .debug_info    0x0000000000000000       0xa2 C:\TMP\ccYVjF8H.debug.temp.o
 .debug_abbrev  0x0000000000000000       0x5f C:\TMP\ccYVjF8H.debug.temp.o
 .debug_line    0x0000000000000000      0x14a C:\TMP\ccYVjF8H.debug.temp.o
 .debug_str     0x0000000000000000      0x278 C:\TMP\ccYVjF8H.debug.temp.o
 .comment       0x0000000000000000       0x12 C:\TMP\ccYVjF8H.debug.temp.o
 .comment       0x0000000000000000       0x12 C:\TMP\ccIYmIhj.debug.temp.o
 .comment       0x0000000000000000       0x12 C:\TMP\ccW0pvkU.debug.temp.o
 .comment       0x0000000000000000       0x12 C:\TMP\ccydWBNv.debug.temp.o
 .comment       0x0000000000000000       0x12 C:\TMP\ccMNkB36.debug.temp.o
 .comment       0x0000000000000000       0x12 C:\TMP\cc0NmanI.debug.temp.o
 .comment       0x0000000000000000       0x12 C:\TMP\ccioQYZi.debug.temp.o
 .comment       0x0000000000000000       0x12 C:\TMP\ccWT9ltT.debug.temp.o
 .comment       0x0000000000000000       0x12 C:\TMP\cc2LDSnu.debug.temp.o
 .comment       0x0000000000000000       0x12 C:\TMP\cckkAW84.debug.temp.o
 .debug_info    0x0000000000000000     0x1049 C:\TMP\ccyqRlaF.debug.temp.o
 .debug_abbrev  0x0000000000000000      0x280 C:\TMP\ccyqRlaF.debug.temp.o
 .debug_line    0x0000000000000000      0x3b7 C:\TMP\ccyqRlaF.debug.temp.o
 .debug_str     0x0000000000000000     0x114e C:\TMP\ccyqRlaF.debug.temp.o
 .comment       0x0000000000000000       0x12 C:\TMP\ccyqRlaF.debug.temp.o
 .debug_info    0x0000000000000000      0xba7 C:\TMP\ccyhkvVe.debug.temp.o
 .debug_abbrev  0x0000000000000000      0x21b C:\TMP\ccyhkvVe.debug.temp.o
 .debug_line    0x0000000000000000      0x206 C:\TMP\ccyhkvVe.debug.temp.o
 .debug_str     0x0000000000000000      0xb21 C:\TMP\ccyhkvVe.debug.temp.o
 .comment       0x0000000000000000       0x12 C:\TMP\ccyhkvVe.debug.temp.o
 .comment       0x0000000000000000       0x12 C:\TMP\cckLCbaP.debug.temp.o
 .comment       0x0000000000000000       0x12 C:\TMP\ccMAbIrp.debug.temp.o
 .debug_info    0x0000000000000000      0x99a C:\TMP\ccUbSRCZ.debug.temp.o
 .debug_abbrev  0x0000000000000000      0x1e4 C:\TMP\ccUbSRCZ.debug.temp.o
 .debug_line    0x0000000000000000      0x1cf C:\TMP\ccUbSRCZ.debug.temp.o
 .debug_str     0x0000000000000000      0x6ef C:\TMP\ccUbSRCZ.debug.temp.o
 .comment       0x0000000000000000       0x12 C:\TMP\ccUbSRCZ.debug.temp.o
 .debug_info    0x0000000000000000      0x99a C:\TMP\ccUud2Xy.debug.temp.o
 .debug_abbrev  0x0000000000000000      0x1e4 C:\TMP\ccUud2Xy.debug.temp.o
 .debug_line    0x0000000000000000      0x1cf C:\TMP\ccUud2Xy.debug.temp.o
 .debug_str     0x0000000000000000      0x6e5 C:\TMP\ccUud2Xy.debug.temp.o
 .comment       0x0000000000000000       0x12 C:\TMP\ccUud2Xy.debug.temp.o
 .comment       0x0000000000000000       0x12 C:\TMP\cc88Jun8.debug.temp.o
 .comment       0x0000000000000000       0x12 C:\TMP\ccWJ5m0H.debug.temp.o
 .debug_info    0x0000000000000000      0xb5d C:\TMP\cc4IMcyh.debug.temp.o
 .debug_abbrev  0x0000000000000000      0x272 C:\TMP\cc4IMcyh.debug.temp.o
 .debug_line    0x0000000000000000      0x34b C:\TMP\cc4IMcyh.debug.temp.o
 .debug_str     0x0000000000000000      0x88a C:\TMP\cc4IMcyh.debug.temp.o
 .comment       0x0000000000000000       0x12 C:\TMP\cc4IMcyh.debug.temp.o
 .comment       0x0000000000000000       0x12 C:\TMP\ccejiF5U.debug.temp.o
 .comment       0x0000000000000000       0x12 C:\TMP\ccwXVfpy.debug.temp.o
 .comment       0x0000000000000000       0x12 C:\TMP\ccKdocac.debug.temp.o
 .comment       0x0000000000000000       0x12 C:\TMP\ccI5TmZP.debug.temp.o
 .comment       0x0000000000000000       0x12 C:\TMP\ccUcGdFt.debug.temp.o
 .debug_info    0x0000000000000000     0x270c C:\TMP\cc0McSw6.debug.temp.o
 .debug_abbrev  0x0000000000000000      0x34b C:\TMP\cc0McSw6.debug.temp.o
 .debug_line    0x0000000000000000      0x2fd C:\TMP\cc0McSw6.debug.temp.o
 .debug_str     0x0000000000000000     0x260d C:\TMP\cc0McSw6.debug.temp.o
 .comment       0x0000000000000000       0x12 C:\TMP\cc0McSw6.debug.temp.o
 .debug_info    0x0000000000000000      0xe7a C:\TMP\ccanCbfJ.debug.temp.o
 .debug_abbrev  0x0000000000000000      0x201 C:\TMP\ccanCbfJ.debug.temp.o
 .debug_line    0x0000000000000000      0x24f C:\TMP\ccanCbfJ.debug.temp.o
 .debug_str     0x0000000000000000      0xbef C:\TMP\ccanCbfJ.debug.temp.o
 .comment       0x0000000000000000       0x12 C:\TMP\ccanCbfJ.debug.temp.o
 .comment       0x0000000000000000       0x12 C:\TMP\ccG0PW1l.debug.temp.o
 .comment       0x0000000000000000       0x12 C:\TMP\ccEmJP1Y.debug.temp.o
 .comment       0x0000000000000000       0x12 C:\TMP\ccMtM85B.debug.temp.o
 .comment       0x0000000000000000       0x12 C:\TMP\ccWNvWqe.debug.temp.o
 .comment       0x0000000000000000       0x12 C:\TMP\ccIDzZDQ.debug.temp.o
 .comment       0x0000000000000000       0x12 C:\TMP\ccUKdEdt.debug.temp.o
 .debug_info    0x0000000000000000      0xb3b C:\TMP\ccam0BQ5.debug.temp.o
 .debug_abbrev  0x0000000000000000      0x212 C:\TMP\ccam0BQ5.debug.temp.o
 .debug_line    0x0000000000000000      0x22c C:\TMP\ccam0BQ5.debug.temp.o
 .debug_str     0x0000000000000000      0x764 C:\TMP\ccam0BQ5.debug.temp.o
 .comment       0x0000000000000000       0x12 C:\TMP\ccam0BQ5.debug.temp.o
 .debug_info    0x0000000000000000      0xd34 C:\TMP\ccQYa9jI.debug.temp.o
 .debug_abbrev  0x0000000000000000      0x221 C:\TMP\ccQYa9jI.debug.temp.o
 .debug_line    0x0000000000000000      0x1c2 C:\TMP\ccQYa9jI.debug.temp.o
 .debug_str     0x0000000000000000      0xa3f C:\TMP\ccQYa9jI.debug.temp.o
 .comment       0x0000000000000000       0x12 C:\TMP\ccQYa9jI.debug.temp.o
 .comment       0x0000000000000000       0x12 C:\TMP\ccwfYLZj.debug.temp.o
 .comment       0x0000000000000000       0x12 C:\TMP\ccanP2vV.debug.temp.o
 .comment       0x0000000000000000       0x12 C:\TMP\ccqAXBxx.debug.temp.o
 .debug_info    0x0000000000000000     0x2009 C:\TMP\ccUMFBid.debug.temp.o
 .debug_abbrev  0x0000000000000000      0x314 C:\TMP\ccUMFBid.debug.temp.o
 .debug_line    0x0000000000000000      0x31c C:\TMP\ccUMFBid.debug.temp.o
 .debug_str     0x0000000000000000     0x17c5 C:\TMP\ccUMFBid.debug.temp.o
 .comment       0x0000000000000000       0x12 C:\TMP\ccUMFBid.debug.temp.o
 .debug_info    0x0000000000000000     0x1e56 C:\TMP\ccuykFYS.debug.temp.o
 .debug_abbrev  0x0000000000000000      0x333 C:\TMP\ccuykFYS.debug.temp.o
 .debug_line    0x0000000000000000      0x307 C:\TMP\ccuykFYS.debug.temp.o
 .debug_str     0x0000000000000000     0x1433 C:\TMP\ccuykFYS.debug.temp.o
 .comment       0x0000000000000000       0x12 C:\TMP\ccuykFYS.debug.temp.o
 .comment       0x0000000000000000       0x12 C:\TMP\ccYcdZEy.debug.temp.o
 .comment       0x0000000000000000       0x12 C:\TMP\ccWgNIQe.debug.temp.o
 .comment       0x0000000000000000       0x12 C:\TMP\cc8znSOU.debug.temp.o
 .comment       0x0000000000000000       0x12 C:\TMP\ccALTbRA.debug.temp.o
 .comment       0x0000000000000000       0x12 C:\TMP\ccYYdI9f.debug.temp.o
 .comment       0x0000000000000000       0x12 C:\TMP\cc6dXIeV.debug.temp.o
 .debug_info    0x0000000000000000      0x982 C:\TMP\ccc6Y4OA.debug.temp.o
 .debug_abbrev  0x0000000000000000      0x1e4 C:\TMP\ccc6Y4OA.debug.temp.o
 .debug_line    0x0000000000000000      0x2a1 C:\TMP\ccc6Y4OA.debug.temp.o
 .debug_str     0x0000000000000000      0x6ea C:\TMP\ccc6Y4OA.debug.temp.o
 .comment       0x0000000000000000       0x12 C:\TMP\ccc6Y4OA.debug.temp.o
 .comment       0x0000000000000000       0x12 C:\TMP\ccioCXbg.debug.temp.o
 .comment       0x0000000000000000       0x12 C:\TMP\ccsU93OU.debug.temp.o
 .comment       0x0000000000000000       0x12 C:\TMP\ccqIV5wz.debug.temp.o
 .comment       0x0000000000000000       0x12 C:\TMP\ccoWiE1d.debug.temp.o
 .comment       0x0000000000000000       0x12 C:\TMP\cc2PI6WS.debug.temp.o
 .comment       0x0000000000000000       0x12 C:\TMP\ccy5RdXx.debug.temp.o
 .comment       0x0000000000000000       0x12 C:\TMP\cceuJ0Nc.debug.temp.o
 .comment       0x0000000000000000       0x12 C:\TMP\ccKfNAQQ.debug.temp.o
 .comment       0x0000000000000000       0x12 C:\TMP\ccMNvvXu.debug.temp.o
 .comment       0x0000000000000000       0x12 C:\TMP\cc0xd6U8.debug.temp.o
 .comment       0x0000000000000000       0x12 C:\TMP\ccUrrsjN.debug.temp.o
 .comment       0x0000000000000000       0x12 C:\TMP\cceVCNyr.debug.temp.o
 .comment       0x0000000000000000       0x12 C:\TMP\ccsXfBG9.debug.temp.o
 .comment       0x0000000000000000       0x12 C:\TMP\ccuHuDSR.debug.temp.o
 .comment       0x0000000000000000       0x12 C:\TMP\cc4cNFVz.debug.temp.o
 .comment       0x0000000000000000       0x12 C:\TMP\ccWNzili.debug.temp.o
 .comment       0x0000000000000000       0x12 C:\TMP\ccIfNaP0.debug.temp.o
 .comment       0x0000000000000000       0x12 C:\TMP\ccChVz9I.debug.temp.o
 .comment       0x0000000000000000       0x12 C:\TMP\ccKO7eGq.debug.temp.o
 .comment       0x0000000000000000       0x12 C:\TMP\ccMAjp37.debug.temp.o
 .debug_info    0x0000000000000000      0xdd4 C:\TMP\cc0CU9TP.debug.temp.o
 .debug_abbrev  0x0000000000000000      0x2d9 C:\TMP\cc0CU9TP.debug.temp.o
 .debug_line    0x0000000000000000      0x25f C:\TMP\cc0CU9TP.debug.temp.o
 .debug_str     0x0000000000000000      0x84e C:\TMP\cc0CU9TP.debug.temp.o
 .comment       0x0000000000000000       0x12 C:\TMP\cc0CU9TP.debug.temp.o
 .comment       0x0000000000000000       0x12 C:\TMP\ccACoKBx.debug.temp.o
 .comment       0x0000000000000000       0x12 C:\TMP\ccq2nUnf.debug.temp.o
 .comment       0x0000000000000000       0x12 C:\TMP\cc6OP7pW.debug.temp.o
 .comment       0x0000000000000000       0x12 C:\TMP\cc82nMeD.debug.temp.o
 .comment       0x0000000000000000       0x12 C:\TMP\ccAqiT7j.debug.temp.o
 .comment       0x0000000000000000       0x12 C:\TMP\ccqAlhs1.debug.temp.o
 .comment       0x0000000000000000       0x12 C:\TMP\ccyFlzMI.debug.temp.o
 .comment       0x0000000000000000       0x12 C:\TMP\ccUv8FXp.debug.temp.o
 .comment       0x0000000000000000       0x12 C:\TMP\cckAzKk6.debug.temp.o
 .debug_info    0x0000000000000000     0x1966 C:\TMP\ccKyltyM.debug.temp.o
 .debug_abbrev  0x0000000000000000      0x2d4 C:\TMP\ccKyltyM.debug.temp.o
 .debug_line    0x0000000000000000      0x223 C:\TMP\ccKyltyM.debug.temp.o
 .debug_str     0x0000000000000000      0x86a C:\TMP\ccKyltyM.debug.temp.o
 .comment       0x0000000000000000       0x12 C:\TMP\ccKyltyM.debug.temp.o
 .comment       0x0000000000000000       0x12 C:\TMP\ccgGctQs.debug.temp.o
 .comment       0x0000000000000000       0x12 C:\TMP\ccmKSSl9.debug.temp.o
 .debug_info    0x0000000000000000     0x1149 C:\TMP\cc6iyJQT.debug.temp.o
 .debug_abbrev  0x0000000000000000      0x2dd C:\TMP\cc6iyJQT.debug.temp.o
 .debug_line    0x0000000000000000      0x322 C:\TMP\cc6iyJQT.debug.temp.o
 .debug_str     0x0000000000000000      0xaa5 C:\TMP\cc6iyJQT.debug.temp.o
 .comment       0x0000000000000000       0x12 C:\TMP\cc6iyJQT.debug.temp.o
 .debug_info    0x0000000000000000      0x9cf C:\TMP\cccryaqE.debug.temp.o
 .debug_abbrev  0x0000000000000000      0x1d8 C:\TMP\cccryaqE.debug.temp.o
 .debug_line    0x0000000000000000      0x1d0 C:\TMP\cccryaqE.debug.temp.o
 .debug_str     0x0000000000000000      0x6e8 C:\TMP\cccryaqE.debug.temp.o
 .comment       0x0000000000000000       0x12 C:\TMP\cccryaqE.debug.temp.o
 .debug_info    0x0000000000000000       0x1d C:\TMP\ccsIghQo.debug.temp.o
 .debug_abbrev  0x0000000000000000       0x10 C:\TMP\ccsIghQo.debug.temp.o
 .debug_line    0x0000000000000000       0x1e C:\TMP\ccsIghQo.debug.temp.o
 .debug_str     0x0000000000000000      0x1df C:\TMP\ccsIghQo.debug.temp.o
 .comment       0x0000000000000000       0x12 C:\TMP\ccsIghQo.debug.temp.o
 .comment       0x0000000000000000       0x12 C:\TMP\cciwW0C9.debug.temp.o
 .comment       0x0000000000000000       0x12 C:\TMP\ccoK7juU.debug.temp.o
 .comment       0x0000000000000000       0x12 C:\TMP\ccma17bF.debug.temp.o
 .comment       0x0000000000000000       0x12 C:\TMP\ccg8ehap.debug.temp.o
 .comment       0x0000000000000000       0x12 C:\TMP\cc4soLV8.debug.temp.o
 .comment       0x0000000000000000       0x12 C:\TMP\cccO4GLS.debug.temp.o
 .comment       0x0000000000000000       0x12 C:\TMP\ccOUHKOC.debug.temp.o
 .comment       0x0000000000000000       0x12 C:\TMP\ccClinWm.debug.temp.o
 .comment       0x0000000000000000       0x12 C:\TMP\ccmkdlk6.debug.temp.o
 .comment       0x0000000000000000       0x12 C:\TMP\cc8drquP.debug.temp.o
 .debug_info    0x0000000000000000     0x1e75 C:\TMP\ccGu6P5y.debug.temp.o
 .debug_abbrev  0x0000000000000000      0x359 C:\TMP\ccGu6P5y.debug.temp.o
 .debug_line    0x0000000000000000      0x487 C:\TMP\ccGu6P5y.debug.temp.o
 .debug_str     0x0000000000000000     0x14d9 C:\TMP\ccGu6P5y.debug.temp.o
 .comment       0x0000000000000000       0x12 C:\TMP\ccGu6P5y.debug.temp.o
 .debug_info    0x0000000000000000     0x1357 C:\TMP\cc8zTXGi.debug.temp.o
 .debug_abbrev  0x0000000000000000      0x265 C:\TMP\cc8zTXGi.debug.temp.o
 .debug_line    0x0000000000000000      0x2a4 C:\TMP\cc8zTXGi.debug.temp.o
 .debug_str     0x0000000000000000      0xc84 C:\TMP\cc8zTXGi.debug.temp.o
 .comment       0x0000000000000000       0x12 C:\TMP\cc8zTXGi.debug.temp.o
 .comment       0x0000000000000000       0x12 C:\TMP\ccInzvm2.debug.temp.o
 .debug_info    0x0000000000000000     0x13d7 C:\TMP\ccSnOW2K.debug.temp.o
 .debug_abbrev  0x0000000000000000      0x26f C:\TMP\ccSnOW2K.debug.temp.o
 .debug_line    0x0000000000000000      0x32f C:\TMP\ccSnOW2K.debug.temp.o
 .debug_str     0x0000000000000000      0xd45 C:\TMP\ccSnOW2K.debug.temp.o
 .comment       0x0000000000000000       0x12 C:\TMP\ccSnOW2K.debug.temp.o
 .comment       0x0000000000000000       0x12 C:\TMP\ccoXnYNt.debug.temp.o
 .comment       0x0000000000000000       0x12 C:\TMP\ccixn6tc.debug.temp.o
 .comment       0x0000000000000000       0x12 C:\TMP\cciUcNwV.debug.temp.o
 .comment       0x0000000000000000       0x12 C:\TMP\ccIQfJuE.debug.temp.o
 .comment       0x0000000000000000       0x12 C:\TMP\cciOiYpr.debug.temp.o
 .comment       0x0000000000000000       0x12 C:\TMP\cc0Ptl7d.debug.temp.o
 .comment       0x0000000000000000       0x12 C:\TMP\cceknSf1.debug.temp.o
 .comment       0x0000000000000000       0x12 C:\TMP\cciBcVsO.debug.temp.o
 .text          0x0000000000000000        0x0 build/objs/ci130x_vtable.o
 .data          0x0000000000000000        0x0 build/objs/ci130x_vtable.o
 .bss           0x0000000000000000        0x0 build/objs/ci130x_vtable.o
 .debug_line    0x0000000000000000       0x51 build/objs/ci130x_vtable.o
 .debug_info    0x0000000000000000       0x26 build/objs/ci130x_vtable.o
 .debug_abbrev  0x0000000000000000       0x14 build/objs/ci130x_vtable.o
 .debug_aranges
                0x0000000000000000       0x20 build/objs/ci130x_vtable.o
 .debug_str     0x0000000000000000       0xb8 build/objs/ci130x_vtable.o
 .riscv.attributes
                0x0000000000000000       0x2e build/objs/ci130x_vtable.o
 .text          0x0000000000000000        0x0 build/objs/ci130x_startup.o
 .data          0x0000000000000000        0x0 build/objs/ci130x_startup.o
 .bss           0x0000000000000000        0x0 build/objs/ci130x_startup.o
 .text          0x0000000000000000        0x0 ../../../libs\libnewlib_port.a(sbrk.o)
 .data          0x0000000000000000        0x0 ../../../libs\libnewlib_port.a(sbrk.o)
 .bss           0x0000000000000000        0x0 ../../../libs\libnewlib_port.a(sbrk.o)
 .text.__env_lock
                0x0000000000000000       0x18 ../../../libs\libnewlib_port.a(sbrk.o)
 .text.__env_unlock
                0x0000000000000000       0x18 ../../../libs\libnewlib_port.a(sbrk.o)
 .text.__wrap__malloc_r
                0x0000000000000000       0x1c ../../../libs\libnewlib_port.a(sbrk.o)
 .text.__wrap__free_r
                0x0000000000000000       0x1c ../../../libs\libnewlib_port.a(sbrk.o)
 .text.__wrap_strcat
                0x0000000000000000       0x18 ../../../libs\libnewlib_port.a(sbrk.o)
 .text.__wrap_strcpy
                0x0000000000000000       0x18 ../../../libs\libnewlib_port.a(sbrk.o)
 .text.__wrap_strlen
                0x0000000000000000       0x18 ../../../libs\libnewlib_port.a(sbrk.o)
 .text.__wrap_strncat
                0x0000000000000000       0x18 ../../../libs\libnewlib_port.a(sbrk.o)
 .text.__wrap_strncmp
                0x0000000000000000       0x18 ../../../libs\libnewlib_port.a(sbrk.o)
 .text.__wrap_strncpy
                0x0000000000000000       0x18 ../../../libs\libnewlib_port.a(sbrk.o)
 .text.__wrap_strstr
                0x0000000000000000       0x18 ../../../libs\libnewlib_port.a(sbrk.o)
 .text.__wrap_stpcpy
                0x0000000000000000       0x18 ../../../libs\libnewlib_port.a(sbrk.o)
 .text.__wrap_stpncpy
                0x0000000000000000       0x18 ../../../libs\libnewlib_port.a(sbrk.o)
 .text.__wrap_strnlen
                0x0000000000000000       0x18 ../../../libs\libnewlib_port.a(sbrk.o)
 .text.__wrap_strtoul
                0x0000000000000000       0x1a ../../../libs\libnewlib_port.a(sbrk.o)
 .text.__wrap_atol
                0x0000000000000000       0x1a ../../../libs\libnewlib_port.a(sbrk.o)
 .text.__wrap_qsort
                0x0000000000000000       0x1a ../../../libs\libnewlib_port.a(sbrk.o)
 .text.__wrap_vsnprintf
                0x0000000000000000       0x1a ../../../libs\libnewlib_port.a(sbrk.o)
 .text.__wrap_sprintf
                0x0000000000000000       0x1a ../../../libs\libnewlib_port.a(sbrk.o)
 .text.__wrap_abs
                0x0000000000000000       0x1a ../../../libs\libnewlib_port.a(sbrk.o)
 .text.__wrap_isnan
                0x0000000000000000       0x1a ../../../libs\libnewlib_port.a(sbrk.o)
 .text.__wrap_isinf
                0x0000000000000000       0x1a ../../../libs\libnewlib_port.a(sbrk.o)
 .text.__wrap_cosf
                0x0000000000000000       0x1a ../../../libs\libnewlib_port.a(sbrk.o)
 .text.__wrap_sinf
                0x0000000000000000       0x1a ../../../libs\libnewlib_port.a(sbrk.o)
 .text.__wrap_tanf
                0x0000000000000000       0x1a ../../../libs\libnewlib_port.a(sbrk.o)
 .text.__wrap_expf
                0x0000000000000000       0x1a ../../../libs\libnewlib_port.a(sbrk.o)
 .text.__wrap_sqrtf
                0x0000000000000000       0x1a ../../../libs\libnewlib_port.a(sbrk.o)
 .text.__wrap_logf
                0x0000000000000000       0x1a ../../../libs\libnewlib_port.a(sbrk.o)
 .text.__wrap_log10f
                0x0000000000000000       0x1a ../../../libs\libnewlib_port.a(sbrk.o)
 .text.__wrap_atoi
                0x0000000000000000       0x38 ../../../libs\libnewlib_port.a(sbrk.o)
 .text          0x0000000000000000        0x0 ../../../libs\libfreertos_port.a(portasm.o)
 .data          0x0000000000000000        0x0 ../../../libs\libfreertos_port.a(portasm.o)
 .bss           0x0000000000000000        0x0 ../../../libs\libfreertos_port.a(portasm.o)
 .data          0x0000000000000000        0x0 d:/software/yuyin/qiqiyinqiluntai/riscv-nuclei-elf-gcc-9.2.0.0/gcc_fix_raissrc/bin/../lib/gcc/riscv-nuclei-elf/9.2.0/rv32imafc/ilp32f\libgcc.a(save-restore.o)
 .bss           0x0000000000000000        0x0 d:/software/yuyin/qiqiyinqiluntai/riscv-nuclei-elf-gcc-9.2.0.0/gcc_fix_raissrc/bin/../lib/gcc/riscv-nuclei-elf/9.2.0/rv32imafc/ilp32f\libgcc.a(save-restore.o)
 .eh_frame      0x0000000000000000       0xf8 d:/software/yuyin/qiqiyinqiluntai/riscv-nuclei-elf-gcc-9.2.0.0/gcc_fix_raissrc/bin/../lib/gcc/riscv-nuclei-elf/9.2.0/rv32imafc/ilp32f\libgcc.a(save-restore.o)
 .data          0x0000000000000000        0x0 d:/software/yuyin/qiqiyinqiluntai/riscv-nuclei-elf-gcc-9.2.0.0/gcc_fix_raissrc/bin/../lib/gcc/riscv-nuclei-elf/9.2.0/rv32imafc/ilp32f\libgcc.a(adddf3.o)
 .bss           0x0000000000000000        0x0 d:/software/yuyin/qiqiyinqiluntai/riscv-nuclei-elf-gcc-9.2.0.0/gcc_fix_raissrc/bin/../lib/gcc/riscv-nuclei-elf/9.2.0/rv32imafc/ilp32f\libgcc.a(adddf3.o)
 .data          0x0000000000000000        0x0 d:/software/yuyin/qiqiyinqiluntai/riscv-nuclei-elf-gcc-9.2.0.0/gcc_fix_raissrc/bin/../lib/gcc/riscv-nuclei-elf/9.2.0/rv32imafc/ilp32f\libgcc.a(divdf3.o)
 .bss           0x0000000000000000        0x0 d:/software/yuyin/qiqiyinqiluntai/riscv-nuclei-elf-gcc-9.2.0.0/gcc_fix_raissrc/bin/../lib/gcc/riscv-nuclei-elf/9.2.0/rv32imafc/ilp32f\libgcc.a(divdf3.o)
 .data          0x0000000000000000        0x0 d:/software/yuyin/qiqiyinqiluntai/riscv-nuclei-elf-gcc-9.2.0.0/gcc_fix_raissrc/bin/../lib/gcc/riscv-nuclei-elf/9.2.0/rv32imafc/ilp32f\libgcc.a(eqdf2.o)
 .bss           0x0000000000000000        0x0 d:/software/yuyin/qiqiyinqiluntai/riscv-nuclei-elf-gcc-9.2.0.0/gcc_fix_raissrc/bin/../lib/gcc/riscv-nuclei-elf/9.2.0/rv32imafc/ilp32f\libgcc.a(eqdf2.o)
 .data          0x0000000000000000        0x0 d:/software/yuyin/qiqiyinqiluntai/riscv-nuclei-elf-gcc-9.2.0.0/gcc_fix_raissrc/bin/../lib/gcc/riscv-nuclei-elf/9.2.0/rv32imafc/ilp32f\libgcc.a(gedf2.o)
 .bss           0x0000000000000000        0x0 d:/software/yuyin/qiqiyinqiluntai/riscv-nuclei-elf-gcc-9.2.0.0/gcc_fix_raissrc/bin/../lib/gcc/riscv-nuclei-elf/9.2.0/rv32imafc/ilp32f\libgcc.a(gedf2.o)
 .data          0x0000000000000000        0x0 d:/software/yuyin/qiqiyinqiluntai/riscv-nuclei-elf-gcc-9.2.0.0/gcc_fix_raissrc/bin/../lib/gcc/riscv-nuclei-elf/9.2.0/rv32imafc/ilp32f\libgcc.a(ledf2.o)
 .bss           0x0000000000000000        0x0 d:/software/yuyin/qiqiyinqiluntai/riscv-nuclei-elf-gcc-9.2.0.0/gcc_fix_raissrc/bin/../lib/gcc/riscv-nuclei-elf/9.2.0/rv32imafc/ilp32f\libgcc.a(ledf2.o)
 .data          0x0000000000000000        0x0 d:/software/yuyin/qiqiyinqiluntai/riscv-nuclei-elf-gcc-9.2.0.0/gcc_fix_raissrc/bin/../lib/gcc/riscv-nuclei-elf/9.2.0/rv32imafc/ilp32f\libgcc.a(muldf3.o)
 .bss           0x0000000000000000        0x0 d:/software/yuyin/qiqiyinqiluntai/riscv-nuclei-elf-gcc-9.2.0.0/gcc_fix_raissrc/bin/../lib/gcc/riscv-nuclei-elf/9.2.0/rv32imafc/ilp32f\libgcc.a(muldf3.o)
 .data          0x0000000000000000        0x0 d:/software/yuyin/qiqiyinqiluntai/riscv-nuclei-elf-gcc-9.2.0.0/gcc_fix_raissrc/bin/../lib/gcc/riscv-nuclei-elf/9.2.0/rv32imafc/ilp32f\libgcc.a(subdf3.o)
 .bss           0x0000000000000000        0x0 d:/software/yuyin/qiqiyinqiluntai/riscv-nuclei-elf-gcc-9.2.0.0/gcc_fix_raissrc/bin/../lib/gcc/riscv-nuclei-elf/9.2.0/rv32imafc/ilp32f\libgcc.a(subdf3.o)
 .data          0x0000000000000000        0x0 d:/software/yuyin/qiqiyinqiluntai/riscv-nuclei-elf-gcc-9.2.0.0/gcc_fix_raissrc/bin/../lib/gcc/riscv-nuclei-elf/9.2.0/rv32imafc/ilp32f\libgcc.a(unorddf2.o)
 .bss           0x0000000000000000        0x0 d:/software/yuyin/qiqiyinqiluntai/riscv-nuclei-elf-gcc-9.2.0.0/gcc_fix_raissrc/bin/../lib/gcc/riscv-nuclei-elf/9.2.0/rv32imafc/ilp32f\libgcc.a(unorddf2.o)
 .data          0x0000000000000000        0x0 d:/software/yuyin/qiqiyinqiluntai/riscv-nuclei-elf-gcc-9.2.0.0/gcc_fix_raissrc/bin/../lib/gcc/riscv-nuclei-elf/9.2.0/rv32imafc/ilp32f\libgcc.a(fixdfsi.o)
 .bss           0x0000000000000000        0x0 d:/software/yuyin/qiqiyinqiluntai/riscv-nuclei-elf-gcc-9.2.0.0/gcc_fix_raissrc/bin/../lib/gcc/riscv-nuclei-elf/9.2.0/rv32imafc/ilp32f\libgcc.a(fixdfsi.o)
 .data          0x0000000000000000        0x0 d:/software/yuyin/qiqiyinqiluntai/riscv-nuclei-elf-gcc-9.2.0.0/gcc_fix_raissrc/bin/../lib/gcc/riscv-nuclei-elf/9.2.0/rv32imafc/ilp32f\libgcc.a(floatsidf.o)
 .bss           0x0000000000000000        0x0 d:/software/yuyin/qiqiyinqiluntai/riscv-nuclei-elf-gcc-9.2.0.0/gcc_fix_raissrc/bin/../lib/gcc/riscv-nuclei-elf/9.2.0/rv32imafc/ilp32f\libgcc.a(floatsidf.o)
 .data          0x0000000000000000        0x0 d:/software/yuyin/qiqiyinqiluntai/riscv-nuclei-elf-gcc-9.2.0.0/gcc_fix_raissrc/bin/../lib/gcc/riscv-nuclei-elf/9.2.0/rv32imafc/ilp32f\libgcc.a(extendsfdf2.o)
 .bss           0x0000000000000000        0x0 d:/software/yuyin/qiqiyinqiluntai/riscv-nuclei-elf-gcc-9.2.0.0/gcc_fix_raissrc/bin/../lib/gcc/riscv-nuclei-elf/9.2.0/rv32imafc/ilp32f\libgcc.a(extendsfdf2.o)
 .data          0x0000000000000000        0x0 d:/software/yuyin/qiqiyinqiluntai/riscv-nuclei-elf-gcc-9.2.0.0/gcc_fix_raissrc/bin/../lib/gcc/riscv-nuclei-elf/9.2.0/rv32imafc/ilp32f\libgcc.a(truncdfsf2.o)
 .bss           0x0000000000000000        0x0 d:/software/yuyin/qiqiyinqiluntai/riscv-nuclei-elf-gcc-9.2.0.0/gcc_fix_raissrc/bin/../lib/gcc/riscv-nuclei-elf/9.2.0/rv32imafc/ilp32f\libgcc.a(truncdfsf2.o)
 .data          0x0000000000000000        0x0 d:/software/yuyin/qiqiyinqiluntai/riscv-nuclei-elf-gcc-9.2.0.0/gcc_fix_raissrc/bin/../lib/gcc/riscv-nuclei-elf/9.2.0/rv32imafc/ilp32f\libgcc.a(_clzsi2.o)
 .bss           0x0000000000000000        0x0 d:/software/yuyin/qiqiyinqiluntai/riscv-nuclei-elf-gcc-9.2.0.0/gcc_fix_raissrc/bin/../lib/gcc/riscv-nuclei-elf/9.2.0/rv32imafc/ilp32f\libgcc.a(_clzsi2.o)
 .text          0x0000000000000000        0x0 d:/software/yuyin/qiqiyinqiluntai/riscv-nuclei-elf-gcc-9.2.0.0/gcc_fix_raissrc/bin/../lib/gcc/riscv-nuclei-elf/9.2.0/rv32imafc/ilp32f\libgcc.a(_clz.o)
 .data          0x0000000000000000        0x0 d:/software/yuyin/qiqiyinqiluntai/riscv-nuclei-elf-gcc-9.2.0.0/gcc_fix_raissrc/bin/../lib/gcc/riscv-nuclei-elf/9.2.0/rv32imafc/ilp32f\libgcc.a(_clz.o)
 .bss           0x0000000000000000        0x0 d:/software/yuyin/qiqiyinqiluntai/riscv-nuclei-elf-gcc-9.2.0.0/gcc_fix_raissrc/bin/../lib/gcc/riscv-nuclei-elf/9.2.0/rv32imafc/ilp32f\libgcc.a(_clz.o)
 .text          0x0000000000000000        0x0 d:/software/yuyin/qiqiyinqiluntai/riscv-nuclei-elf-gcc-9.2.0.0/gcc_fix_raissrc/bin/../lib/gcc/riscv-nuclei-elf/9.2.0/../../../../riscv-nuclei-elf/lib/rv32imafc/ilp32f\libg_nano.a(lib_a-atexit.o)
 .data          0x0000000000000000        0x0 d:/software/yuyin/qiqiyinqiluntai/riscv-nuclei-elf-gcc-9.2.0.0/gcc_fix_raissrc/bin/../lib/gcc/riscv-nuclei-elf/9.2.0/../../../../riscv-nuclei-elf/lib/rv32imafc/ilp32f\libg_nano.a(lib_a-atexit.o)
 .bss           0x0000000000000000        0x0 d:/software/yuyin/qiqiyinqiluntai/riscv-nuclei-elf-gcc-9.2.0.0/gcc_fix_raissrc/bin/../lib/gcc/riscv-nuclei-elf/9.2.0/../../../../riscv-nuclei-elf/lib/rv32imafc/ilp32f\libg_nano.a(lib_a-atexit.o)
 .text          0x0000000000000000        0x0 d:/software/yuyin/qiqiyinqiluntai/riscv-nuclei-elf-gcc-9.2.0.0/gcc_fix_raissrc/bin/../lib/gcc/riscv-nuclei-elf/9.2.0/../../../../riscv-nuclei-elf/lib/rv32imafc/ilp32f\libg_nano.a(lib_a-exit.o)
 .data          0x0000000000000000        0x0 d:/software/yuyin/qiqiyinqiluntai/riscv-nuclei-elf-gcc-9.2.0.0/gcc_fix_raissrc/bin/../lib/gcc/riscv-nuclei-elf/9.2.0/../../../../riscv-nuclei-elf/lib/rv32imafc/ilp32f\libg_nano.a(lib_a-exit.o)
 .bss           0x0000000000000000        0x0 d:/software/yuyin/qiqiyinqiluntai/riscv-nuclei-elf-gcc-9.2.0.0/gcc_fix_raissrc/bin/../lib/gcc/riscv-nuclei-elf/9.2.0/../../../../riscv-nuclei-elf/lib/rv32imafc/ilp32f\libg_nano.a(lib_a-exit.o)
 .text          0x0000000000000000        0x0 d:/software/yuyin/qiqiyinqiluntai/riscv-nuclei-elf-gcc-9.2.0.0/gcc_fix_raissrc/bin/../lib/gcc/riscv-nuclei-elf/9.2.0/../../../../riscv-nuclei-elf/lib/rv32imafc/ilp32f\libg_nano.a(lib_a-fini.o)
 .data          0x0000000000000000        0x0 d:/software/yuyin/qiqiyinqiluntai/riscv-nuclei-elf-gcc-9.2.0.0/gcc_fix_raissrc/bin/../lib/gcc/riscv-nuclei-elf/9.2.0/../../../../riscv-nuclei-elf/lib/rv32imafc/ilp32f\libg_nano.a(lib_a-fini.o)
 .bss           0x0000000000000000        0x0 d:/software/yuyin/qiqiyinqiluntai/riscv-nuclei-elf-gcc-9.2.0.0/gcc_fix_raissrc/bin/../lib/gcc/riscv-nuclei-elf/9.2.0/../../../../riscv-nuclei-elf/lib/rv32imafc/ilp32f\libg_nano.a(lib_a-fini.o)
 .text          0x0000000000000000        0x0 d:/software/yuyin/qiqiyinqiluntai/riscv-nuclei-elf-gcc-9.2.0.0/gcc_fix_raissrc/bin/../lib/gcc/riscv-nuclei-elf/9.2.0/../../../../riscv-nuclei-elf/lib/rv32imafc/ilp32f\libg_nano.a(lib_a-impure.o)
 .data          0x0000000000000000        0x0 d:/software/yuyin/qiqiyinqiluntai/riscv-nuclei-elf-gcc-9.2.0.0/gcc_fix_raissrc/bin/../lib/gcc/riscv-nuclei-elf/9.2.0/../../../../riscv-nuclei-elf/lib/rv32imafc/ilp32f\libg_nano.a(lib_a-impure.o)
 .bss           0x0000000000000000        0x0 d:/software/yuyin/qiqiyinqiluntai/riscv-nuclei-elf-gcc-9.2.0.0/gcc_fix_raissrc/bin/../lib/gcc/riscv-nuclei-elf/9.2.0/../../../../riscv-nuclei-elf/lib/rv32imafc/ilp32f\libg_nano.a(lib_a-impure.o)
 .text          0x0000000000000000        0x0 d:/software/yuyin/qiqiyinqiluntai/riscv-nuclei-elf-gcc-9.2.0.0/gcc_fix_raissrc/bin/../lib/gcc/riscv-nuclei-elf/9.2.0/../../../../riscv-nuclei-elf/lib/rv32imafc/ilp32f\libg_nano.a(lib_a-init.o)
 .data          0x0000000000000000        0x0 d:/software/yuyin/qiqiyinqiluntai/riscv-nuclei-elf-gcc-9.2.0.0/gcc_fix_raissrc/bin/../lib/gcc/riscv-nuclei-elf/9.2.0/../../../../riscv-nuclei-elf/lib/rv32imafc/ilp32f\libg_nano.a(lib_a-init.o)
 .bss           0x0000000000000000        0x0 d:/software/yuyin/qiqiyinqiluntai/riscv-nuclei-elf-gcc-9.2.0.0/gcc_fix_raissrc/bin/../lib/gcc/riscv-nuclei-elf/9.2.0/../../../../riscv-nuclei-elf/lib/rv32imafc/ilp32f\libg_nano.a(lib_a-init.o)
 .text          0x0000000000000000        0x0 d:/software/yuyin/qiqiyinqiluntai/riscv-nuclei-elf-gcc-9.2.0.0/gcc_fix_raissrc/bin/../lib/gcc/riscv-nuclei-elf/9.2.0/../../../../riscv-nuclei-elf/lib/rv32imafc/ilp32f\libg_nano.a(lib_a-rand.o)
 .data          0x0000000000000000        0x0 d:/software/yuyin/qiqiyinqiluntai/riscv-nuclei-elf-gcc-9.2.0.0/gcc_fix_raissrc/bin/../lib/gcc/riscv-nuclei-elf/9.2.0/../../../../riscv-nuclei-elf/lib/rv32imafc/ilp32f\libg_nano.a(lib_a-rand.o)
 .bss           0x0000000000000000        0x0 d:/software/yuyin/qiqiyinqiluntai/riscv-nuclei-elf-gcc-9.2.0.0/gcc_fix_raissrc/bin/../lib/gcc/riscv-nuclei-elf/9.2.0/../../../../riscv-nuclei-elf/lib/rv32imafc/ilp32f\libg_nano.a(lib_a-rand.o)
 .text.srand    0x0000000000000000       0x60 d:/software/yuyin/qiqiyinqiluntai/riscv-nuclei-elf-gcc-9.2.0.0/gcc_fix_raissrc/bin/../lib/gcc/riscv-nuclei-elf/9.2.0/../../../../riscv-nuclei-elf/lib/rv32imafc/ilp32f\libg_nano.a(lib_a-rand.o)
 .text.rand     0x0000000000000000       0x8e d:/software/yuyin/qiqiyinqiluntai/riscv-nuclei-elf-gcc-9.2.0.0/gcc_fix_raissrc/bin/../lib/gcc/riscv-nuclei-elf/9.2.0/../../../../riscv-nuclei-elf/lib/rv32imafc/ilp32f\libg_nano.a(lib_a-rand.o)
 .comment       0x0000000000000000       0x12 d:/software/yuyin/qiqiyinqiluntai/riscv-nuclei-elf-gcc-9.2.0.0/gcc_fix_raissrc/bin/../lib/gcc/riscv-nuclei-elf/9.2.0/../../../../riscv-nuclei-elf/lib/rv32imafc/ilp32f\libg_nano.a(lib_a-rand.o)
 .riscv.attributes
                0x0000000000000000       0x30 d:/software/yuyin/qiqiyinqiluntai/riscv-nuclei-elf-gcc-9.2.0.0/gcc_fix_raissrc/bin/../lib/gcc/riscv-nuclei-elf/9.2.0/../../../../riscv-nuclei-elf/lib/rv32imafc/ilp32f\libg_nano.a(lib_a-rand.o)
 .text          0x0000000000000000        0x0 d:/software/yuyin/qiqiyinqiluntai/riscv-nuclei-elf-gcc-9.2.0.0/gcc_fix_raissrc/bin/../lib/gcc/riscv-nuclei-elf/9.2.0/../../../../riscv-nuclei-elf/lib/rv32imafc/ilp32f\libg_nano.a(lib_a-__atexit.o)
 .data          0x0000000000000000        0x0 d:/software/yuyin/qiqiyinqiluntai/riscv-nuclei-elf-gcc-9.2.0.0/gcc_fix_raissrc/bin/../lib/gcc/riscv-nuclei-elf/9.2.0/../../../../riscv-nuclei-elf/lib/rv32imafc/ilp32f\libg_nano.a(lib_a-__atexit.o)
 .bss           0x0000000000000000        0x0 d:/software/yuyin/qiqiyinqiluntai/riscv-nuclei-elf-gcc-9.2.0.0/gcc_fix_raissrc/bin/../lib/gcc/riscv-nuclei-elf/9.2.0/../../../../riscv-nuclei-elf/lib/rv32imafc/ilp32f\libg_nano.a(lib_a-__atexit.o)
 .sdata.__atexit_dummy
                0x0000000000000000        0x4 d:/software/yuyin/qiqiyinqiluntai/riscv-nuclei-elf-gcc-9.2.0.0/gcc_fix_raissrc/bin/../lib/gcc/riscv-nuclei-elf/9.2.0/../../../../riscv-nuclei-elf/lib/rv32imafc/ilp32f\libg_nano.a(lib_a-__atexit.o)
 .text          0x0000000000000000        0x0 d:/software/yuyin/qiqiyinqiluntai/riscv-nuclei-elf-gcc-9.2.0.0/gcc_fix_raissrc/bin/../lib/gcc/riscv-nuclei-elf/9.2.0/../../../../riscv-nuclei-elf/lib/rv32imafc/ilp32f\libg_nano.a(lib_a-__call_atexit.o)
 .data          0x0000000000000000        0x0 d:/software/yuyin/qiqiyinqiluntai/riscv-nuclei-elf-gcc-9.2.0.0/gcc_fix_raissrc/bin/../lib/gcc/riscv-nuclei-elf/9.2.0/../../../../riscv-nuclei-elf/lib/rv32imafc/ilp32f\libg_nano.a(lib_a-__call_atexit.o)
 .bss           0x0000000000000000        0x0 d:/software/yuyin/qiqiyinqiluntai/riscv-nuclei-elf-gcc-9.2.0.0/gcc_fix_raissrc/bin/../lib/gcc/riscv-nuclei-elf/9.2.0/../../../../riscv-nuclei-elf/lib/rv32imafc/ilp32f\libg_nano.a(lib_a-__call_atexit.o)
 .text          0x0000000000000000        0x0 d:/software/yuyin/qiqiyinqiluntai/riscv-nuclei-elf-gcc-9.2.0.0/gcc_fix_raissrc/bin/../lib/gcc/riscv-nuclei-elf/9.2.0/../../../../riscv-nuclei-elf/lib/rv32imafc/ilp32f\libg_nano.a(lib_a-calloc.o)
 .data          0x0000000000000000        0x0 d:/software/yuyin/qiqiyinqiluntai/riscv-nuclei-elf-gcc-9.2.0.0/gcc_fix_raissrc/bin/../lib/gcc/riscv-nuclei-elf/9.2.0/../../../../riscv-nuclei-elf/lib/rv32imafc/ilp32f\libg_nano.a(lib_a-calloc.o)
 .bss           0x0000000000000000        0x0 d:/software/yuyin/qiqiyinqiluntai/riscv-nuclei-elf-gcc-9.2.0.0/gcc_fix_raissrc/bin/../lib/gcc/riscv-nuclei-elf/9.2.0/../../../../riscv-nuclei-elf/lib/rv32imafc/ilp32f\libg_nano.a(lib_a-calloc.o)
 .text          0x0000000000000000        0x0 d:/software/yuyin/qiqiyinqiluntai/riscv-nuclei-elf-gcc-9.2.0.0/gcc_fix_raissrc/bin/../lib/gcc/riscv-nuclei-elf/9.2.0/../../../../riscv-nuclei-elf/lib/rv32imafc/ilp32f\libg_nano.a(lib_a-fprintf.o)
 .data          0x0000000000000000        0x0 d:/software/yuyin/qiqiyinqiluntai/riscv-nuclei-elf-gcc-9.2.0.0/gcc_fix_raissrc/bin/../lib/gcc/riscv-nuclei-elf/9.2.0/../../../../riscv-nuclei-elf/lib/rv32imafc/ilp32f\libg_nano.a(lib_a-fprintf.o)
 .bss           0x0000000000000000        0x0 d:/software/yuyin/qiqiyinqiluntai/riscv-nuclei-elf-gcc-9.2.0.0/gcc_fix_raissrc/bin/../lib/gcc/riscv-nuclei-elf/9.2.0/../../../../riscv-nuclei-elf/lib/rv32imafc/ilp32f\libg_nano.a(lib_a-fprintf.o)
 .text._fprintf_r
                0x0000000000000000       0x20 d:/software/yuyin/qiqiyinqiluntai/riscv-nuclei-elf-gcc-9.2.0.0/gcc_fix_raissrc/bin/../lib/gcc/riscv-nuclei-elf/9.2.0/../../../../riscv-nuclei-elf/lib/rv32imafc/ilp32f\libg_nano.a(lib_a-fprintf.o)
 .text          0x0000000000000000        0x0 d:/software/yuyin/qiqiyinqiluntai/riscv-nuclei-elf-gcc-9.2.0.0/gcc_fix_raissrc/bin/../lib/gcc/riscv-nuclei-elf/9.2.0/../../../../riscv-nuclei-elf/lib/rv32imafc/ilp32f\libg_nano.a(lib_a-nano-callocr.o)
 .data          0x0000000000000000        0x0 d:/software/yuyin/qiqiyinqiluntai/riscv-nuclei-elf-gcc-9.2.0.0/gcc_fix_raissrc/bin/../lib/gcc/riscv-nuclei-elf/9.2.0/../../../../riscv-nuclei-elf/lib/rv32imafc/ilp32f\libg_nano.a(lib_a-nano-callocr.o)
 .bss           0x0000000000000000        0x0 d:/software/yuyin/qiqiyinqiluntai/riscv-nuclei-elf-gcc-9.2.0.0/gcc_fix_raissrc/bin/../lib/gcc/riscv-nuclei-elf/9.2.0/../../../../riscv-nuclei-elf/lib/rv32imafc/ilp32f\libg_nano.a(lib_a-nano-callocr.o)
 .text          0x0000000000000000        0x0 d:/software/yuyin/qiqiyinqiluntai/riscv-nuclei-elf-gcc-9.2.0.0/gcc_fix_raissrc/bin/../lib/gcc/riscv-nuclei-elf/9.2.0/../../../../riscv-nuclei-elf/lib/rv32imafc/ilp32f\libg_nano.a(lib_a-nano-mallocr.o)
 .data          0x0000000000000000        0x0 d:/software/yuyin/qiqiyinqiluntai/riscv-nuclei-elf-gcc-9.2.0.0/gcc_fix_raissrc/bin/../lib/gcc/riscv-nuclei-elf/9.2.0/../../../../riscv-nuclei-elf/lib/rv32imafc/ilp32f\libg_nano.a(lib_a-nano-mallocr.o)
 .bss           0x0000000000000000        0x0 d:/software/yuyin/qiqiyinqiluntai/riscv-nuclei-elf-gcc-9.2.0.0/gcc_fix_raissrc/bin/../lib/gcc/riscv-nuclei-elf/9.2.0/../../../../riscv-nuclei-elf/lib/rv32imafc/ilp32f\libg_nano.a(lib_a-nano-mallocr.o)
 .text          0x0000000000000000        0x0 d:/software/yuyin/qiqiyinqiluntai/riscv-nuclei-elf-gcc-9.2.0.0/gcc_fix_raissrc/bin/../lib/gcc/riscv-nuclei-elf/9.2.0/../../../../riscv-nuclei-elf/lib/rv32imafc/ilp32f\libg_nano.a(lib_a-nano-vfprintf.o)
 .data          0x0000000000000000        0x0 d:/software/yuyin/qiqiyinqiluntai/riscv-nuclei-elf-gcc-9.2.0.0/gcc_fix_raissrc/bin/../lib/gcc/riscv-nuclei-elf/9.2.0/../../../../riscv-nuclei-elf/lib/rv32imafc/ilp32f\libg_nano.a(lib_a-nano-vfprintf.o)
 .bss           0x0000000000000000        0x0 d:/software/yuyin/qiqiyinqiluntai/riscv-nuclei-elf-gcc-9.2.0.0/gcc_fix_raissrc/bin/../lib/gcc/riscv-nuclei-elf/9.2.0/../../../../riscv-nuclei-elf/lib/rv32imafc/ilp32f\libg_nano.a(lib_a-nano-vfprintf.o)
 .text.__sprint_r
                0x0000000000000000       0x2c d:/software/yuyin/qiqiyinqiluntai/riscv-nuclei-elf-gcc-9.2.0.0/gcc_fix_raissrc/bin/../lib/gcc/riscv-nuclei-elf/9.2.0/../../../../riscv-nuclei-elf/lib/rv32imafc/ilp32f\libg_nano.a(lib_a-nano-vfprintf.o)
 .text.vfprintf
                0x0000000000000000       0x16 d:/software/yuyin/qiqiyinqiluntai/riscv-nuclei-elf-gcc-9.2.0.0/gcc_fix_raissrc/bin/../lib/gcc/riscv-nuclei-elf/9.2.0/../../../../riscv-nuclei-elf/lib/rv32imafc/ilp32f\libg_nano.a(lib_a-nano-vfprintf.o)
 .text          0x0000000000000000        0x0 d:/software/yuyin/qiqiyinqiluntai/riscv-nuclei-elf-gcc-9.2.0.0/gcc_fix_raissrc/bin/../lib/gcc/riscv-nuclei-elf/9.2.0/../../../../riscv-nuclei-elf/lib/rv32imafc/ilp32f\libg_nano.a(lib_a-realloc.o)
 .data          0x0000000000000000        0x0 d:/software/yuyin/qiqiyinqiluntai/riscv-nuclei-elf-gcc-9.2.0.0/gcc_fix_raissrc/bin/../lib/gcc/riscv-nuclei-elf/9.2.0/../../../../riscv-nuclei-elf/lib/rv32imafc/ilp32f\libg_nano.a(lib_a-realloc.o)
 .bss           0x0000000000000000        0x0 d:/software/yuyin/qiqiyinqiluntai/riscv-nuclei-elf-gcc-9.2.0.0/gcc_fix_raissrc/bin/../lib/gcc/riscv-nuclei-elf/9.2.0/../../../../riscv-nuclei-elf/lib/rv32imafc/ilp32f\libg_nano.a(lib_a-realloc.o)
 .text          0x0000000000000000        0x0 d:/software/yuyin/qiqiyinqiluntai/riscv-nuclei-elf-gcc-9.2.0.0/gcc_fix_raissrc/bin/../lib/gcc/riscv-nuclei-elf/9.2.0/../../../../riscv-nuclei-elf/lib/rv32imafc/ilp32f\libg_nano.a(lib_a-sbrkr.o)
 .data          0x0000000000000000        0x0 d:/software/yuyin/qiqiyinqiluntai/riscv-nuclei-elf-gcc-9.2.0.0/gcc_fix_raissrc/bin/../lib/gcc/riscv-nuclei-elf/9.2.0/../../../../riscv-nuclei-elf/lib/rv32imafc/ilp32f\libg_nano.a(lib_a-sbrkr.o)
 .bss           0x0000000000000000        0x0 d:/software/yuyin/qiqiyinqiluntai/riscv-nuclei-elf-gcc-9.2.0.0/gcc_fix_raissrc/bin/../lib/gcc/riscv-nuclei-elf/9.2.0/../../../../riscv-nuclei-elf/lib/rv32imafc/ilp32f\libg_nano.a(lib_a-sbrkr.o)
 .text          0x0000000000000000        0x0 d:/software/yuyin/qiqiyinqiluntai/riscv-nuclei-elf-gcc-9.2.0.0/gcc_fix_raissrc/bin/../lib/gcc/riscv-nuclei-elf/9.2.0/../../../../riscv-nuclei-elf/lib/rv32imafc/ilp32f\libg_nano.a(lib_a-wbuf.o)
 .data          0x0000000000000000        0x0 d:/software/yuyin/qiqiyinqiluntai/riscv-nuclei-elf-gcc-9.2.0.0/gcc_fix_raissrc/bin/../lib/gcc/riscv-nuclei-elf/9.2.0/../../../../riscv-nuclei-elf/lib/rv32imafc/ilp32f\libg_nano.a(lib_a-wbuf.o)
 .bss           0x0000000000000000        0x0 d:/software/yuyin/qiqiyinqiluntai/riscv-nuclei-elf-gcc-9.2.0.0/gcc_fix_raissrc/bin/../lib/gcc/riscv-nuclei-elf/9.2.0/../../../../riscv-nuclei-elf/lib/rv32imafc/ilp32f\libg_nano.a(lib_a-wbuf.o)
 .text.__swbuf  0x0000000000000000       0x14 d:/software/yuyin/qiqiyinqiluntai/riscv-nuclei-elf-gcc-9.2.0.0/gcc_fix_raissrc/bin/../lib/gcc/riscv-nuclei-elf/9.2.0/../../../../riscv-nuclei-elf/lib/rv32imafc/ilp32f\libg_nano.a(lib_a-wbuf.o)
 .text          0x0000000000000000        0x0 d:/software/yuyin/qiqiyinqiluntai/riscv-nuclei-elf-gcc-9.2.0.0/gcc_fix_raissrc/bin/../lib/gcc/riscv-nuclei-elf/9.2.0/../../../../riscv-nuclei-elf/lib/rv32imafc/ilp32f\libg_nano.a(lib_a-wsetup.o)
 .data          0x0000000000000000        0x0 d:/software/yuyin/qiqiyinqiluntai/riscv-nuclei-elf-gcc-9.2.0.0/gcc_fix_raissrc/bin/../lib/gcc/riscv-nuclei-elf/9.2.0/../../../../riscv-nuclei-elf/lib/rv32imafc/ilp32f\libg_nano.a(lib_a-wsetup.o)
 .bss           0x0000000000000000        0x0 d:/software/yuyin/qiqiyinqiluntai/riscv-nuclei-elf-gcc-9.2.0.0/gcc_fix_raissrc/bin/../lib/gcc/riscv-nuclei-elf/9.2.0/../../../../riscv-nuclei-elf/lib/rv32imafc/ilp32f\libg_nano.a(lib_a-wsetup.o)
 .text          0x0000000000000000        0x0 d:/software/yuyin/qiqiyinqiluntai/riscv-nuclei-elf-gcc-9.2.0.0/gcc_fix_raissrc/bin/../lib/gcc/riscv-nuclei-elf/9.2.0/../../../../riscv-nuclei-elf/lib/rv32imafc/ilp32f\libg_nano.a(lib_a-fflush.o)
 .data          0x0000000000000000        0x0 d:/software/yuyin/qiqiyinqiluntai/riscv-nuclei-elf-gcc-9.2.0.0/gcc_fix_raissrc/bin/../lib/gcc/riscv-nuclei-elf/9.2.0/../../../../riscv-nuclei-elf/lib/rv32imafc/ilp32f\libg_nano.a(lib_a-fflush.o)
 .bss           0x0000000000000000        0x0 d:/software/yuyin/qiqiyinqiluntai/riscv-nuclei-elf-gcc-9.2.0.0/gcc_fix_raissrc/bin/../lib/gcc/riscv-nuclei-elf/9.2.0/../../../../riscv-nuclei-elf/lib/rv32imafc/ilp32f\libg_nano.a(lib_a-fflush.o)
 .text.fflush   0x0000000000000000       0x2c d:/software/yuyin/qiqiyinqiluntai/riscv-nuclei-elf-gcc-9.2.0.0/gcc_fix_raissrc/bin/../lib/gcc/riscv-nuclei-elf/9.2.0/../../../../riscv-nuclei-elf/lib/rv32imafc/ilp32f\libg_nano.a(lib_a-fflush.o)
 .text          0x0000000000000000        0x0 d:/software/yuyin/qiqiyinqiluntai/riscv-nuclei-elf-gcc-9.2.0.0/gcc_fix_raissrc/bin/../lib/gcc/riscv-nuclei-elf/9.2.0/../../../../riscv-nuclei-elf/lib/rv32imafc/ilp32f\libg_nano.a(lib_a-findfp.o)
 .data          0x0000000000000000        0x0 d:/software/yuyin/qiqiyinqiluntai/riscv-nuclei-elf-gcc-9.2.0.0/gcc_fix_raissrc/bin/../lib/gcc/riscv-nuclei-elf/9.2.0/../../../../riscv-nuclei-elf/lib/rv32imafc/ilp32f\libg_nano.a(lib_a-findfp.o)
 .bss           0x0000000000000000        0x0 d:/software/yuyin/qiqiyinqiluntai/riscv-nuclei-elf-gcc-9.2.0.0/gcc_fix_raissrc/bin/../lib/gcc/riscv-nuclei-elf/9.2.0/../../../../riscv-nuclei-elf/lib/rv32imafc/ilp32f\libg_nano.a(lib_a-findfp.o)
 .text.__fp_lock
                0x0000000000000000        0x4 d:/software/yuyin/qiqiyinqiluntai/riscv-nuclei-elf-gcc-9.2.0.0/gcc_fix_raissrc/bin/../lib/gcc/riscv-nuclei-elf/9.2.0/../../../../riscv-nuclei-elf/lib/rv32imafc/ilp32f\libg_nano.a(lib_a-findfp.o)
 .text.__fp_unlock
                0x0000000000000000        0x4 d:/software/yuyin/qiqiyinqiluntai/riscv-nuclei-elf-gcc-9.2.0.0/gcc_fix_raissrc/bin/../lib/gcc/riscv-nuclei-elf/9.2.0/../../../../riscv-nuclei-elf/lib/rv32imafc/ilp32f\libg_nano.a(lib_a-findfp.o)
 .text._cleanup
                0x0000000000000000       0x10 d:/software/yuyin/qiqiyinqiluntai/riscv-nuclei-elf-gcc-9.2.0.0/gcc_fix_raissrc/bin/../lib/gcc/riscv-nuclei-elf/9.2.0/../../../../riscv-nuclei-elf/lib/rv32imafc/ilp32f\libg_nano.a(lib_a-findfp.o)
 .text.__sfp_lock_acquire
                0x0000000000000000        0x2 d:/software/yuyin/qiqiyinqiluntai/riscv-nuclei-elf-gcc-9.2.0.0/gcc_fix_raissrc/bin/../lib/gcc/riscv-nuclei-elf/9.2.0/../../../../riscv-nuclei-elf/lib/rv32imafc/ilp32f\libg_nano.a(lib_a-findfp.o)
 .text.__sfp_lock_release
                0x0000000000000000        0x2 d:/software/yuyin/qiqiyinqiluntai/riscv-nuclei-elf-gcc-9.2.0.0/gcc_fix_raissrc/bin/../lib/gcc/riscv-nuclei-elf/9.2.0/../../../../riscv-nuclei-elf/lib/rv32imafc/ilp32f\libg_nano.a(lib_a-findfp.o)
 .text.__sinit_lock_acquire
                0x0000000000000000        0x2 d:/software/yuyin/qiqiyinqiluntai/riscv-nuclei-elf-gcc-9.2.0.0/gcc_fix_raissrc/bin/../lib/gcc/riscv-nuclei-elf/9.2.0/../../../../riscv-nuclei-elf/lib/rv32imafc/ilp32f\libg_nano.a(lib_a-findfp.o)
 .text.__sinit_lock_release
                0x0000000000000000        0x2 d:/software/yuyin/qiqiyinqiluntai/riscv-nuclei-elf-gcc-9.2.0.0/gcc_fix_raissrc/bin/../lib/gcc/riscv-nuclei-elf/9.2.0/../../../../riscv-nuclei-elf/lib/rv32imafc/ilp32f\libg_nano.a(lib_a-findfp.o)
 .text.__fp_lock_all
                0x0000000000000000       0x18 d:/software/yuyin/qiqiyinqiluntai/riscv-nuclei-elf-gcc-9.2.0.0/gcc_fix_raissrc/bin/../lib/gcc/riscv-nuclei-elf/9.2.0/../../../../riscv-nuclei-elf/lib/rv32imafc/ilp32f\libg_nano.a(lib_a-findfp.o)
 .text.__fp_unlock_all
                0x0000000000000000       0x18 d:/software/yuyin/qiqiyinqiluntai/riscv-nuclei-elf-gcc-9.2.0.0/gcc_fix_raissrc/bin/../lib/gcc/riscv-nuclei-elf/9.2.0/../../../../riscv-nuclei-elf/lib/rv32imafc/ilp32f\libg_nano.a(lib_a-findfp.o)
 .text          0x0000000000000000        0x0 d:/software/yuyin/qiqiyinqiluntai/riscv-nuclei-elf-gcc-9.2.0.0/gcc_fix_raissrc/bin/../lib/gcc/riscv-nuclei-elf/9.2.0/../../../../riscv-nuclei-elf/lib/rv32imafc/ilp32f\libg_nano.a(lib_a-fvwrite.o)
 .data          0x0000000000000000        0x0 d:/software/yuyin/qiqiyinqiluntai/riscv-nuclei-elf-gcc-9.2.0.0/gcc_fix_raissrc/bin/../lib/gcc/riscv-nuclei-elf/9.2.0/../../../../riscv-nuclei-elf/lib/rv32imafc/ilp32f\libg_nano.a(lib_a-fvwrite.o)
 .bss           0x0000000000000000        0x0 d:/software/yuyin/qiqiyinqiluntai/riscv-nuclei-elf-gcc-9.2.0.0/gcc_fix_raissrc/bin/../lib/gcc/riscv-nuclei-elf/9.2.0/../../../../riscv-nuclei-elf/lib/rv32imafc/ilp32f\libg_nano.a(lib_a-fvwrite.o)
 .text.__sfvwrite_r
                0x0000000000000000      0x316 d:/software/yuyin/qiqiyinqiluntai/riscv-nuclei-elf-gcc-9.2.0.0/gcc_fix_raissrc/bin/../lib/gcc/riscv-nuclei-elf/9.2.0/../../../../riscv-nuclei-elf/lib/rv32imafc/ilp32f\libg_nano.a(lib_a-fvwrite.o)
 .comment       0x0000000000000000       0x12 d:/software/yuyin/qiqiyinqiluntai/riscv-nuclei-elf-gcc-9.2.0.0/gcc_fix_raissrc/bin/../lib/gcc/riscv-nuclei-elf/9.2.0/../../../../riscv-nuclei-elf/lib/rv32imafc/ilp32f\libg_nano.a(lib_a-fvwrite.o)
 .riscv.attributes
                0x0000000000000000       0x30 d:/software/yuyin/qiqiyinqiluntai/riscv-nuclei-elf-gcc-9.2.0.0/gcc_fix_raissrc/bin/../lib/gcc/riscv-nuclei-elf/9.2.0/../../../../riscv-nuclei-elf/lib/rv32imafc/ilp32f\libg_nano.a(lib_a-fvwrite.o)
 .text          0x0000000000000000        0x0 d:/software/yuyin/qiqiyinqiluntai/riscv-nuclei-elf-gcc-9.2.0.0/gcc_fix_raissrc/bin/../lib/gcc/riscv-nuclei-elf/9.2.0/../../../../riscv-nuclei-elf/lib/rv32imafc/ilp32f\libg_nano.a(lib_a-fwalk.o)
 .data          0x0000000000000000        0x0 d:/software/yuyin/qiqiyinqiluntai/riscv-nuclei-elf-gcc-9.2.0.0/gcc_fix_raissrc/bin/../lib/gcc/riscv-nuclei-elf/9.2.0/../../../../riscv-nuclei-elf/lib/rv32imafc/ilp32f\libg_nano.a(lib_a-fwalk.o)
 .bss           0x0000000000000000        0x0 d:/software/yuyin/qiqiyinqiluntai/riscv-nuclei-elf-gcc-9.2.0.0/gcc_fix_raissrc/bin/../lib/gcc/riscv-nuclei-elf/9.2.0/../../../../riscv-nuclei-elf/lib/rv32imafc/ilp32f\libg_nano.a(lib_a-fwalk.o)
 .text._fwalk   0x0000000000000000       0x62 d:/software/yuyin/qiqiyinqiluntai/riscv-nuclei-elf-gcc-9.2.0.0/gcc_fix_raissrc/bin/../lib/gcc/riscv-nuclei-elf/9.2.0/../../../../riscv-nuclei-elf/lib/rv32imafc/ilp32f\libg_nano.a(lib_a-fwalk.o)
 .text          0x0000000000000000        0x0 d:/software/yuyin/qiqiyinqiluntai/riscv-nuclei-elf-gcc-9.2.0.0/gcc_fix_raissrc/bin/../lib/gcc/riscv-nuclei-elf/9.2.0/../../../../riscv-nuclei-elf/lib/rv32imafc/ilp32f\libg_nano.a(lib_a-makebuf.o)
 .data          0x0000000000000000        0x0 d:/software/yuyin/qiqiyinqiluntai/riscv-nuclei-elf-gcc-9.2.0.0/gcc_fix_raissrc/bin/../lib/gcc/riscv-nuclei-elf/9.2.0/../../../../riscv-nuclei-elf/lib/rv32imafc/ilp32f\libg_nano.a(lib_a-makebuf.o)
 .bss           0x0000000000000000        0x0 d:/software/yuyin/qiqiyinqiluntai/riscv-nuclei-elf-gcc-9.2.0.0/gcc_fix_raissrc/bin/../lib/gcc/riscv-nuclei-elf/9.2.0/../../../../riscv-nuclei-elf/lib/rv32imafc/ilp32f\libg_nano.a(lib_a-makebuf.o)
 .text          0x0000000000000000        0x0 d:/software/yuyin/qiqiyinqiluntai/riscv-nuclei-elf-gcc-9.2.0.0/gcc_fix_raissrc/bin/../lib/gcc/riscv-nuclei-elf/9.2.0/../../../../riscv-nuclei-elf/lib/rv32imafc/ilp32f\libg_nano.a(lib_a-memchr.o)
 .data          0x0000000000000000        0x0 d:/software/yuyin/qiqiyinqiluntai/riscv-nuclei-elf-gcc-9.2.0.0/gcc_fix_raissrc/bin/../lib/gcc/riscv-nuclei-elf/9.2.0/../../../../riscv-nuclei-elf/lib/rv32imafc/ilp32f\libg_nano.a(lib_a-memchr.o)
 .bss           0x0000000000000000        0x0 d:/software/yuyin/qiqiyinqiluntai/riscv-nuclei-elf-gcc-9.2.0.0/gcc_fix_raissrc/bin/../lib/gcc/riscv-nuclei-elf/9.2.0/../../../../riscv-nuclei-elf/lib/rv32imafc/ilp32f\libg_nano.a(lib_a-memchr.o)
 .text          0x0000000000000000        0x0 d:/software/yuyin/qiqiyinqiluntai/riscv-nuclei-elf-gcc-9.2.0.0/gcc_fix_raissrc/bin/../lib/gcc/riscv-nuclei-elf/9.2.0/../../../../riscv-nuclei-elf/lib/rv32imafc/ilp32f\libg_nano.a(lib_a-nano-freer.o)
 .data          0x0000000000000000        0x0 d:/software/yuyin/qiqiyinqiluntai/riscv-nuclei-elf-gcc-9.2.0.0/gcc_fix_raissrc/bin/../lib/gcc/riscv-nuclei-elf/9.2.0/../../../../riscv-nuclei-elf/lib/rv32imafc/ilp32f\libg_nano.a(lib_a-nano-freer.o)
 .bss           0x0000000000000000        0x0 d:/software/yuyin/qiqiyinqiluntai/riscv-nuclei-elf-gcc-9.2.0.0/gcc_fix_raissrc/bin/../lib/gcc/riscv-nuclei-elf/9.2.0/../../../../riscv-nuclei-elf/lib/rv32imafc/ilp32f\libg_nano.a(lib_a-nano-freer.o)
 .text          0x0000000000000000        0x0 d:/software/yuyin/qiqiyinqiluntai/riscv-nuclei-elf-gcc-9.2.0.0/gcc_fix_raissrc/bin/../lib/gcc/riscv-nuclei-elf/9.2.0/../../../../riscv-nuclei-elf/lib/rv32imafc/ilp32f\libg_nano.a(lib_a-nano-reallocr.o)
 .data          0x0000000000000000        0x0 d:/software/yuyin/qiqiyinqiluntai/riscv-nuclei-elf-gcc-9.2.0.0/gcc_fix_raissrc/bin/../lib/gcc/riscv-nuclei-elf/9.2.0/../../../../riscv-nuclei-elf/lib/rv32imafc/ilp32f\libg_nano.a(lib_a-nano-reallocr.o)
 .bss           0x0000000000000000        0x0 d:/software/yuyin/qiqiyinqiluntai/riscv-nuclei-elf-gcc-9.2.0.0/gcc_fix_raissrc/bin/../lib/gcc/riscv-nuclei-elf/9.2.0/../../../../riscv-nuclei-elf/lib/rv32imafc/ilp32f\libg_nano.a(lib_a-nano-reallocr.o)
 .text          0x0000000000000000        0x0 d:/software/yuyin/qiqiyinqiluntai/riscv-nuclei-elf-gcc-9.2.0.0/gcc_fix_raissrc/bin/../lib/gcc/riscv-nuclei-elf/9.2.0/../../../../riscv-nuclei-elf/lib/rv32imafc/ilp32f\libg_nano.a(lib_a-nano-vfprintf_i.o)
 .data          0x0000000000000000        0x0 d:/software/yuyin/qiqiyinqiluntai/riscv-nuclei-elf-gcc-9.2.0.0/gcc_fix_raissrc/bin/../lib/gcc/riscv-nuclei-elf/9.2.0/../../../../riscv-nuclei-elf/lib/rv32imafc/ilp32f\libg_nano.a(lib_a-nano-vfprintf_i.o)
 .bss           0x0000000000000000        0x0 d:/software/yuyin/qiqiyinqiluntai/riscv-nuclei-elf-gcc-9.2.0.0/gcc_fix_raissrc/bin/../lib/gcc/riscv-nuclei-elf/9.2.0/../../../../riscv-nuclei-elf/lib/rv32imafc/ilp32f\libg_nano.a(lib_a-nano-vfprintf_i.o)
 .text          0x0000000000000000        0x0 d:/software/yuyin/qiqiyinqiluntai/riscv-nuclei-elf-gcc-9.2.0.0/gcc_fix_raissrc/bin/../lib/gcc/riscv-nuclei-elf/9.2.0/../../../../riscv-nuclei-elf/lib/rv32imafc/ilp32f\libg_nano.a(lib_a-reent.o)
 .data          0x0000000000000000        0x0 d:/software/yuyin/qiqiyinqiluntai/riscv-nuclei-elf-gcc-9.2.0.0/gcc_fix_raissrc/bin/../lib/gcc/riscv-nuclei-elf/9.2.0/../../../../riscv-nuclei-elf/lib/rv32imafc/ilp32f\libg_nano.a(lib_a-reent.o)
 .bss           0x0000000000000000        0x0 d:/software/yuyin/qiqiyinqiluntai/riscv-nuclei-elf-gcc-9.2.0.0/gcc_fix_raissrc/bin/../lib/gcc/riscv-nuclei-elf/9.2.0/../../../../riscv-nuclei-elf/lib/rv32imafc/ilp32f\libg_nano.a(lib_a-reent.o)
 .text.cleanup_glue
                0x0000000000000000       0x2c d:/software/yuyin/qiqiyinqiluntai/riscv-nuclei-elf-gcc-9.2.0.0/gcc_fix_raissrc/bin/../lib/gcc/riscv-nuclei-elf/9.2.0/../../../../riscv-nuclei-elf/lib/rv32imafc/ilp32f\libg_nano.a(lib_a-reent.o)
 .text._reclaim_reent
                0x0000000000000000      0x10a d:/software/yuyin/qiqiyinqiluntai/riscv-nuclei-elf-gcc-9.2.0.0/gcc_fix_raissrc/bin/../lib/gcc/riscv-nuclei-elf/9.2.0/../../../../riscv-nuclei-elf/lib/rv32imafc/ilp32f\libg_nano.a(lib_a-reent.o)
 .text          0x0000000000000000        0x0 d:/software/yuyin/qiqiyinqiluntai/riscv-nuclei-elf-gcc-9.2.0.0/gcc_fix_raissrc/bin/../lib/gcc/riscv-nuclei-elf/9.2.0/../../../../riscv-nuclei-elf/lib/rv32imafc/ilp32f\libg_nano.a(lib_a-stdio.o)
 .data          0x0000000000000000        0x0 d:/software/yuyin/qiqiyinqiluntai/riscv-nuclei-elf-gcc-9.2.0.0/gcc_fix_raissrc/bin/../lib/gcc/riscv-nuclei-elf/9.2.0/../../../../riscv-nuclei-elf/lib/rv32imafc/ilp32f\libg_nano.a(lib_a-stdio.o)
 .bss           0x0000000000000000        0x0 d:/software/yuyin/qiqiyinqiluntai/riscv-nuclei-elf-gcc-9.2.0.0/gcc_fix_raissrc/bin/../lib/gcc/riscv-nuclei-elf/9.2.0/../../../../riscv-nuclei-elf/lib/rv32imafc/ilp32f\libg_nano.a(lib_a-stdio.o)
 .text.__seofread
                0x0000000000000000        0x4 d:/software/yuyin/qiqiyinqiluntai/riscv-nuclei-elf-gcc-9.2.0.0/gcc_fix_raissrc/bin/../lib/gcc/riscv-nuclei-elf/9.2.0/../../../../riscv-nuclei-elf/lib/rv32imafc/ilp32f\libg_nano.a(lib_a-stdio.o)
 .text          0x0000000000000000        0x0 d:/software/yuyin/qiqiyinqiluntai/riscv-nuclei-elf-gcc-9.2.0.0/gcc_fix_raissrc/bin/../lib/gcc/riscv-nuclei-elf/9.2.0/../../../../riscv-nuclei-elf/lib/rv32imafc/ilp32f\libg_nano.a(lib_a-writer.o)
 .data          0x0000000000000000        0x0 d:/software/yuyin/qiqiyinqiluntai/riscv-nuclei-elf-gcc-9.2.0.0/gcc_fix_raissrc/bin/../lib/gcc/riscv-nuclei-elf/9.2.0/../../../../riscv-nuclei-elf/lib/rv32imafc/ilp32f\libg_nano.a(lib_a-writer.o)
 .bss           0x0000000000000000        0x0 d:/software/yuyin/qiqiyinqiluntai/riscv-nuclei-elf-gcc-9.2.0.0/gcc_fix_raissrc/bin/../lib/gcc/riscv-nuclei-elf/9.2.0/../../../../riscv-nuclei-elf/lib/rv32imafc/ilp32f\libg_nano.a(lib_a-writer.o)
 .text          0x0000000000000000        0x0 d:/software/yuyin/qiqiyinqiluntai/riscv-nuclei-elf-gcc-9.2.0.0/gcc_fix_raissrc/bin/../lib/gcc/riscv-nuclei-elf/9.2.0/../../../../riscv-nuclei-elf/lib/rv32imafc/ilp32f\libg_nano.a(lib_a-closer.o)
 .data          0x0000000000000000        0x0 d:/software/yuyin/qiqiyinqiluntai/riscv-nuclei-elf-gcc-9.2.0.0/gcc_fix_raissrc/bin/../lib/gcc/riscv-nuclei-elf/9.2.0/../../../../riscv-nuclei-elf/lib/rv32imafc/ilp32f\libg_nano.a(lib_a-closer.o)
 .bss           0x0000000000000000        0x0 d:/software/yuyin/qiqiyinqiluntai/riscv-nuclei-elf-gcc-9.2.0.0/gcc_fix_raissrc/bin/../lib/gcc/riscv-nuclei-elf/9.2.0/../../../../riscv-nuclei-elf/lib/rv32imafc/ilp32f\libg_nano.a(lib_a-closer.o)
 .text          0x0000000000000000        0x0 d:/software/yuyin/qiqiyinqiluntai/riscv-nuclei-elf-gcc-9.2.0.0/gcc_fix_raissrc/bin/../lib/gcc/riscv-nuclei-elf/9.2.0/../../../../riscv-nuclei-elf/lib/rv32imafc/ilp32f\libg_nano.a(lib_a-fstatr.o)
 .data          0x0000000000000000        0x0 d:/software/yuyin/qiqiyinqiluntai/riscv-nuclei-elf-gcc-9.2.0.0/gcc_fix_raissrc/bin/../lib/gcc/riscv-nuclei-elf/9.2.0/../../../../riscv-nuclei-elf/lib/rv32imafc/ilp32f\libg_nano.a(lib_a-fstatr.o)
 .bss           0x0000000000000000        0x0 d:/software/yuyin/qiqiyinqiluntai/riscv-nuclei-elf-gcc-9.2.0.0/gcc_fix_raissrc/bin/../lib/gcc/riscv-nuclei-elf/9.2.0/../../../../riscv-nuclei-elf/lib/rv32imafc/ilp32f\libg_nano.a(lib_a-fstatr.o)
 .text          0x0000000000000000        0x0 d:/software/yuyin/qiqiyinqiluntai/riscv-nuclei-elf-gcc-9.2.0.0/gcc_fix_raissrc/bin/../lib/gcc/riscv-nuclei-elf/9.2.0/../../../../riscv-nuclei-elf/lib/rv32imafc/ilp32f\libg_nano.a(lib_a-isattyr.o)
 .data          0x0000000000000000        0x0 d:/software/yuyin/qiqiyinqiluntai/riscv-nuclei-elf-gcc-9.2.0.0/gcc_fix_raissrc/bin/../lib/gcc/riscv-nuclei-elf/9.2.0/../../../../riscv-nuclei-elf/lib/rv32imafc/ilp32f\libg_nano.a(lib_a-isattyr.o)
 .bss           0x0000000000000000        0x0 d:/software/yuyin/qiqiyinqiluntai/riscv-nuclei-elf-gcc-9.2.0.0/gcc_fix_raissrc/bin/../lib/gcc/riscv-nuclei-elf/9.2.0/../../../../riscv-nuclei-elf/lib/rv32imafc/ilp32f\libg_nano.a(lib_a-isattyr.o)
 .text          0x0000000000000000        0x0 d:/software/yuyin/qiqiyinqiluntai/riscv-nuclei-elf-gcc-9.2.0.0/gcc_fix_raissrc/bin/../lib/gcc/riscv-nuclei-elf/9.2.0/../../../../riscv-nuclei-elf/lib/rv32imafc/ilp32f\libg_nano.a(lib_a-lseekr.o)
 .data          0x0000000000000000        0x0 d:/software/yuyin/qiqiyinqiluntai/riscv-nuclei-elf-gcc-9.2.0.0/gcc_fix_raissrc/bin/../lib/gcc/riscv-nuclei-elf/9.2.0/../../../../riscv-nuclei-elf/lib/rv32imafc/ilp32f\libg_nano.a(lib_a-lseekr.o)
 .bss           0x0000000000000000        0x0 d:/software/yuyin/qiqiyinqiluntai/riscv-nuclei-elf-gcc-9.2.0.0/gcc_fix_raissrc/bin/../lib/gcc/riscv-nuclei-elf/9.2.0/../../../../riscv-nuclei-elf/lib/rv32imafc/ilp32f\libg_nano.a(lib_a-lseekr.o)
 .text          0x0000000000000000        0x0 d:/software/yuyin/qiqiyinqiluntai/riscv-nuclei-elf-gcc-9.2.0.0/gcc_fix_raissrc/bin/../lib/gcc/riscv-nuclei-elf/9.2.0/../../../../riscv-nuclei-elf/lib/rv32imafc/ilp32f\libg_nano.a(lib_a-nano-msizer.o)
 .data          0x0000000000000000        0x0 d:/software/yuyin/qiqiyinqiluntai/riscv-nuclei-elf-gcc-9.2.0.0/gcc_fix_raissrc/bin/../lib/gcc/riscv-nuclei-elf/9.2.0/../../../../riscv-nuclei-elf/lib/rv32imafc/ilp32f\libg_nano.a(lib_a-nano-msizer.o)
 .bss           0x0000000000000000        0x0 d:/software/yuyin/qiqiyinqiluntai/riscv-nuclei-elf-gcc-9.2.0.0/gcc_fix_raissrc/bin/../lib/gcc/riscv-nuclei-elf/9.2.0/../../../../riscv-nuclei-elf/lib/rv32imafc/ilp32f\libg_nano.a(lib_a-nano-msizer.o)
 .text          0x0000000000000000        0x0 d:/software/yuyin/qiqiyinqiluntai/riscv-nuclei-elf-gcc-9.2.0.0/gcc_fix_raissrc/bin/../lib/gcc/riscv-nuclei-elf/9.2.0/../../../../riscv-nuclei-elf/lib/rv32imafc/ilp32f\libg_nano.a(lib_a-readr.o)
 .data          0x0000000000000000        0x0 d:/software/yuyin/qiqiyinqiluntai/riscv-nuclei-elf-gcc-9.2.0.0/gcc_fix_raissrc/bin/../lib/gcc/riscv-nuclei-elf/9.2.0/../../../../riscv-nuclei-elf/lib/rv32imafc/ilp32f\libg_nano.a(lib_a-readr.o)
 .bss           0x0000000000000000        0x0 d:/software/yuyin/qiqiyinqiluntai/riscv-nuclei-elf-gcc-9.2.0.0/gcc_fix_raissrc/bin/../lib/gcc/riscv-nuclei-elf/9.2.0/../../../../riscv-nuclei-elf/lib/rv32imafc/ilp32f\libg_nano.a(lib_a-readr.o)
 .text          0x0000000000000000        0x0 d:/software/yuyin/qiqiyinqiluntai/riscv-nuclei-elf-gcc-9.2.0.0/gcc_fix_raissrc/bin/../lib/gcc/riscv-nuclei-elf/9.2.0/../../../../riscv-nuclei-elf/lib/rv32imafc/ilp32f\libgloss_nano.a(sys_exit.o)
 .data          0x0000000000000000        0x0 d:/software/yuyin/qiqiyinqiluntai/riscv-nuclei-elf-gcc-9.2.0.0/gcc_fix_raissrc/bin/../lib/gcc/riscv-nuclei-elf/9.2.0/../../../../riscv-nuclei-elf/lib/rv32imafc/ilp32f\libgloss_nano.a(sys_exit.o)
 .bss           0x0000000000000000        0x0 d:/software/yuyin/qiqiyinqiluntai/riscv-nuclei-elf-gcc-9.2.0.0/gcc_fix_raissrc/bin/../lib/gcc/riscv-nuclei-elf/9.2.0/../../../../riscv-nuclei-elf/lib/rv32imafc/ilp32f\libgloss_nano.a(sys_exit.o)
 .text          0x0000000000000000        0x0 d:/software/yuyin/qiqiyinqiluntai/riscv-nuclei-elf-gcc-9.2.0.0/gcc_fix_raissrc/bin/../lib/gcc/riscv-nuclei-elf/9.2.0/../../../../riscv-nuclei-elf/lib/rv32imafc/ilp32f\libgloss_nano.a(sys_close.o)
 .data          0x0000000000000000        0x0 d:/software/yuyin/qiqiyinqiluntai/riscv-nuclei-elf-gcc-9.2.0.0/gcc_fix_raissrc/bin/../lib/gcc/riscv-nuclei-elf/9.2.0/../../../../riscv-nuclei-elf/lib/rv32imafc/ilp32f\libgloss_nano.a(sys_close.o)
 .bss           0x0000000000000000        0x0 d:/software/yuyin/qiqiyinqiluntai/riscv-nuclei-elf-gcc-9.2.0.0/gcc_fix_raissrc/bin/../lib/gcc/riscv-nuclei-elf/9.2.0/../../../../riscv-nuclei-elf/lib/rv32imafc/ilp32f\libgloss_nano.a(sys_close.o)
 .text          0x0000000000000000        0x0 d:/software/yuyin/qiqiyinqiluntai/riscv-nuclei-elf-gcc-9.2.0.0/gcc_fix_raissrc/bin/../lib/gcc/riscv-nuclei-elf/9.2.0/../../../../riscv-nuclei-elf/lib/rv32imafc/ilp32f\libgloss_nano.a(sys_fstat.o)
 .data          0x0000000000000000        0x0 d:/software/yuyin/qiqiyinqiluntai/riscv-nuclei-elf-gcc-9.2.0.0/gcc_fix_raissrc/bin/../lib/gcc/riscv-nuclei-elf/9.2.0/../../../../riscv-nuclei-elf/lib/rv32imafc/ilp32f\libgloss_nano.a(sys_fstat.o)
 .bss           0x0000000000000000        0x0 d:/software/yuyin/qiqiyinqiluntai/riscv-nuclei-elf-gcc-9.2.0.0/gcc_fix_raissrc/bin/../lib/gcc/riscv-nuclei-elf/9.2.0/../../../../riscv-nuclei-elf/lib/rv32imafc/ilp32f\libgloss_nano.a(sys_fstat.o)
 .text          0x0000000000000000        0x0 d:/software/yuyin/qiqiyinqiluntai/riscv-nuclei-elf-gcc-9.2.0.0/gcc_fix_raissrc/bin/../lib/gcc/riscv-nuclei-elf/9.2.0/../../../../riscv-nuclei-elf/lib/rv32imafc/ilp32f\libgloss_nano.a(sys_isatty.o)
 .data          0x0000000000000000        0x0 d:/software/yuyin/qiqiyinqiluntai/riscv-nuclei-elf-gcc-9.2.0.0/gcc_fix_raissrc/bin/../lib/gcc/riscv-nuclei-elf/9.2.0/../../../../riscv-nuclei-elf/lib/rv32imafc/ilp32f\libgloss_nano.a(sys_isatty.o)
 .bss           0x0000000000000000        0x0 d:/software/yuyin/qiqiyinqiluntai/riscv-nuclei-elf-gcc-9.2.0.0/gcc_fix_raissrc/bin/../lib/gcc/riscv-nuclei-elf/9.2.0/../../../../riscv-nuclei-elf/lib/rv32imafc/ilp32f\libgloss_nano.a(sys_isatty.o)
 .text          0x0000000000000000        0x0 d:/software/yuyin/qiqiyinqiluntai/riscv-nuclei-elf-gcc-9.2.0.0/gcc_fix_raissrc/bin/../lib/gcc/riscv-nuclei-elf/9.2.0/../../../../riscv-nuclei-elf/lib/rv32imafc/ilp32f\libgloss_nano.a(sys_lseek.o)
 .data          0x0000000000000000        0x0 d:/software/yuyin/qiqiyinqiluntai/riscv-nuclei-elf-gcc-9.2.0.0/gcc_fix_raissrc/bin/../lib/gcc/riscv-nuclei-elf/9.2.0/../../../../riscv-nuclei-elf/lib/rv32imafc/ilp32f\libgloss_nano.a(sys_lseek.o)
 .bss           0x0000000000000000        0x0 d:/software/yuyin/qiqiyinqiluntai/riscv-nuclei-elf-gcc-9.2.0.0/gcc_fix_raissrc/bin/../lib/gcc/riscv-nuclei-elf/9.2.0/../../../../riscv-nuclei-elf/lib/rv32imafc/ilp32f\libgloss_nano.a(sys_lseek.o)
 .text          0x0000000000000000        0x0 d:/software/yuyin/qiqiyinqiluntai/riscv-nuclei-elf-gcc-9.2.0.0/gcc_fix_raissrc/bin/../lib/gcc/riscv-nuclei-elf/9.2.0/../../../../riscv-nuclei-elf/lib/rv32imafc/ilp32f\libgloss_nano.a(sys_read.o)
 .data          0x0000000000000000        0x0 d:/software/yuyin/qiqiyinqiluntai/riscv-nuclei-elf-gcc-9.2.0.0/gcc_fix_raissrc/bin/../lib/gcc/riscv-nuclei-elf/9.2.0/../../../../riscv-nuclei-elf/lib/rv32imafc/ilp32f\libgloss_nano.a(sys_read.o)
 .bss           0x0000000000000000        0x0 d:/software/yuyin/qiqiyinqiluntai/riscv-nuclei-elf-gcc-9.2.0.0/gcc_fix_raissrc/bin/../lib/gcc/riscv-nuclei-elf/9.2.0/../../../../riscv-nuclei-elf/lib/rv32imafc/ilp32f\libgloss_nano.a(sys_read.o)
 .text          0x0000000000000000        0x0 d:/software/yuyin/qiqiyinqiluntai/riscv-nuclei-elf-gcc-9.2.0.0/gcc_fix_raissrc/bin/../lib/gcc/riscv-nuclei-elf/9.2.0/../../../../riscv-nuclei-elf/lib/rv32imafc/ilp32f\libgloss_nano.a(sys_write.o)
 .data          0x0000000000000000        0x0 d:/software/yuyin/qiqiyinqiluntai/riscv-nuclei-elf-gcc-9.2.0.0/gcc_fix_raissrc/bin/../lib/gcc/riscv-nuclei-elf/9.2.0/../../../../riscv-nuclei-elf/lib/rv32imafc/ilp32f\libgloss_nano.a(sys_write.o)
 .bss           0x0000000000000000        0x0 d:/software/yuyin/qiqiyinqiluntai/riscv-nuclei-elf-gcc-9.2.0.0/gcc_fix_raissrc/bin/../lib/gcc/riscv-nuclei-elf/9.2.0/../../../../riscv-nuclei-elf/lib/rv32imafc/ilp32f\libgloss_nano.a(sys_write.o)
 .text          0x0000000000000000        0x0 d:/software/yuyin/qiqiyinqiluntai/riscv-nuclei-elf-gcc-9.2.0.0/gcc_fix_raissrc/bin/../lib/gcc/riscv-nuclei-elf/9.2.0/../../../../riscv-nuclei-elf/lib/rv32imafc/ilp32f\libgloss_nano.a(sys_conv_stat.o)
 .data          0x0000000000000000        0x0 d:/software/yuyin/qiqiyinqiluntai/riscv-nuclei-elf-gcc-9.2.0.0/gcc_fix_raissrc/bin/../lib/gcc/riscv-nuclei-elf/9.2.0/../../../../riscv-nuclei-elf/lib/rv32imafc/ilp32f\libgloss_nano.a(sys_conv_stat.o)
 .bss           0x0000000000000000        0x0 d:/software/yuyin/qiqiyinqiluntai/riscv-nuclei-elf-gcc-9.2.0.0/gcc_fix_raissrc/bin/../lib/gcc/riscv-nuclei-elf/9.2.0/../../../../riscv-nuclei-elf/lib/rv32imafc/ilp32f\libgloss_nano.a(sys_conv_stat.o)
 .text          0x0000000000000000        0x0 d:/software/yuyin/qiqiyinqiluntai/riscv-nuclei-elf-gcc-9.2.0.0/gcc_fix_raissrc/bin/../lib/gcc/riscv-nuclei-elf/9.2.0/../../../../riscv-nuclei-elf/lib/rv32imafc/ilp32f\libc_nano.a(lib_a-errno.o)
 .data          0x0000000000000000        0x0 d:/software/yuyin/qiqiyinqiluntai/riscv-nuclei-elf-gcc-9.2.0.0/gcc_fix_raissrc/bin/../lib/gcc/riscv-nuclei-elf/9.2.0/../../../../riscv-nuclei-elf/lib/rv32imafc/ilp32f\libc_nano.a(lib_a-errno.o)
 .bss           0x0000000000000000        0x0 d:/software/yuyin/qiqiyinqiluntai/riscv-nuclei-elf-gcc-9.2.0.0/gcc_fix_raissrc/bin/../lib/gcc/riscv-nuclei-elf/9.2.0/../../../../riscv-nuclei-elf/lib/rv32imafc/ilp32f\libc_nano.a(lib_a-errno.o)
 .data          0x0000000000000000        0x0 d:/software/yuyin/qiqiyinqiluntai/riscv-nuclei-elf-gcc-9.2.0.0/gcc_fix_raissrc/bin/../lib/gcc/riscv-nuclei-elf/9.2.0/../../../../riscv-nuclei-elf/lib/rv32imafc/ilp32f\libm.a(lib_a-s_floor.o)
 .bss           0x0000000000000000        0x0 d:/software/yuyin/qiqiyinqiluntai/riscv-nuclei-elf-gcc-9.2.0.0/gcc_fix_raissrc/bin/../lib/gcc/riscv-nuclei-elf/9.2.0/../../../../riscv-nuclei-elf/lib/rv32imafc/ilp32f\libm.a(lib_a-s_floor.o)
 .data          0x0000000000000000        0x0 d:/software/yuyin/qiqiyinqiluntai/riscv-nuclei-elf-gcc-9.2.0.0/gcc_fix_raissrc/bin/../lib/gcc/riscv-nuclei-elf/9.2.0/../../../../riscv-nuclei-elf/lib/rv32imafc/ilp32f\libm.a(lib_a-w_acos.o)
 .bss           0x0000000000000000        0x0 d:/software/yuyin/qiqiyinqiluntai/riscv-nuclei-elf-gcc-9.2.0.0/gcc_fix_raissrc/bin/../lib/gcc/riscv-nuclei-elf/9.2.0/../../../../riscv-nuclei-elf/lib/rv32imafc/ilp32f\libm.a(lib_a-w_acos.o)
 .data          0x0000000000000000        0x0 d:/software/yuyin/qiqiyinqiluntai/riscv-nuclei-elf-gcc-9.2.0.0/gcc_fix_raissrc/bin/../lib/gcc/riscv-nuclei-elf/9.2.0/../../../../riscv-nuclei-elf/lib/rv32imafc/ilp32f\libm.a(lib_a-w_exp.o)
 .bss           0x0000000000000000        0x0 d:/software/yuyin/qiqiyinqiluntai/riscv-nuclei-elf-gcc-9.2.0.0/gcc_fix_raissrc/bin/../lib/gcc/riscv-nuclei-elf/9.2.0/../../../../riscv-nuclei-elf/lib/rv32imafc/ilp32f\libm.a(lib_a-w_exp.o)
 .data          0x0000000000000000        0x0 d:/software/yuyin/qiqiyinqiluntai/riscv-nuclei-elf-gcc-9.2.0.0/gcc_fix_raissrc/bin/../lib/gcc/riscv-nuclei-elf/9.2.0/../../../../riscv-nuclei-elf/lib/rv32imafc/ilp32f\libm.a(lib_a-wf_pow.o)
 .bss           0x0000000000000000        0x0 d:/software/yuyin/qiqiyinqiluntai/riscv-nuclei-elf-gcc-9.2.0.0/gcc_fix_raissrc/bin/../lib/gcc/riscv-nuclei-elf/9.2.0/../../../../riscv-nuclei-elf/lib/rv32imafc/ilp32f\libm.a(lib_a-wf_pow.o)
 .data          0x0000000000000000        0x0 d:/software/yuyin/qiqiyinqiluntai/riscv-nuclei-elf-gcc-9.2.0.0/gcc_fix_raissrc/bin/../lib/gcc/riscv-nuclei-elf/9.2.0/../../../../riscv-nuclei-elf/lib/rv32imafc/ilp32f\libm.a(lib_a-w_log.o)
 .bss           0x0000000000000000        0x0 d:/software/yuyin/qiqiyinqiluntai/riscv-nuclei-elf-gcc-9.2.0.0/gcc_fix_raissrc/bin/../lib/gcc/riscv-nuclei-elf/9.2.0/../../../../riscv-nuclei-elf/lib/rv32imafc/ilp32f\libm.a(lib_a-w_log.o)
 .data          0x0000000000000000        0x0 d:/software/yuyin/qiqiyinqiluntai/riscv-nuclei-elf-gcc-9.2.0.0/gcc_fix_raissrc/bin/../lib/gcc/riscv-nuclei-elf/9.2.0/../../../../riscv-nuclei-elf/lib/rv32imafc/ilp32f\libm.a(lib_a-w_sqrt.o)
 .bss           0x0000000000000000        0x0 d:/software/yuyin/qiqiyinqiluntai/riscv-nuclei-elf-gcc-9.2.0.0/gcc_fix_raissrc/bin/../lib/gcc/riscv-nuclei-elf/9.2.0/../../../../riscv-nuclei-elf/lib/rv32imafc/ilp32f\libm.a(lib_a-w_sqrt.o)
 .data          0x0000000000000000        0x0 d:/software/yuyin/qiqiyinqiluntai/riscv-nuclei-elf-gcc-9.2.0.0/gcc_fix_raissrc/bin/../lib/gcc/riscv-nuclei-elf/9.2.0/../../../../riscv-nuclei-elf/lib/rv32imafc/ilp32f\libm.a(lib_a-e_acos.o)
 .bss           0x0000000000000000        0x0 d:/software/yuyin/qiqiyinqiluntai/riscv-nuclei-elf-gcc-9.2.0.0/gcc_fix_raissrc/bin/../lib/gcc/riscv-nuclei-elf/9.2.0/../../../../riscv-nuclei-elf/lib/rv32imafc/ilp32f\libm.a(lib_a-e_acos.o)
 .data          0x0000000000000000        0x0 d:/software/yuyin/qiqiyinqiluntai/riscv-nuclei-elf-gcc-9.2.0.0/gcc_fix_raissrc/bin/../lib/gcc/riscv-nuclei-elf/9.2.0/../../../../riscv-nuclei-elf/lib/rv32imafc/ilp32f\libm.a(lib_a-e_exp.o)
 .bss           0x0000000000000000        0x0 d:/software/yuyin/qiqiyinqiluntai/riscv-nuclei-elf-gcc-9.2.0.0/gcc_fix_raissrc/bin/../lib/gcc/riscv-nuclei-elf/9.2.0/../../../../riscv-nuclei-elf/lib/rv32imafc/ilp32f\libm.a(lib_a-e_exp.o)
 .data          0x0000000000000000        0x0 d:/software/yuyin/qiqiyinqiluntai/riscv-nuclei-elf-gcc-9.2.0.0/gcc_fix_raissrc/bin/../lib/gcc/riscv-nuclei-elf/9.2.0/../../../../riscv-nuclei-elf/lib/rv32imafc/ilp32f\libm.a(lib_a-ef_pow.o)
 .bss           0x0000000000000000        0x0 d:/software/yuyin/qiqiyinqiluntai/riscv-nuclei-elf-gcc-9.2.0.0/gcc_fix_raissrc/bin/../lib/gcc/riscv-nuclei-elf/9.2.0/../../../../riscv-nuclei-elf/lib/rv32imafc/ilp32f\libm.a(lib_a-ef_pow.o)
 .data          0x0000000000000000        0x0 d:/software/yuyin/qiqiyinqiluntai/riscv-nuclei-elf-gcc-9.2.0.0/gcc_fix_raissrc/bin/../lib/gcc/riscv-nuclei-elf/9.2.0/../../../../riscv-nuclei-elf/lib/rv32imafc/ilp32f\libm.a(lib_a-ef_sqrt.o)
 .bss           0x0000000000000000        0x0 d:/software/yuyin/qiqiyinqiluntai/riscv-nuclei-elf-gcc-9.2.0.0/gcc_fix_raissrc/bin/../lib/gcc/riscv-nuclei-elf/9.2.0/../../../../riscv-nuclei-elf/lib/rv32imafc/ilp32f\libm.a(lib_a-ef_sqrt.o)
 .data          0x0000000000000000        0x0 d:/software/yuyin/qiqiyinqiluntai/riscv-nuclei-elf-gcc-9.2.0.0/gcc_fix_raissrc/bin/../lib/gcc/riscv-nuclei-elf/9.2.0/../../../../riscv-nuclei-elf/lib/rv32imafc/ilp32f\libm.a(lib_a-e_log.o)
 .bss           0x0000000000000000        0x0 d:/software/yuyin/qiqiyinqiluntai/riscv-nuclei-elf-gcc-9.2.0.0/gcc_fix_raissrc/bin/../lib/gcc/riscv-nuclei-elf/9.2.0/../../../../riscv-nuclei-elf/lib/rv32imafc/ilp32f\libm.a(lib_a-e_log.o)
 .data          0x0000000000000000        0x0 d:/software/yuyin/qiqiyinqiluntai/riscv-nuclei-elf-gcc-9.2.0.0/gcc_fix_raissrc/bin/../lib/gcc/riscv-nuclei-elf/9.2.0/../../../../riscv-nuclei-elf/lib/rv32imafc/ilp32f\libm.a(lib_a-e_sqrt.o)
 .bss           0x0000000000000000        0x0 d:/software/yuyin/qiqiyinqiluntai/riscv-nuclei-elf-gcc-9.2.0.0/gcc_fix_raissrc/bin/../lib/gcc/riscv-nuclei-elf/9.2.0/../../../../riscv-nuclei-elf/lib/rv32imafc/ilp32f\libm.a(lib_a-e_sqrt.o)
 .data          0x0000000000000000        0x0 d:/software/yuyin/qiqiyinqiluntai/riscv-nuclei-elf-gcc-9.2.0.0/gcc_fix_raissrc/bin/../lib/gcc/riscv-nuclei-elf/9.2.0/../../../../riscv-nuclei-elf/lib/rv32imafc/ilp32f\libm.a(lib_a-s_fabs.o)
 .bss           0x0000000000000000        0x0 d:/software/yuyin/qiqiyinqiluntai/riscv-nuclei-elf-gcc-9.2.0.0/gcc_fix_raissrc/bin/../lib/gcc/riscv-nuclei-elf/9.2.0/../../../../riscv-nuclei-elf/lib/rv32imafc/ilp32f\libm.a(lib_a-s_fabs.o)
 .data          0x0000000000000000        0x0 d:/software/yuyin/qiqiyinqiluntai/riscv-nuclei-elf-gcc-9.2.0.0/gcc_fix_raissrc/bin/../lib/gcc/riscv-nuclei-elf/9.2.0/../../../../riscv-nuclei-elf/lib/rv32imafc/ilp32f\libm.a(lib_a-sf_finite.o)
 .bss           0x0000000000000000        0x0 d:/software/yuyin/qiqiyinqiluntai/riscv-nuclei-elf-gcc-9.2.0.0/gcc_fix_raissrc/bin/../lib/gcc/riscv-nuclei-elf/9.2.0/../../../../riscv-nuclei-elf/lib/rv32imafc/ilp32f\libm.a(lib_a-sf_finite.o)
 .data          0x0000000000000000        0x0 d:/software/yuyin/qiqiyinqiluntai/riscv-nuclei-elf-gcc-9.2.0.0/gcc_fix_raissrc/bin/../lib/gcc/riscv-nuclei-elf/9.2.0/../../../../riscv-nuclei-elf/lib/rv32imafc/ilp32f\libm.a(lib_a-s_finite.o)
 .bss           0x0000000000000000        0x0 d:/software/yuyin/qiqiyinqiluntai/riscv-nuclei-elf-gcc-9.2.0.0/gcc_fix_raissrc/bin/../lib/gcc/riscv-nuclei-elf/9.2.0/../../../../riscv-nuclei-elf/lib/rv32imafc/ilp32f\libm.a(lib_a-s_finite.o)
 .data          0x0000000000000000        0x0 d:/software/yuyin/qiqiyinqiluntai/riscv-nuclei-elf-gcc-9.2.0.0/gcc_fix_raissrc/bin/../lib/gcc/riscv-nuclei-elf/9.2.0/../../../../riscv-nuclei-elf/lib/rv32imafc/ilp32f\libm.a(lib_a-sf_nan.o)
 .bss           0x0000000000000000        0x0 d:/software/yuyin/qiqiyinqiluntai/riscv-nuclei-elf-gcc-9.2.0.0/gcc_fix_raissrc/bin/../lib/gcc/riscv-nuclei-elf/9.2.0/../../../../riscv-nuclei-elf/lib/rv32imafc/ilp32f\libm.a(lib_a-sf_nan.o)
 .data          0x0000000000000000        0x0 d:/software/yuyin/qiqiyinqiluntai/riscv-nuclei-elf-gcc-9.2.0.0/gcc_fix_raissrc/bin/../lib/gcc/riscv-nuclei-elf/9.2.0/../../../../riscv-nuclei-elf/lib/rv32imafc/ilp32f\libm.a(lib_a-sf_rint.o)
 .bss           0x0000000000000000        0x0 d:/software/yuyin/qiqiyinqiluntai/riscv-nuclei-elf-gcc-9.2.0.0/gcc_fix_raissrc/bin/../lib/gcc/riscv-nuclei-elf/9.2.0/../../../../riscv-nuclei-elf/lib/rv32imafc/ilp32f\libm.a(lib_a-sf_rint.o)
 .data          0x0000000000000000        0x0 d:/software/yuyin/qiqiyinqiluntai/riscv-nuclei-elf-gcc-9.2.0.0/gcc_fix_raissrc/bin/../lib/gcc/riscv-nuclei-elf/9.2.0/../../../../riscv-nuclei-elf/lib/rv32imafc/ilp32f\libm.a(lib_a-sf_scalbn.o)
 .bss           0x0000000000000000        0x0 d:/software/yuyin/qiqiyinqiluntai/riscv-nuclei-elf-gcc-9.2.0.0/gcc_fix_raissrc/bin/../lib/gcc/riscv-nuclei-elf/9.2.0/../../../../riscv-nuclei-elf/lib/rv32imafc/ilp32f\libm.a(lib_a-sf_scalbn.o)
 .text          0x0000000000000000        0x0 d:/software/yuyin/qiqiyinqiluntai/riscv-nuclei-elf-gcc-9.2.0.0/gcc_fix_raissrc/bin/../lib/gcc/riscv-nuclei-elf/9.2.0/../../../../riscv-nuclei-elf/lib/rv32imafc/ilp32f\libm.a(lib_a-s_lib_ver.o)
 .data          0x0000000000000000        0x0 d:/software/yuyin/qiqiyinqiluntai/riscv-nuclei-elf-gcc-9.2.0.0/gcc_fix_raissrc/bin/../lib/gcc/riscv-nuclei-elf/9.2.0/../../../../riscv-nuclei-elf/lib/rv32imafc/ilp32f\libm.a(lib_a-s_lib_ver.o)
 .bss           0x0000000000000000        0x0 d:/software/yuyin/qiqiyinqiluntai/riscv-nuclei-elf-gcc-9.2.0.0/gcc_fix_raissrc/bin/../lib/gcc/riscv-nuclei-elf/9.2.0/../../../../riscv-nuclei-elf/lib/rv32imafc/ilp32f\libm.a(lib_a-s_lib_ver.o)
 .data          0x0000000000000000        0x0 d:/software/yuyin/qiqiyinqiluntai/riscv-nuclei-elf-gcc-9.2.0.0/gcc_fix_raissrc/bin/../lib/gcc/riscv-nuclei-elf/9.2.0/../../../../riscv-nuclei-elf/lib/rv32imafc/ilp32f\libm.a(lib_a-s_matherr.o)
 .bss           0x0000000000000000        0x0 d:/software/yuyin/qiqiyinqiluntai/riscv-nuclei-elf-gcc-9.2.0.0/gcc_fix_raissrc/bin/../lib/gcc/riscv-nuclei-elf/9.2.0/../../../../riscv-nuclei-elf/lib/rv32imafc/ilp32f\libm.a(lib_a-s_matherr.o)
 .data          0x0000000000000000        0x0 d:/software/yuyin/qiqiyinqiluntai/riscv-nuclei-elf-gcc-9.2.0.0/gcc_fix_raissrc/bin/../lib/gcc/riscv-nuclei-elf/9.2.0/../../../../riscv-nuclei-elf/lib/rv32imafc/ilp32f\libm.a(lib_a-s_nan.o)
 .bss           0x0000000000000000        0x0 d:/software/yuyin/qiqiyinqiluntai/riscv-nuclei-elf-gcc-9.2.0.0/gcc_fix_raissrc/bin/../lib/gcc/riscv-nuclei-elf/9.2.0/../../../../riscv-nuclei-elf/lib/rv32imafc/ilp32f\libm.a(lib_a-s_nan.o)
 .data          0x0000000000000000        0x0 d:/software/yuyin/qiqiyinqiluntai/riscv-nuclei-elf-gcc-9.2.0.0/gcc_fix_raissrc/bin/../lib/gcc/riscv-nuclei-elf/9.2.0/../../../../riscv-nuclei-elf/lib/rv32imafc/ilp32f\libm.a(lib_a-sf_copysign.o)
 .bss           0x0000000000000000        0x0 d:/software/yuyin/qiqiyinqiluntai/riscv-nuclei-elf-gcc-9.2.0.0/gcc_fix_raissrc/bin/../lib/gcc/riscv-nuclei-elf/9.2.0/../../../../riscv-nuclei-elf/lib/rv32imafc/ilp32f\libm.a(lib_a-sf_copysign.o)

Memory Configuration

Name             Origin             Length             Attributes
BOOT_PARAMETER   0x000000001ff50a00 0x0000000000000200
SHARE_SRAM       0x000000001ff50c00 0x0000000000000400
SRAM             0x000000001ff51000 0x0000000000087000 xrw
*default*        0x0000000000000000 0xffffffffffffffff

Linker script and memory map

LOAD C:\TMP\nn_denoise_rtc_sample.elf.t3mX4c.ltrans0.ltrans.o
LOAD C:\TMP\nn_denoise_rtc_sample.elf.t3mX4c.ltrans1.ltrans.o
LOAD C:\TMP\cc4YLWqI.debug.temp.o
LOAD C:\TMP\cc6QkfHa.debug.temp.o
LOAD C:\TMP\cc4209hD.debug.temp.o
LOAD C:\TMP\ccCPWpM5.debug.temp.o
LOAD C:\TMP\ccQrCnjy.debug.temp.o
LOAD C:\TMP\ccaraeN4.debug.temp.o
LOAD C:\TMP\ccCmUm6A.debug.temp.o
LOAD C:\TMP\ccQWwjT7.debug.temp.o
LOAD C:\TMP\ccA3nlrE.debug.temp.o
LOAD C:\TMP\ccyrueia.debug.temp.o
LOAD C:\TMP\ccQH9FZF.debug.temp.o
LOAD C:\TMP\ccAkZg8b.debug.temp.o
LOAD C:\TMP\ccIrIPbI.debug.temp.o
LOAD C:\TMP\cc2w12vd.debug.temp.o
LOAD C:\TMP\cckXRLGI.debug.temp.o
LOAD C:\TMP\ccWvt5de.debug.temp.o
LOAD C:\TMP\ccW86zPJ.debug.temp.o
LOAD C:\TMP\ccoG6aIe.debug.temp.o
LOAD C:\TMP\ccSOoSrN.debug.temp.o
LOAD C:\TMP\ccgOl22l.debug.temp.o
LOAD C:\TMP\ccycRq8U.debug.temp.o
LOAD C:\TMP\cc6IqVfu.debug.temp.o
LOAD C:\TMP\ccoz6Dg3.debug.temp.o
LOAD C:\TMP\ccoOXNqB.debug.temp.o
LOAD C:\TMP\ccM3YNr9.debug.temp.o
LOAD C:\TMP\ccAAQFTH.debug.temp.o
LOAD C:\TMP\ccCmYdcg.debug.temp.o
LOAD C:\TMP\ccEivgLN.debug.temp.o
LOAD C:\TMP\cc6JTJal.debug.temp.o
LOAD C:\TMP\ccc8xR3S.debug.temp.o
LOAD C:\TMP\cc82JiZq.debug.temp.o
LOAD C:\TMP\ccGBs5NY.debug.temp.o
LOAD C:\TMP\ccgDJ2Mv.debug.temp.o
LOAD C:\TMP\cc8ZOGC2.debug.temp.o
LOAD C:\TMP\ccMJlFTz.debug.temp.o
LOAD C:\TMP\ccwSzk46.debug.temp.o
LOAD C:\TMP\ccYVjF8H.debug.temp.o
LOAD C:\TMP\ccIYmIhj.debug.temp.o
LOAD C:\TMP\ccW0pvkU.debug.temp.o
LOAD C:\TMP\ccydWBNv.debug.temp.o
LOAD C:\TMP\ccMNkB36.debug.temp.o
LOAD C:\TMP\cc0NmanI.debug.temp.o
LOAD C:\TMP\ccioQYZi.debug.temp.o
LOAD C:\TMP\ccWT9ltT.debug.temp.o
LOAD C:\TMP\cc2LDSnu.debug.temp.o
LOAD C:\TMP\cckkAW84.debug.temp.o
LOAD C:\TMP\ccyqRlaF.debug.temp.o
LOAD C:\TMP\ccyhkvVe.debug.temp.o
LOAD C:\TMP\cckLCbaP.debug.temp.o
LOAD C:\TMP\ccMAbIrp.debug.temp.o
LOAD C:\TMP\ccUbSRCZ.debug.temp.o
LOAD C:\TMP\ccUud2Xy.debug.temp.o
LOAD C:\TMP\cc88Jun8.debug.temp.o
LOAD C:\TMP\ccWJ5m0H.debug.temp.o
LOAD C:\TMP\cc4IMcyh.debug.temp.o
LOAD C:\TMP\ccejiF5U.debug.temp.o
LOAD C:\TMP\ccwXVfpy.debug.temp.o
LOAD C:\TMP\ccKdocac.debug.temp.o
LOAD C:\TMP\ccI5TmZP.debug.temp.o
LOAD C:\TMP\ccUcGdFt.debug.temp.o
LOAD C:\TMP\cc0McSw6.debug.temp.o
LOAD C:\TMP\ccanCbfJ.debug.temp.o
LOAD C:\TMP\ccG0PW1l.debug.temp.o
LOAD C:\TMP\ccEmJP1Y.debug.temp.o
LOAD C:\TMP\ccMtM85B.debug.temp.o
LOAD C:\TMP\ccWNvWqe.debug.temp.o
LOAD C:\TMP\ccIDzZDQ.debug.temp.o
LOAD C:\TMP\ccUKdEdt.debug.temp.o
LOAD C:\TMP\ccam0BQ5.debug.temp.o
LOAD C:\TMP\ccQYa9jI.debug.temp.o
LOAD C:\TMP\ccwfYLZj.debug.temp.o
LOAD C:\TMP\ccanP2vV.debug.temp.o
LOAD C:\TMP\ccqAXBxx.debug.temp.o
LOAD C:\TMP\ccUMFBid.debug.temp.o
LOAD C:\TMP\ccuykFYS.debug.temp.o
LOAD C:\TMP\ccYcdZEy.debug.temp.o
LOAD C:\TMP\ccWgNIQe.debug.temp.o
LOAD C:\TMP\cc8znSOU.debug.temp.o
LOAD C:\TMP\ccALTbRA.debug.temp.o
LOAD C:\TMP\ccYYdI9f.debug.temp.o
LOAD C:\TMP\cc6dXIeV.debug.temp.o
LOAD C:\TMP\ccc6Y4OA.debug.temp.o
LOAD C:\TMP\ccioCXbg.debug.temp.o
LOAD C:\TMP\ccsU93OU.debug.temp.o
LOAD C:\TMP\ccqIV5wz.debug.temp.o
LOAD C:\TMP\ccoWiE1d.debug.temp.o
LOAD C:\TMP\cc2PI6WS.debug.temp.o
LOAD C:\TMP\ccy5RdXx.debug.temp.o
LOAD C:\TMP\cceuJ0Nc.debug.temp.o
LOAD C:\TMP\ccKfNAQQ.debug.temp.o
LOAD C:\TMP\ccMNvvXu.debug.temp.o
LOAD C:\TMP\cc0xd6U8.debug.temp.o
LOAD C:\TMP\ccUrrsjN.debug.temp.o
LOAD C:\TMP\cceVCNyr.debug.temp.o
LOAD C:\TMP\ccsXfBG9.debug.temp.o
LOAD C:\TMP\ccuHuDSR.debug.temp.o
LOAD C:\TMP\cc4cNFVz.debug.temp.o
LOAD C:\TMP\ccWNzili.debug.temp.o
LOAD C:\TMP\ccIfNaP0.debug.temp.o
LOAD C:\TMP\ccChVz9I.debug.temp.o
LOAD C:\TMP\ccKO7eGq.debug.temp.o
LOAD C:\TMP\ccMAjp37.debug.temp.o
LOAD C:\TMP\cc0CU9TP.debug.temp.o
LOAD C:\TMP\ccACoKBx.debug.temp.o
LOAD C:\TMP\ccq2nUnf.debug.temp.o
LOAD C:\TMP\cc6OP7pW.debug.temp.o
LOAD C:\TMP\cc82nMeD.debug.temp.o
LOAD C:\TMP\ccAqiT7j.debug.temp.o
LOAD C:\TMP\ccqAlhs1.debug.temp.o
LOAD C:\TMP\ccyFlzMI.debug.temp.o
LOAD C:\TMP\ccUv8FXp.debug.temp.o
LOAD C:\TMP\cckAzKk6.debug.temp.o
LOAD C:\TMP\ccKyltyM.debug.temp.o
LOAD C:\TMP\ccgGctQs.debug.temp.o
LOAD C:\TMP\ccmKSSl9.debug.temp.o
LOAD C:\TMP\cc6iyJQT.debug.temp.o
LOAD C:\TMP\cccryaqE.debug.temp.o
LOAD C:\TMP\ccsIghQo.debug.temp.o
LOAD C:\TMP\cciwW0C9.debug.temp.o
LOAD C:\TMP\ccoK7juU.debug.temp.o
LOAD C:\TMP\ccma17bF.debug.temp.o
LOAD C:\TMP\ccg8ehap.debug.temp.o
LOAD C:\TMP\cc4soLV8.debug.temp.o
LOAD C:\TMP\cccO4GLS.debug.temp.o
LOAD C:\TMP\ccOUHKOC.debug.temp.o
LOAD C:\TMP\ccClinWm.debug.temp.o
LOAD C:\TMP\ccmkdlk6.debug.temp.o
LOAD C:\TMP\cc8drquP.debug.temp.o
LOAD C:\TMP\ccGu6P5y.debug.temp.o
LOAD C:\TMP\cc8zTXGi.debug.temp.o
LOAD C:\TMP\ccInzvm2.debug.temp.o
LOAD C:\TMP\ccSnOW2K.debug.temp.o
LOAD C:\TMP\ccoXnYNt.debug.temp.o
LOAD C:\TMP\ccixn6tc.debug.temp.o
LOAD C:\TMP\cciUcNwV.debug.temp.o
LOAD C:\TMP\ccIQfJuE.debug.temp.o
LOAD C:\TMP\cciOiYpr.debug.temp.o
LOAD C:\TMP\cc0Ptl7d.debug.temp.o
LOAD C:\TMP\cceknSf1.debug.temp.o
LOAD C:\TMP\cciBcVsO.debug.temp.o
LOAD build/objs/ci130x_vtable.o
LOAD build/objs/ci130x_startup.o
LOAD ../../../libs\libasr.a
LOAD ../../../libs\libeq.a
LOAD ../../../libs\libdrc.a
LOAD ../../../libs\libnewlib_port.a
LOAD ../../../libs\libfreertos_port.a
LOAD ../../../libs\libdsu.a
LOAD ../../../libs\libflash_encrypt.a
LOAD d:/software/yuyin/qiqiyinqiluntai/riscv-nuclei-elf-gcc-9.2.0.0/gcc_fix_raissrc/bin/../lib/gcc/riscv-nuclei-elf/9.2.0/../../../../riscv-nuclei-elf/lib/rv32imafc/ilp32f\libstdc++.a
LOAD d:/software/yuyin/qiqiyinqiluntai/riscv-nuclei-elf-gcc-9.2.0.0/gcc_fix_raissrc/bin/../lib/gcc/riscv-nuclei-elf/9.2.0/../../../../riscv-nuclei-elf/lib/rv32imafc/ilp32f\libm.a
LOAD d:/software/yuyin/qiqiyinqiluntai/riscv-nuclei-elf-gcc-9.2.0.0/gcc_fix_raissrc/bin/../lib/gcc/riscv-nuclei-elf/9.2.0/rv32imafc/ilp32f\libgcc.a
LOAD d:/software/yuyin/qiqiyinqiluntai/riscv-nuclei-elf-gcc-9.2.0.0/gcc_fix_raissrc/bin/../lib/gcc/riscv-nuclei-elf/9.2.0/../../../../riscv-nuclei-elf/lib/rv32imafc/ilp32f\libg_nano.a
LOAD d:/software/yuyin/qiqiyinqiluntai/riscv-nuclei-elf-gcc-9.2.0.0/gcc_fix_raissrc/bin/../lib/gcc/riscv-nuclei-elf/9.2.0/../../../../riscv-nuclei-elf/lib/rv32imafc/ilp32f\libc_nano.a
LOAD d:/software/yuyin/qiqiyinqiluntai/riscv-nuclei-elf-gcc-9.2.0.0/gcc_fix_raissrc/bin/../lib/gcc/riscv-nuclei-elf/9.2.0/rv32imafc/ilp32f\libgcc.a
START GROUP
LOAD d:/software/yuyin/qiqiyinqiluntai/riscv-nuclei-elf-gcc-9.2.0.0/gcc_fix_raissrc/bin/../lib/gcc/riscv-nuclei-elf/9.2.0/rv32imafc/ilp32f\libgcc.a
LOAD d:/software/yuyin/qiqiyinqiluntai/riscv-nuclei-elf-gcc-9.2.0.0/gcc_fix_raissrc/bin/../lib/gcc/riscv-nuclei-elf/9.2.0/../../../../riscv-nuclei-elf/lib/rv32imafc/ilp32f\libc_nano.a
LOAD d:/software/yuyin/qiqiyinqiluntai/riscv-nuclei-elf-gcc-9.2.0.0/gcc_fix_raissrc/bin/../lib/gcc/riscv-nuclei-elf/9.2.0/../../../../riscv-nuclei-elf/lib/rv32imafc/ilp32f\libgloss_nano.a
END GROUP
                0x0000000000000c00                STACK_SIZE = 0xc00
                0x000000001ffd2000                SRAM_HOST_END_ADDR = 0x1ffd2000
                0x000000001ffd2000                SRAM_HOST_END_ADDR_VPR = 0x1ffd2000
                0x000000001ffd0000                SRAM_HOST_END_ADDR_SED = 0x1ffd0000
                0x000000001ffcc000                SRAM_HOST_END_ADDR_OFFLINE_DUAL_MIC = 0x1ffcc000
                0x000000001ffd7000                SRAM_HOST_END_ADDR_AIOT_DUAL_MIC = 0x1ffd7000
                0x000000001ffcc000                SRAM_HOST_END_ADDR_NN_DENOISE_ASR = 0x1ffcc000
                0x000000001ffd8000                SRAM_HOST_END_ADDR_NN_DENOISE_RTC = 0x1ffd8000
                0x000000001ff50a00                BOOT_PARAMETER_ADDR = 0x1ff50a00
                0x0000000000000200                BOOT_PARAMETER_SIZE = 0x200
                0x000000001ff50c00                SHARE_SRAM_ADDR = 0x1ff50c00
                0x0000000000000400                SHARE_SRAM_SIZE = 0x400
                0x000000001ff51000                SRAM_START_ADDR = 0x1ff51000
                0x000000001ffd8000                SRAM_END_ADDR = SRAM_HOST_END_ADDR_NN_DENOISE_RTC
                0x0000000000087000                SRAM_SIZE = (SRAM_END_ADDR - SRAM_START_ADDR)
                0x0000000000037000                SYS_HEAP_SIZE = 0x37000
                0x0000000000000c00                __stack_size = STACK_SIZE
                0x0000000000000c00                __int_stack_size = STACK_SIZE
                0x0000000000000c00                __stack_size = DEFINED (__stack_size)?__stack_size:0x800
                0x0000000000000c00                __int_stack_size = DEFINED (__int_stack_size)?__int_stack_size:0x400

.boot_parameter
                0x000000001ff50a00      0x116
 *.(boot_parameter)
 .boot_parameter
                0x000000001ff50a00      0x116 C:\TMP\nn_denoise_rtc_sample.elf.t3mX4c.ltrans1.ltrans.o

.share_memory   0x000000001ff50c00       0xb0
 *(.share_mem)
 .share_mem     0x000000001ff50c00       0xb0 C:\TMP\nn_denoise_rtc_sample.elf.t3mX4c.ltrans0.ltrans.o
                0x000000001ff50c00                status_list.lto_priv.0

.init           0x000000001ff51000      0x272
 *(.vtable)
 .vtable        0x000000001ff51000      0x100 build/objs/ci130x_vtable.o
                0x000000001ff51000                vector_base
 *(.load_addr)
 .load_addr     0x000000001ff51100       0x3c build/objs/ci130x_startup.o
 *(SORT_NONE(.init))
 .init          0x000000001ff5113c      0x136 build/objs/ci130x_startup.o
                0x000000001ff5113c                _start
                0x000000001ff51162                _virtual_start
                0x000000001ff51250                disable_mcycle_minstret
                0x000000001ff51256                enable_mcycle_minstret
                0x000000001ff5125c                core_wfe_asm

.ilalign        0x000000001ff51272        0x2
                0x000000001ff51274                . = ALIGN (0x4)
 *fill*         0x000000001ff51272        0x2 
                0x000000001ff51274                PROVIDE (_ilm_lma = .)

.ialign         0x000000001ff51274        0x0
                0x000000001ff51274                PROVIDE (_ilm = .)

.text           0x000000001ff51280    0x16562
 *(.text.unlikely .text.unlikely.*)
 *(.text.startup .text.startup.*)
 .text.startup.main
                0x000000001ff51280      0x556 C:\TMP\nn_denoise_rtc_sample.elf.t3mX4c.ltrans1.ltrans.o
                0x000000001ff51280                main
 *(.text .text.*)
 .text.filter_mem16.constprop.0
                0x000000001ff517d6       0x84 C:\TMP\nn_denoise_rtc_sample.elf.t3mX4c.ltrans0.ltrans.o
 .text.iir_mem16.constprop.0
                0x000000001ff5185a       0x66 C:\TMP\nn_denoise_rtc_sample.elf.t3mX4c.ltrans0.ltrans.o
 .text.vq_nbest.constprop.0
                0x000000001ff518c0       0xc0 C:\TMP\nn_denoise_rtc_sample.elf.t3mX4c.ltrans0.ltrans.o
 .text.vq_nbest_sign.constprop.0
                0x000000001ff51980       0xf0 C:\TMP\nn_denoise_rtc_sample.elf.t3mX4c.ltrans0.ltrans.o
 .text.fir_mem16.constprop.0
                0x000000001ff51a70       0x62 C:\TMP\nn_denoise_rtc_sample.elf.t3mX4c.ltrans0.ltrans.o
 .text.highpass.constprop.0
                0x000000001ff51ad2       0x8e C:\TMP\nn_denoise_rtc_sample.elf.t3mX4c.ltrans0.ltrans.o
 .text.qmf_synth.constprop.0
                0x000000001ff51b60      0x172 C:\TMP\nn_denoise_rtc_sample.elf.t3mX4c.ltrans0.ltrans.o
 .text.lsp_quant.constprop.0
                0x000000001ff51cd2       0x86 C:\TMP\nn_denoise_rtc_sample.elf.t3mX4c.ltrans0.ltrans.o
 .text.lsp_weight_quant.constprop.0
                0x000000001ff51d58       0x92 C:\TMP\nn_denoise_rtc_sample.elf.t3mX4c.ltrans0.ltrans.o
 .text.rc_callee_alg_aes_addr
                0x000000001ff51dea        0x8 C:\TMP\nn_denoise_rtc_sample.elf.t3mX4c.ltrans0.ltrans.o
                0x000000001ff51dea                rc_callee_alg_aes_addr
 .text.rc_callee_print_doa_angle_in_host
                0x000000001ff51df2        0x2 C:\TMP\nn_denoise_rtc_sample.elf.t3mX4c.ltrans0.ltrans.o
                0x000000001ff51df2                rc_callee_print_doa_angle_in_host
 .text.rc_callee_sed_rslt_cb
                0x000000001ff51df4        0x2 C:\TMP\nn_denoise_rtc_sample.elf.t3mX4c.ltrans0.ltrans.o
                0x000000001ff51df4                rc_callee_sed_rslt_cb
 .text.rc_callee_deal_one_frm_fft_rslt_callback
                0x000000001ff51df6        0x2 C:\TMP\nn_denoise_rtc_sample.elf.t3mX4c.ltrans0.ltrans.o
                0x000000001ff51df6                rc_callee_deal_one_frm_fft_rslt_callback
 .text.rc_callee_audio_deal_one_frm_callback
                0x000000001ff51df8        0x2 C:\TMP\nn_denoise_rtc_sample.elf.t3mX4c.ltrans0.ltrans.o
                0x000000001ff51df8                rc_callee_audio_deal_one_frm_callback
 .text.efuse_check_int_state
                0x000000001ff51dfa       0x14 C:\TMP\nn_denoise_rtc_sample.elf.t3mX4c.ltrans0.ltrans.o
 .text.efuse_int_clear
                0x000000001ff51e0e       0x12 C:\TMP\nn_denoise_rtc_sample.elf.t3mX4c.ltrans0.ltrans.o
 .text.prvTaskExitError
                0x000000001ff51e20       0x16 C:\TMP\nn_denoise_rtc_sample.elf.t3mX4c.ltrans0.ltrans.o
 .text.compute_quant_weights
                0x000000001ff51e36       0xba C:\TMP\nn_denoise_rtc_sample.elf.t3mX4c.ltrans0.ltrans.o
 .text.forced_pitch_unquant
                0x000000001ff51ef0       0x78 C:\TMP\nn_denoise_rtc_sample.elf.t3mX4c.ltrans0.ltrans.o
                0x000000001ff51ef0                forced_pitch_unquant
 .text.inner_prod
                0x000000001ff51f68       0x48 C:\TMP\nn_denoise_rtc_sample.elf.t3mX4c.ltrans0.ltrans.o
 .text.interp_pitch.constprop.0
                0x000000001ff51fb0      0x122 C:\TMP\nn_denoise_rtc_sample.elf.t3mX4c.ltrans0.ltrans.o
 .text.cheb_poly_eva.isra.0
                0x000000001ff520d2       0xa2 C:\TMP\nn_denoise_rtc_sample.elf.t3mX4c.ltrans0.ltrans.o
 .text.lsp_interpolate
                0x000000001ff52174       0xf6 C:\TMP\nn_denoise_rtc_sample.elf.t3mX4c.ltrans0.ltrans.o
 .text.lsp_to_lpc
                0x000000001ff5226a      0x1bc C:\TMP\nn_denoise_rtc_sample.elf.t3mX4c.ltrans0.ltrans.o
 .text._spx_autocorr
                0x000000001ff52426       0x46 C:\TMP\nn_denoise_rtc_sample.elf.t3mX4c.ltrans0.ltrans.o
 .text._spx_lpc
                0x000000001ff5246c       0xca C:\TMP\nn_denoise_rtc_sample.elf.t3mX4c.ltrans0.ltrans.o
 .text.compute_impulse_response
                0x000000001ff52536      0x118 C:\TMP\nn_denoise_rtc_sample.elf.t3mX4c.ltrans0.ltrans.o
 .text.syn_percep_zero16
                0x000000001ff5264e       0x60 C:\TMP\nn_denoise_rtc_sample.elf.t3mX4c.ltrans0.ltrans.o
 .text.forced_pitch_quant
                0x000000001ff526ae       0xe8 C:\TMP\nn_denoise_rtc_sample.elf.t3mX4c.ltrans0.ltrans.o
                0x000000001ff526ae                forced_pitch_quant
 .text.signal_mul
                0x000000001ff52796       0x1e C:\TMP\nn_denoise_rtc_sample.elf.t3mX4c.ltrans0.ltrans.o
 .text.bw_lpc   0x000000001ff527b4       0x26 C:\TMP\nn_denoise_rtc_sample.elf.t3mX4c.ltrans0.ltrans.o
 .text.sb_decode_lost
                0x000000001ff527da      0x122 C:\TMP\nn_denoise_rtc_sample.elf.t3mX4c.ltrans0.ltrans.o
 .text.compute_weighted_codebook.isra.0
                0x000000001ff528fc       0x8e C:\TMP\nn_denoise_rtc_sample.elf.t3mX4c.ltrans0.ltrans.o
 .text.noise_codebook_unquant
                0x000000001ff5298a       0x86 C:\TMP\nn_denoise_rtc_sample.elf.t3mX4c.ltrans0.ltrans.o
                0x000000001ff5298a                noise_codebook_unquant
 .text.prvCopyDataToQueue.constprop.0
                0x000000001ff52a10       0x94 C:\TMP\nn_denoise_rtc_sample.elf.t3mX4c.ltrans0.ltrans.o
 .text.lsp_quant_high
                0x000000001ff52aa4      0x152 C:\TMP\nn_denoise_rtc_sample.elf.t3mX4c.ltrans0.ltrans.o
                0x000000001ff52aa4                lsp_quant_high
 .text.lsp_quant_lbr
                0x000000001ff52bf6      0x168 C:\TMP\nn_denoise_rtc_sample.elf.t3mX4c.ltrans0.ltrans.o
                0x000000001ff52bf6                lsp_quant_lbr
 .text.lsp_quant_nb
                0x000000001ff52d5e      0x1ca C:\TMP\nn_denoise_rtc_sample.elf.t3mX4c.ltrans0.ltrans.o
                0x000000001ff52d5e                lsp_quant_nb
 .text.split_cb_search_shape_sign
                0x000000001ff52f28      0x91c C:\TMP\nn_denoise_rtc_sample.elf.t3mX4c.ltrans0.ltrans.o
                0x000000001ff52f28                split_cb_search_shape_sign
 .text.open_loop_nbest_pitch
                0x000000001ff53844      0x29e C:\TMP\nn_denoise_rtc_sample.elf.t3mX4c.ltrans0.ltrans.o
 .text.compute_rms
                0x000000001ff53ae2       0x46 C:\TMP\nn_denoise_rtc_sample.elf.t3mX4c.ltrans0.ltrans.o
 .text.multicomb.constprop.0
                0x000000001ff53b28      0x2e6 C:\TMP\nn_denoise_rtc_sample.elf.t3mX4c.ltrans0.ltrans.o
 .text.lpc_to_lsp.constprop.0
                0x000000001ff53e0e      0x266 C:\TMP\nn_denoise_rtc_sample.elf.t3mX4c.ltrans0.ltrans.o
 .text.speex_warning_int.lto_priv.0
                0x000000001ff54074       0x1e C:\TMP\nn_denoise_rtc_sample.elf.t3mX4c.ltrans0.ltrans.o
 .text.nb_mode_query
                0x000000001ff54092       0x46 C:\TMP\nn_denoise_rtc_sample.elf.t3mX4c.ltrans0.ltrans.o
                0x000000001ff54092                nb_mode_query
 .text.wb_mode_query
                0x000000001ff540d8       0x48 C:\TMP\nn_denoise_rtc_sample.elf.t3mX4c.ltrans0.ltrans.o
                0x000000001ff540d8                wb_mode_query
 .text._speex_fatal.constprop.0
                0x000000001ff54120       0x28 C:\TMP\nn_denoise_rtc_sample.elf.t3mX4c.ltrans0.ltrans.o
 .text.sb_decoder_destroy
                0x000000001ff54148       0x48 C:\TMP\nn_denoise_rtc_sample.elf.t3mX4c.ltrans0.ltrans.o
                0x000000001ff54148                sb_decoder_destroy
 .text.nb_decoder_destroy
                0x000000001ff54190       0x16 C:\TMP\nn_denoise_rtc_sample.elf.t3mX4c.ltrans0.ltrans.o
                0x000000001ff54190                nb_decoder_destroy
 .text.rc_callee_malloc_in_host
                0x000000001ff541a6        0xe C:\TMP\nn_denoise_rtc_sample.elf.t3mX4c.ltrans0.ltrans.o
                0x000000001ff541a6                rc_callee_malloc_in_host
 .text.rc_callee_get_current_model_addr
                0x000000001ff541b4       0x14 C:\TMP\nn_denoise_rtc_sample.elf.t3mX4c.ltrans0.ltrans.o
                0x000000001ff541b4                rc_callee_get_current_model_addr
 .text.speex_default_user_handler
                0x000000001ff541c8       0x1e C:\TMP\nn_denoise_rtc_sample.elf.t3mX4c.ltrans0.ltrans.o
 .text.lsp_unquant_high
                0x000000001ff541e6      0x11a C:\TMP\nn_denoise_rtc_sample.elf.t3mX4c.ltrans0.ltrans.o
                0x000000001ff541e6                lsp_unquant_high
 .text.lsp_unquant_lbr
                0x000000001ff54300      0x166 C:\TMP\nn_denoise_rtc_sample.elf.t3mX4c.ltrans0.ltrans.o
                0x000000001ff54300                lsp_unquant_lbr
 .text.lsp_unquant_nb
                0x000000001ff54466      0x21e C:\TMP\nn_denoise_rtc_sample.elf.t3mX4c.ltrans0.ltrans.o
                0x000000001ff54466                lsp_unquant_nb
 .text.split_cb_shape_sign_unquant
                0x000000001ff54684      0x12e C:\TMP\nn_denoise_rtc_sample.elf.t3mX4c.ltrans0.ltrans.o
                0x000000001ff54684                split_cb_shape_sign_unquant
 .text.noise_codebook_quant
                0x000000001ff547b2       0xa4 C:\TMP\nn_denoise_rtc_sample.elf.t3mX4c.ltrans0.ltrans.o
                0x000000001ff547b2                noise_codebook_quant
 .text.pitch_unquant_3tap
                0x000000001ff54856      0x270 C:\TMP\nn_denoise_rtc_sample.elf.t3mX4c.ltrans0.ltrans.o
                0x000000001ff54856                pitch_unquant_3tap
 .text.pitch_search_3tap
                0x000000001ff54ac6      0x73a C:\TMP\nn_denoise_rtc_sample.elf.t3mX4c.ltrans0.ltrans.o
                0x000000001ff54ac6                pitch_search_3tap
 .text.nb_decoder_ctl
                0x000000001ff55200      0x22e C:\TMP\nn_denoise_rtc_sample.elf.t3mX4c.ltrans0.ltrans.o
                0x000000001ff55200                nb_decoder_ctl
 .text.nb_encode
                0x000000001ff5542e      0xcba C:\TMP\nn_denoise_rtc_sample.elf.t3mX4c.ltrans0.ltrans.o
                0x000000001ff5542e                nb_encode
 .text.eclic_set_irq_priority.constprop.0
                0x000000001ff560e8       0x3a C:\TMP\nn_denoise_rtc_sample.elf.t3mX4c.ltrans0.ltrans.o
                0x000000001ff560e8                eclic_set_irq_priority.constprop.0
 .text.find_id.constprop.0
                0x000000001ff56122       0x46 C:\TMP\nn_denoise_rtc_sample.elf.t3mX4c.ltrans0.ltrans.o
                0x000000001ff56122                find_id.constprop.0
 .text.ci_eq_deal.constprop.0
                0x000000001ff56168      0x4de C:\TMP\nn_denoise_rtc_sample.elf.t3mX4c.ltrans0.ltrans.o
                0x000000001ff56168                ci_eq_deal.constprop.0
 .text.cias_speex_compressed_data.constprop.0
                0x000000001ff56646       0xf2 C:\TMP\nn_denoise_rtc_sample.elf.t3mX4c.ltrans0.ltrans.o
                0x000000001ff56646                cias_speex_compressed_data.constprop.0
 .text.dpmu_unlock_cfg_config
                0x000000001ff56738       0x12 C:\TMP\nn_denoise_rtc_sample.elf.t3mX4c.ltrans0.ltrans.o
                0x000000001ff56738                dpmu_unlock_cfg_config
 .text.dpmu_config_update_en
                0x000000001ff5674a       0x3c C:\TMP\nn_denoise_rtc_sample.elf.t3mX4c.ltrans0.ltrans.o
                0x000000001ff5674a                dpmu_config_update_en
 .text.dpmu_ldo3_lv_set
                0x000000001ff56786       0x34 C:\TMP\nn_denoise_rtc_sample.elf.t3mX4c.ltrans0.ltrans.o
                0x000000001ff56786                dpmu_ldo3_lv_set
 .text.dpmu_ldo2_lv_set
                0x000000001ff567ba       0x30 C:\TMP\nn_denoise_rtc_sample.elf.t3mX4c.ltrans0.ltrans.o
                0x000000001ff567ba                dpmu_ldo2_lv_set
 .text.dpmu_ldo1_lv_set
                0x000000001ff567ea       0x2a C:\TMP\nn_denoise_rtc_sample.elf.t3mX4c.ltrans0.ltrans.o
                0x000000001ff567ea                dpmu_ldo1_lv_set
 .text.dpmu_set_pmu_trim_value
                0x000000001ff56814       0x34 C:\TMP\nn_denoise_rtc_sample.elf.t3mX4c.ltrans0.ltrans.o
                0x000000001ff56814                dpmu_set_pmu_trim_value
 .text.dpmu_set_io_pull
                0x000000001ff56848       0x7a C:\TMP\nn_denoise_rtc_sample.elf.t3mX4c.ltrans0.ltrans.o
                0x000000001ff56848                dpmu_set_io_pull
 .text.dpmu_set_io_reuse
                0x000000001ff568c2      0x130 C:\TMP\nn_denoise_rtc_sample.elf.t3mX4c.ltrans0.ltrans.o
                0x000000001ff568c2                dpmu_set_io_reuse
 .text.dpmu_software_reset_system_config
                0x000000001ff569f2       0x2e C:\TMP\nn_denoise_rtc_sample.elf.t3mX4c.ltrans0.ltrans.o
                0x000000001ff569f2                dpmu_software_reset_system_config
 .text.dpmu_get_pll_frequency
                0x000000001ff56a20       0x3e C:\TMP\nn_denoise_rtc_sample.elf.t3mX4c.ltrans0.ltrans.o
                0x000000001ff56a20                dpmu_get_pll_frequency
 .text.efuse_read_data
                0x000000001ff56a5e        0xe C:\TMP\nn_denoise_rtc_sample.elf.t3mX4c.ltrans0.ltrans.o
                0x000000001ff56a5e                efuse_read_data
 .text.AON_EFUSE_IRQHandler
                0x000000001ff56a6c       0x72 C:\TMP\nn_denoise_rtc_sample.elf.t3mX4c.ltrans0.ltrans.o
                0x000000001ff56a6c                AON_EFUSE_IRQHandler
 .text.efuse_check_idle
                0x000000001ff56ade        0xe C:\TMP\nn_denoise_rtc_sample.elf.t3mX4c.ltrans0.ltrans.o
                0x000000001ff56ade                efuse_check_idle
 .text.efuse_read_start
                0x000000001ff56aec        0xe C:\TMP\nn_denoise_rtc_sample.elf.t3mX4c.ltrans0.ltrans.o
                0x000000001ff56aec                efuse_read_start
 .text.efuse_clk_freq_sel
                0x000000001ff56afa       0x10 C:\TMP\nn_denoise_rtc_sample.elf.t3mX4c.ltrans0.ltrans.o
                0x000000001ff56afa                efuse_clk_freq_sel
 .text.scu_unlock_reset_config
                0x000000001ff56b0a       0x12 C:\TMP\nn_denoise_rtc_sample.elf.t3mX4c.ltrans0.ltrans.o
                0x000000001ff56b0a                scu_unlock_reset_config
 .text.scu_set_device_reset_release
                0x000000001ff56b1c      0x146 C:\TMP\nn_denoise_rtc_sample.elf.t3mX4c.ltrans0.ltrans.o
                0x000000001ff56b1c                scu_set_device_reset_release
 .text.scu_set_device_reset
                0x000000001ff56c62      0x150 C:\TMP\nn_denoise_rtc_sample.elf.t3mX4c.ltrans0.ltrans.o
                0x000000001ff56c62                scu_set_device_reset
 .text.scu_unlock_clk_config
                0x000000001ff56db2       0x12 C:\TMP\nn_denoise_rtc_sample.elf.t3mX4c.ltrans0.ltrans.o
                0x000000001ff56db2                scu_unlock_clk_config
 .text.scu_iis_codec_mclk_config
                0x000000001ff56dc4       0x8e C:\TMP\nn_denoise_rtc_sample.elf.t3mX4c.ltrans0.ltrans.o
                0x000000001ff56dc4                scu_iis_codec_mclk_config
 .text.scu_iis_pad_mclk_config
                0x000000001ff56e52       0x74 C:\TMP\nn_denoise_rtc_sample.elf.t3mX4c.ltrans0.ltrans.o
                0x000000001ff56e52                scu_iis_pad_mclk_config
 .text.scu_iis_pad_clk_config
                0x000000001ff56ec6       0x74 C:\TMP\nn_denoise_rtc_sample.elf.t3mX4c.ltrans0.ltrans.o
                0x000000001ff56ec6                scu_iis_pad_clk_config
 .text.scu_iis_clk_config
                0x000000001ff56f3a       0xb2 C:\TMP\nn_denoise_rtc_sample.elf.t3mX4c.ltrans0.ltrans.o
                0x000000001ff56f3a                scu_iis_clk_config
 .text.scu_iis_mclk_Config
                0x000000001ff56fec       0x92 C:\TMP\nn_denoise_rtc_sample.elf.t3mX4c.ltrans0.ltrans.o
                0x000000001ff56fec                scu_iis_mclk_Config
 .text.scu_set_device_gate
                0x000000001ff5707e      0x1de C:\TMP\nn_denoise_rtc_sample.elf.t3mX4c.ltrans0.ltrans.o
                0x000000001ff5707e                scu_set_device_gate
 .text.scu_unlock_system_config
                0x000000001ff5725c       0x12 C:\TMP\nn_denoise_rtc_sample.elf.t3mX4c.ltrans0.ltrans.o
                0x000000001ff5725c                scu_unlock_system_config
 .text.dpmu_pll_config.constprop.0
                0x000000001ff5726e      0x15c C:\TMP\nn_denoise_rtc_sample.elf.t3mX4c.ltrans0.ltrans.o
                0x000000001ff5726e                dpmu_pll_config.constprop.0
 .text.MAIL_BOX_IRQHandler
                0x000000001ff573ca       0x52 C:\TMP\nn_denoise_rtc_sample.elf.t3mX4c.ltrans0.ltrans.o
                0x000000001ff573ca                MAIL_BOX_IRQHandler
 .text.xPortSetInterruptMask
                0x000000001ff5741c       0x1e C:\TMP\nn_denoise_rtc_sample.elf.t3mX4c.ltrans0.ltrans.o
                0x000000001ff5741c                xPortSetInterruptMask
 .text.xQueueGenericSendFromISR.constprop.0
                0x000000001ff5743a       0x70 C:\TMP\nn_denoise_rtc_sample.elf.t3mX4c.ltrans0.ltrans.o
                0x000000001ff5743a                xQueueGenericSendFromISR.constprop.0
 .text.vPortExitCritical
                0x000000001ff574aa       0x1a C:\TMP\nn_denoise_rtc_sample.elf.t3mX4c.ltrans0.ltrans.o
                0x000000001ff574aa                vPortExitCritical
 .text.vPortEnterCritical
                0x000000001ff574c4       0x24 C:\TMP\nn_denoise_rtc_sample.elf.t3mX4c.ltrans0.ltrans.o
                0x000000001ff574c4                vPortEnterCritical
 .text.vPortSetup
                0x000000001ff574e8       0x9e C:\TMP\nn_denoise_rtc_sample.elf.t3mX4c.ltrans0.ltrans.o
                0x000000001ff574e8                vPortSetup
 .text.vDoTaskSwitchContext
                0x000000001ff57586       0x76 C:\TMP\nn_denoise_rtc_sample.elf.t3mX4c.ltrans0.ltrans.o
                0x000000001ff57586                vDoTaskSwitchContext
 .text.taskswitch
                0x000000001ff575fc       0x14 C:\TMP\nn_denoise_rtc_sample.elf.t3mX4c.ltrans0.ltrans.o
                0x000000001ff575fc                taskswitch
 .text.vPortClearMSIPInt
                0x000000001ff57610       0x12 C:\TMP\nn_denoise_rtc_sample.elf.t3mX4c.ltrans0.ltrans.o
                0x000000001ff57610                vPortClearMSIPInt
 .text.vPortSetMSIPInt
                0x000000001ff57622       0x1a C:\TMP\nn_denoise_rtc_sample.elf.t3mX4c.ltrans0.ltrans.o
                0x000000001ff57622                vPortSetMSIPInt
 .text.xTaskGenericNotify.constprop.0
                0x000000001ff5763c       0x64 C:\TMP\nn_denoise_rtc_sample.elf.t3mX4c.ltrans0.ltrans.o
                0x000000001ff5763c                xTaskGenericNotify.constprop.0
 .text.xTaskNotifyWait.constprop.0
                0x000000001ff576a0       0x6e C:\TMP\nn_denoise_rtc_sample.elf.t3mX4c.ltrans0.ltrans.o
                0x000000001ff576a0                xTaskNotifyWait.constprop.0
 .text.xTaskCreate.constprop.0
                0x000000001ff5770e      0x1fc C:\TMP\nn_denoise_rtc_sample.elf.t3mX4c.ltrans0.ltrans.o
                0x000000001ff5770e                xTaskCreate.constprop.0
 .text.vPortSysTickHandler
                0x000000001ff5790a       0x60 C:\TMP\nn_denoise_rtc_sample.elf.t3mX4c.ltrans0.ltrans.o
                0x000000001ff5790a                vPortSysTickHandler
 .text.flash_manage_give_op_done_sem
                0x000000001ff5796a       0x4c C:\TMP\nn_denoise_rtc_sample.elf.t3mX4c.ltrans0.ltrans.o
 .text.flash_manage_nuclear_com_outside_serve_cb.lto_priv.0
                0x000000001ff579b6       0x42 C:\TMP\nn_denoise_rtc_sample.elf.t3mX4c.ltrans0.ltrans.o
                0x000000001ff579b6                flash_manage_nuclear_com_outside_serve_cb.lto_priv.0
 .text.speex_decoder_ctl
                0x000000001ff579f8        0xe C:\TMP\nn_denoise_rtc_sample.elf.t3mX4c.ltrans0.ltrans.o
                0x000000001ff579f8                speex_decoder_ctl
 .text.speex_decode_int.constprop.0
                0x000000001ff57a06       0xfe C:\TMP\nn_denoise_rtc_sample.elf.t3mX4c.ltrans0.ltrans.o
                0x000000001ff57a06                speex_decode_int.constprop.0
 .text.sb_decoder_ctl
                0x000000001ff57b04      0x1bc C:\TMP\nn_denoise_rtc_sample.elf.t3mX4c.ltrans0.ltrans.o
                0x000000001ff57b04                sb_decoder_ctl
 .text.speex_encoder_ctl
                0x000000001ff57cc0        0xe C:\TMP\nn_denoise_rtc_sample.elf.t3mX4c.ltrans0.ltrans.o
                0x000000001ff57cc0                speex_encoder_ctl
 .text.sb_encode
                0x000000001ff57cce      0xa6c C:\TMP\nn_denoise_rtc_sample.elf.t3mX4c.ltrans0.ltrans.o
                0x000000001ff57cce                sb_encode
 .text.sb_encoder_ctl
                0x000000001ff5873a      0x232 C:\TMP\nn_denoise_rtc_sample.elf.t3mX4c.ltrans0.ltrans.o
                0x000000001ff5873a                sb_encoder_ctl
 .text.nb_encoder_ctl
                0x000000001ff5896c      0x26c C:\TMP\nn_denoise_rtc_sample.elf.t3mX4c.ltrans0.ltrans.o
                0x000000001ff5896c                nb_encoder_ctl
 .text.speex_notify.lto_priv.0.lto_priv.0
                0x000000001ff58bd8       0x1c C:\TMP\nn_denoise_rtc_sample.elf.t3mX4c.ltrans0.ltrans.o
                0x000000001ff58bd8                speex_notify.lto_priv.0.lto_priv.0
 .text.sb_decode
                0x000000001ff58bf4      0x5e2 C:\TMP\nn_denoise_rtc_sample.elf.t3mX4c.ltrans0.ltrans.o
                0x000000001ff58bf4                sb_decode
 .text.nb_decode
                0x000000001ff591d6      0xeb0 C:\TMP\nn_denoise_rtc_sample.elf.t3mX4c.ltrans0.ltrans.o
                0x000000001ff591d6                nb_decode
 .text.speex_alloc.lto_priv.0.lto_priv.0
                0x000000001ff5a086        0xe C:\TMP\nn_denoise_rtc_sample.elf.t3mX4c.ltrans0.ltrans.o
                0x000000001ff5a086                speex_alloc.lto_priv.0.lto_priv.0
 .text.sb_decoder_init
                0x000000001ff5a094       0xde C:\TMP\nn_denoise_rtc_sample.elf.t3mX4c.ltrans0.ltrans.o
                0x000000001ff5a094                sb_decoder_init
 .text.nb_decoder_init
                0x000000001ff5a172       0xd2 C:\TMP\nn_denoise_rtc_sample.elf.t3mX4c.ltrans0.ltrans.o
                0x000000001ff5a172                nb_decoder_init
 .text.xQueueGenericSend.constprop.0
                0x000000001ff5a244       0xe8 C:\TMP\nn_denoise_rtc_sample.elf.t3mX4c.ltrans0.ltrans.o
                0x000000001ff5a244                xQueueGenericSend.constprop.0
 .text.xQueueCreateMutex.constprop.0
                0x000000001ff5a32c       0x2c C:\TMP\nn_denoise_rtc_sample.elf.t3mX4c.ltrans0.ltrans.o
                0x000000001ff5a32c                xQueueCreateMutex.constprop.0
 .text.xTimerGenericCommand.constprop.0
                0x000000001ff5a358       0x2c C:\TMP\nn_denoise_rtc_sample.elf.t3mX4c.ltrans0.ltrans.o
                0x000000001ff5a358                xTimerGenericCommand.constprop.0
 .text.prompt_play_by_cmd_string.constprop.0
                0x000000001ff5a384       0x8c C:\TMP\nn_denoise_rtc_sample.elf.t3mX4c.ltrans0.ltrans.o
 .text.give_flash_sem.lto_priv.0
                0x000000001ff5a410       0x1c C:\TMP\nn_denoise_rtc_sample.elf.t3mX4c.ltrans0.ltrans.o
                0x000000001ff5a410                give_flash_sem.lto_priv.0
 .text.xStreamBufferReceive.constprop.0
                0x000000001ff5a42c       0xc6 C:\TMP\nn_denoise_rtc_sample.elf.t3mX4c.ltrans0.ltrans.o
                0x000000001ff5a42c                xStreamBufferReceive.constprop.0
 .text.IISDMA_ChannelIntENConfig.constprop.0
                0x000000001ff5a4f2       0x58 C:\TMP\nn_denoise_rtc_sample.elf.t3mX4c.ltrans0.ltrans.o
                0x000000001ff5a4f2                IISDMA_ChannelIntENConfig.constprop.0
 .text.cm_write_codec.constprop.0
                0x000000001ff5a54a       0x8e C:\TMP\nn_denoise_rtc_sample.elf.t3mX4c.ltrans0.ltrans.o
                0x000000001ff5a54a                cm_write_codec.constprop.0
 .text.cm_get_pcm_buffer.constprop.0
                0x000000001ff5a5d8       0x82 C:\TMP\nn_denoise_rtc_sample.elf.t3mX4c.ltrans0.ltrans.o
                0x000000001ff5a5d8                cm_get_pcm_buffer.constprop.0
 .text.iis_audio_choose.constprop.0
                0x000000001ff5a65a       0x98 C:\TMP\nn_denoise_rtc_sample.elf.t3mX4c.ltrans0.ltrans.o
                0x000000001ff5a65a                iis_audio_choose.constprop.0
 .text.rc_callee_alg_aes_type_tip
                0x000000001ff5a6f2       0x1e C:\TMP\nn_denoise_rtc_sample.elf.t3mX4c.ltrans0.ltrans.o
                0x000000001ff5a6f2                rc_callee_alg_aes_type_tip
 .text.rc_callee_npu_ifft_data_handle_in_host
                0x000000001ff5a710       0x8a C:\TMP\nn_denoise_rtc_sample.elf.t3mX4c.ltrans0.ltrans.o
                0x000000001ff5a710                rc_callee_npu_ifft_data_handle_in_host
 .text.rc_callee_free_in_host
                0x000000001ff5a79a       0x40 C:\TMP\nn_denoise_rtc_sample.elf.t3mX4c.ltrans0.ltrans.o
                0x000000001ff5a79a                rc_callee_free_in_host
 .text.mailbox_send_msg
                0x000000001ff5a7da       0xb8 C:\TMP\nn_denoise_rtc_sample.elf.t3mX4c.ltrans0.ltrans.o
                0x000000001ff5a7da                mailbox_send_msg
 .text.nuclear_com_send.constprop.0
                0x000000001ff5a892       0xb8 C:\TMP\nn_denoise_rtc_sample.elf.t3mX4c.ltrans0.ltrans.o
 .text.send_voice_info_to_audio_in_manage.constprop.0
                0x000000001ff5a94a       0x3a C:\TMP\nn_denoise_rtc_sample.elf.t3mX4c.ltrans0.ltrans.o
                0x000000001ff5a94a                send_voice_info_to_audio_in_manage.constprop.0
 .text.flash_manage_ept_cal_serve_rpmsg.lto_priv.0
                0x000000001ff5a984       0x1c C:\TMP\nn_denoise_rtc_sample.elf.t3mX4c.ltrans0.ltrans.o
                0x000000001ff5a984                flash_manage_ept_cal_serve_rpmsg.lto_priv.0
 .text.remote_call_task.lto_priv.0
                0x000000001ff5a9a0       0xfe C:\TMP\nn_denoise_rtc_sample.elf.t3mX4c.ltrans0.ltrans.o
                0x000000001ff5a9a0                remote_call_task.lto_priv.0
 .text.nuclear_com_irq_handler
                0x000000001ff5aa9e      0x176 C:\TMP\nn_denoise_rtc_sample.elf.t3mX4c.ltrans0.ltrans.o
                0x000000001ff5aa9e                nuclear_com_irq_handler
 .text.ulSynchTrap
                0x000000001ff5ac14      0x110 C:\TMP\nn_denoise_rtc_sample.elf.t3mX4c.ltrans0.ltrans.o
                0x000000001ff5ac14                ulSynchTrap
 .text.flash_manage_req_wait_op_done_sem
                0x000000001ff5ad24       0xca C:\TMP\nn_denoise_rtc_sample.elf.t3mX4c.ltrans0.ltrans.o
 .text.wait_flash_sem
                0x000000001ff5adee       0x3e C:\TMP\nn_denoise_rtc_sample.elf.t3mX4c.ltrans0.ltrans.o
 .text.post_erase_flash.constprop.0
                0x000000001ff5ae2c       0x70 C:\TMP\nn_denoise_rtc_sample.elf.t3mX4c.ltrans0.ltrans.o
                0x000000001ff5ae2c                post_erase_flash.constprop.0
 .text.post_spic_read_unique_id
                0x000000001ff5ae9c       0x36 C:\TMP\nn_denoise_rtc_sample.elf.t3mX4c.ltrans0.ltrans.o
 .text.post_write_flash
                0x000000001ff5aed2       0x3e C:\TMP\nn_denoise_rtc_sample.elf.t3mX4c.ltrans0.ltrans.o
                0x000000001ff5aed2                post_write_flash
 .text.post_read_flash
                0x000000001ff5af10       0x94 C:\TMP\nn_denoise_rtc_sample.elf.t3mX4c.ltrans0.ltrans.o
                0x000000001ff5af10                post_read_flash
 .text.write_item.constprop.0
                0x000000001ff5afa4      0x11c C:\TMP\nn_denoise_rtc_sample.elf.t3mX4c.ltrans0.ltrans.o
 .text.init_item.constprop.0
                0x000000001ff5b0c0       0xba C:\TMP\nn_denoise_rtc_sample.elf.t3mX4c.ltrans0.ltrans.o
                0x000000001ff5b0c0                init_item.constprop.0
 .text.rc_callee_flash_get_en_data
                0x000000001ff5b17a       0x1c C:\TMP\nn_denoise_rtc_sample.elf.t3mX4c.ltrans0.ltrans.o
                0x000000001ff5b17a                rc_callee_flash_get_en_data
 .text.decoder_rpmsg_serve_cb
                0x000000001ff5b196      0x2a4 C:\TMP\nn_denoise_rtc_sample.elf.t3mX4c.ltrans0.ltrans.o
                0x000000001ff5b196                decoder_rpmsg_serve_cb
 .text.asr_top_outside_serve_cb
                0x000000001ff5b43a       0x76 C:\TMP\nn_denoise_rtc_sample.elf.t3mX4c.ltrans0.ltrans.o
                0x000000001ff5b43a                asr_top_outside_serve_cb
 .text.sb_encoder_destroy
                0x000000001ff5b4b0       0x6c C:\TMP\nn_denoise_rtc_sample.elf.t3mX4c.ltrans0.ltrans.o
                0x000000001ff5b4b0                sb_encoder_destroy
 .text.sb_encoder_init
                0x000000001ff5b51c      0x166 C:\TMP\nn_denoise_rtc_sample.elf.t3mX4c.ltrans0.ltrans.o
                0x000000001ff5b51c                sb_encoder_init
 .text.nb_encoder_destroy
                0x000000001ff5b682       0x2e C:\TMP\nn_denoise_rtc_sample.elf.t3mX4c.ltrans0.ltrans.o
                0x000000001ff5b682                nb_encoder_destroy
 .text.nb_encoder_init
                0x000000001ff5b6b0       0xe8 C:\TMP\nn_denoise_rtc_sample.elf.t3mX4c.ltrans0.ltrans.o
                0x000000001ff5b6b0                nb_encoder_init
 .text.other_func_serve_cb
                0x000000001ff5b798       0x1a C:\TMP\nn_denoise_rtc_sample.elf.t3mX4c.ltrans1.ltrans.o
 .text.icodec_config
                0x000000001ff5b7b2      0x112 C:\TMP\nn_denoise_rtc_sample.elf.t3mX4c.ltrans1.ltrans.o
 .text.icodec_stop
                0x000000001ff5b8c4       0x20 C:\TMP\nn_denoise_rtc_sample.elf.t3mX4c.ltrans1.ltrans.o
 .text.inner_codec_adc_dig_gain_set
                0x000000001ff5b8e4       0x44 C:\TMP\nn_denoise_rtc_sample.elf.t3mX4c.ltrans1.ltrans.o
 .text.get_pga_gain_reg_data_from_db
                0x000000001ff5b928       0x3a C:\TMP\nn_denoise_rtc_sample.elf.t3mX4c.ltrans1.ltrans.o
 .text.icodec_ioctl
                0x000000001ff5b962       0xfe C:\TMP\nn_denoise_rtc_sample.elf.t3mX4c.ltrans1.ltrans.o
 .text.convert_left_and_right
                0x000000001ff5ba60        0x6 C:\TMP\nn_denoise_rtc_sample.elf.t3mX4c.ltrans1.ltrans.o
 .text.uart_dma_read_irq_callback
                0x000000001ff5ba66        0x8 C:\TMP\nn_denoise_rtc_sample.elf.t3mX4c.ltrans1.ltrans.o
 .text.prvInsertBlockIntoFreeList
                0x000000001ff5ba6e       0x42 C:\TMP\nn_denoise_rtc_sample.elf.t3mX4c.ltrans1.ltrans.o
 .text.prvResetNextTaskUnblockTime
                0x000000001ff5bab0       0x1e C:\TMP\nn_denoise_rtc_sample.elf.t3mX4c.ltrans1.ltrans.o
 .text.prvWriteBytesToBuffer
                0x000000001ff5bace       0x58 C:\TMP\nn_denoise_rtc_sample.elf.t3mX4c.ltrans1.ltrans.o
 .text.prvCopyDataFromQueue
                0x000000001ff5bb26       0x2c C:\TMP\nn_denoise_rtc_sample.elf.t3mX4c.ltrans1.ltrans.o
 .text.vListInsert
                0x000000001ff5bb52       0x2e C:\TMP\nn_denoise_rtc_sample.elf.t3mX4c.ltrans1.ltrans.o
 .text.prvInsertTimerInActiveList
                0x000000001ff5bb80       0x3e C:\TMP\nn_denoise_rtc_sample.elf.t3mX4c.ltrans1.ltrans.o
 .text.speex_bits_init
                0x000000001ff5bbbe       0x34 C:\TMP\nn_denoise_rtc_sample.elf.t3mX4c.ltrans1.ltrans.o
 .text.speex_warning
                0x000000001ff5bbf2       0x1c C:\TMP\nn_denoise_rtc_sample.elf.t3mX4c.ltrans1.ltrans.o
 .text.iis_clk_gate
                0x000000001ff5bc0e       0x50 C:\TMP\nn_denoise_rtc_sample.elf.t3mX4c.ltrans1.ltrans.o
 .text.pad_config_for_uart.part.0
                0x000000001ff5bc5e       0x20 C:\TMP\nn_denoise_rtc_sample.elf.t3mX4c.ltrans1.ltrans.o
 .text.pad_config_for_uart
                0x000000001ff5bc7e       0x54 C:\TMP\nn_denoise_rtc_sample.elf.t3mX4c.ltrans1.ltrans.o
 .text.audio_pre_rslt_write_data_from_uart
                0x000000001ff5bcd2      0x17a C:\TMP\nn_denoise_rtc_sample.elf.t3mX4c.ltrans1.ltrans.o
 .text.speex_bits_remaining
                0x000000001ff5be4c       0x16 C:\TMP\nn_denoise_rtc_sample.elf.t3mX4c.ltrans1.ltrans.o
                0x000000001ff5be4c                speex_bits_remaining
 .text.speex_bits_advance
                0x000000001ff5be62       0x2c C:\TMP\nn_denoise_rtc_sample.elf.t3mX4c.ltrans1.ltrans.o
                0x000000001ff5be62                speex_bits_advance
 .text.speex_bits_unpack_unsigned
                0x000000001ff5be8e       0x58 C:\TMP\nn_denoise_rtc_sample.elf.t3mX4c.ltrans1.ltrans.o
                0x000000001ff5be8e                speex_bits_unpack_unsigned
 .text.speex_bits_pack
                0x000000001ff5bee6       0xae C:\TMP\nn_denoise_rtc_sample.elf.t3mX4c.ltrans1.ltrans.o
                0x000000001ff5bee6                speex_bits_pack
 .text.UART0_IRQHandler
                0x000000001ff5bf94       0x80 C:\TMP\nn_denoise_rtc_sample.elf.t3mX4c.ltrans1.ltrans.o
                0x000000001ff5bf94                UART0_IRQHandler
 .text.get_src_clk
                0x000000001ff5c014        0xc C:\TMP\nn_denoise_rtc_sample.elf.t3mX4c.ltrans1.ltrans.o
                0x000000001ff5c014                get_src_clk
 .text.check_curr_trap
                0x000000001ff5c020        0xe C:\TMP\nn_denoise_rtc_sample.elf.t3mX4c.ltrans1.ltrans.o
                0x000000001ff5c020                check_curr_trap
 .text.eclic_set_irq_lvl_abs.lto_priv.0
                0x000000001ff5c02e       0x4a C:\TMP\nn_denoise_rtc_sample.elf.t3mX4c.ltrans1.ltrans.o
                0x000000001ff5c02e                eclic_set_irq_lvl_abs.lto_priv.0
 .text.init_irq_pri
                0x000000001ff5c078       0x22 C:\TMP\nn_denoise_rtc_sample.elf.t3mX4c.ltrans1.ltrans.o
 .text.write_feb_status.lto_priv.0
                0x000000001ff5c09a       0x4e C:\TMP\nn_denoise_rtc_sample.elf.t3mX4c.ltrans1.ltrans.o
                0x000000001ff5c09a                write_feb_status.lto_priv.0
 .text.write_item_status.lto_priv.0
                0x000000001ff5c0e8       0x7c C:\TMP\nn_denoise_rtc_sample.elf.t3mX4c.ltrans1.ltrans.o
                0x000000001ff5c0e8                write_item_status.lto_priv.0
 .text.hotid_update.lto_priv.0
                0x000000001ff5c164       0x1c C:\TMP\nn_denoise_rtc_sample.elf.t3mX4c.ltrans1.ltrans.o
                0x000000001ff5c164                hotid_update.lto_priv.0
 .text.traverse_feb.lto_priv.0
                0x000000001ff5c180      0x25a C:\TMP\nn_denoise_rtc_sample.elf.t3mX4c.ltrans1.ltrans.o
                0x000000001ff5c180                traverse_feb.lto_priv.0
 .text.find_item.lto_priv.0
                0x000000001ff5c3da       0x54 C:\TMP\nn_denoise_rtc_sample.elf.t3mX4c.ltrans1.ltrans.o
                0x000000001ff5c3da                find_item.lto_priv.0
 .text.erase_feb.lto_priv.0
                0x000000001ff5c42e       0x2e C:\TMP\nn_denoise_rtc_sample.elf.t3mX4c.ltrans1.ltrans.o
                0x000000001ff5c42e                erase_feb.lto_priv.0
 .text.ciss_set
                0x000000001ff5c45c       0x16 C:\TMP\nn_denoise_rtc_sample.elf.t3mX4c.ltrans1.ltrans.o
                0x000000001ff5c45c                ciss_set
 .text._printf  0x000000001ff5c472       0x76 C:\TMP\nn_denoise_rtc_sample.elf.t3mX4c.ltrans1.ltrans.o
                0x000000001ff5c472                _printf
 .text.UART2_IRQHandler
                0x000000001ff5c4e8       0xb0 C:\TMP\nn_denoise_rtc_sample.elf.t3mX4c.ltrans1.ltrans.o
                0x000000001ff5c4e8                UART2_IRQHandler
 .text.IIC0_IRQHandler
                0x000000001ff5c598      0x27a C:\TMP\nn_denoise_rtc_sample.elf.t3mX4c.ltrans1.ltrans.o
                0x000000001ff5c598                IIC0_IRQHandler
 .text.iis_wait_load_ctrl
                0x000000001ff5c812       0x38 C:\TMP\nn_denoise_rtc_sample.elf.t3mX4c.ltrans1.ltrans.o
 .text.IISxDMA_TADDR0.part.0
                0x000000001ff5c84a       0x2c C:\TMP\nn_denoise_rtc_sample.elf.t3mX4c.ltrans1.ltrans.o
 .text.IISDMA_ADDRRollBackINT.part.0
                0x000000001ff5c876       0x2c C:\TMP\nn_denoise_rtc_sample.elf.t3mX4c.ltrans1.ltrans.o
 .text.get_iis_dma_channel
                0x000000001ff5c8a2       0x58 C:\TMP\nn_denoise_rtc_sample.elf.t3mX4c.ltrans1.ltrans.o
 .text.init_iis.isra.0
                0x000000001ff5c8fa       0x8a C:\TMP\nn_denoise_rtc_sample.elf.t3mX4c.ltrans1.ltrans.o
 .text.cm_reg_codec.part.0
                0x000000001ff5c984      0x172 C:\TMP\nn_denoise_rtc_sample.elf.t3mX4c.ltrans1.ltrans.o
 .text.xTaskGetSchedulerState
                0x000000001ff5caf6       0x14 C:\TMP\nn_denoise_rtc_sample.elf.t3mX4c.ltrans1.ltrans.o
                0x000000001ff5caf6                xTaskGetSchedulerState
 .text.cinv_port_mutex_give
                0x000000001ff5cb0a       0x34 C:\TMP\nn_denoise_rtc_sample.elf.t3mX4c.ltrans1.ltrans.o
 .text.xTaskCheckForTimeOut
                0x000000001ff5cb3e       0x60 C:\TMP\nn_denoise_rtc_sample.elf.t3mX4c.ltrans1.ltrans.o
                0x000000001ff5cb3e                xTaskCheckForTimeOut
 .text.vTaskSuspendAll
                0x000000001ff5cb9e        0xc C:\TMP\nn_denoise_rtc_sample.elf.t3mX4c.ltrans1.ltrans.o
                0x000000001ff5cb9e                vTaskSuspendAll
 .text.prvBytesInBuffer.lto_priv.0
                0x000000001ff5cbaa       0x14 C:\TMP\nn_denoise_rtc_sample.elf.t3mX4c.ltrans1.ltrans.o
                0x000000001ff5cbaa                prvBytesInBuffer.lto_priv.0
 .text.prvReadBytesFromBuffer.lto_priv.0
                0x000000001ff5cbbe       0x5e C:\TMP\nn_denoise_rtc_sample.elf.t3mX4c.ltrans1.ltrans.o
                0x000000001ff5cbbe                prvReadBytesFromBuffer.lto_priv.0
 .text.uxListRemove
                0x000000001ff5cc1c       0x20 C:\TMP\nn_denoise_rtc_sample.elf.t3mX4c.ltrans1.ltrans.o
                0x000000001ff5cc1c                uxListRemove
 .text.prvSwitchTimerLists
                0x000000001ff5cc3c       0x62 C:\TMP\nn_denoise_rtc_sample.elf.t3mX4c.ltrans1.ltrans.o
 .text.vListInsertEnd
                0x000000001ff5cc9e       0x18 C:\TMP\nn_denoise_rtc_sample.elf.t3mX4c.ltrans1.ltrans.o
                0x000000001ff5cc9e                vListInsertEnd
 .text.prvAddCurrentTaskToDelayedList.lto_priv.0
                0x000000001ff5ccb6       0x70 C:\TMP\nn_denoise_rtc_sample.elf.t3mX4c.ltrans1.ltrans.o
                0x000000001ff5ccb6                prvAddCurrentTaskToDelayedList.lto_priv.0
 .text.vTaskPlaceOnEventList
                0x000000001ff5cd26       0x1c C:\TMP\nn_denoise_rtc_sample.elf.t3mX4c.ltrans1.ltrans.o
                0x000000001ff5cd26                vTaskPlaceOnEventList
 .text.xTaskRemoveFromEventList
                0x000000001ff5cd42       0x70 C:\TMP\nn_denoise_rtc_sample.elf.t3mX4c.ltrans1.ltrans.o
                0x000000001ff5cd42                xTaskRemoveFromEventList
 .text.prvUnlockQueue.lto_priv.0
                0x000000001ff5cdb2       0x7a C:\TMP\nn_denoise_rtc_sample.elf.t3mX4c.ltrans1.ltrans.o
                0x000000001ff5cdb2                prvUnlockQueue.lto_priv.0
 .text.xQueueReceiveFromISR
                0x000000001ff5ce2c       0x72 C:\TMP\nn_denoise_rtc_sample.elf.t3mX4c.ltrans1.ltrans.o
                0x000000001ff5ce2c                xQueueReceiveFromISR
 .text.cm_output_interrupt_handler
                0x000000001ff5ce9e       0xf6 C:\TMP\nn_denoise_rtc_sample.elf.t3mX4c.ltrans1.ltrans.o
 .text.xQueueGiveFromISR
                0x000000001ff5cf94       0x60 C:\TMP\nn_denoise_rtc_sample.elf.t3mX4c.ltrans1.ltrans.o
                0x000000001ff5cf94                xQueueGiveFromISR
 .text.cm_input_interrupt_handler
                0x000000001ff5cff4       0x7c C:\TMP\nn_denoise_rtc_sample.elf.t3mX4c.ltrans1.ltrans.o
 .text.IIS_DMA_IRQHandler
                0x000000001ff5d070      0x112 C:\TMP\nn_denoise_rtc_sample.elf.t3mX4c.ltrans1.ltrans.o
                0x000000001ff5d070                IIS_DMA_IRQHandler
 .text.xTaskIncrementTick
                0x000000001ff5d182       0xea C:\TMP\nn_denoise_rtc_sample.elf.t3mX4c.ltrans1.ltrans.o
                0x000000001ff5d182                xTaskIncrementTick
 .text.xTaskResumeAll
                0x000000001ff5d26c       0xbe C:\TMP\nn_denoise_rtc_sample.elf.t3mX4c.ltrans1.ltrans.o
                0x000000001ff5d26c                xTaskResumeAll
 .text.vPortFree
                0x000000001ff5d32a       0x4a C:\TMP\nn_denoise_rtc_sample.elf.t3mX4c.ltrans1.ltrans.o
                0x000000001ff5d32a                vPortFree
 .text.prvIdleTask
                0x000000001ff5d374       0x60 C:\TMP\nn_denoise_rtc_sample.elf.t3mX4c.ltrans1.ltrans.o
 .text.vQueueDelete
                0x000000001ff5d3d4       0x38 C:\TMP\nn_denoise_rtc_sample.elf.t3mX4c.ltrans1.ltrans.o
 .text.pvPortMalloc
                0x000000001ff5d40c       0xf2 C:\TMP\nn_denoise_rtc_sample.elf.t3mX4c.ltrans1.ltrans.o
                0x000000001ff5d40c                pvPortMalloc
 .text.realloc_buffer
                0x000000001ff5d4fe       0x3a C:\TMP\nn_denoise_rtc_sample.elf.t3mX4c.ltrans1.ltrans.o
 .text.get_file_addr
                0x000000001ff5d538       0xd2 C:\TMP\nn_denoise_rtc_sample.elf.t3mX4c.ltrans1.ltrans.o
 .text.get_current_model_addr
                0x000000001ff5d60a       0x8e C:\TMP\nn_denoise_rtc_sample.elf.t3mX4c.ltrans1.ltrans.o
                0x000000001ff5d60a                get_current_model_addr
 .text.flash_control_inner_serve_cb
                0x000000001ff5d698       0x76 C:\TMP\nn_denoise_rtc_sample.elf.t3mX4c.ltrans1.ltrans.o
 .text.prvListTasksWithinSingleList
                0x000000001ff5d70e       0xca C:\TMP\nn_denoise_rtc_sample.elf.t3mX4c.ltrans1.ltrans.o
 .text.vTaskDelay
                0x000000001ff5d7d8       0x24 C:\TMP\nn_denoise_rtc_sample.elf.t3mX4c.ltrans1.ltrans.o
 .text.speex_record_data_task
                0x000000001ff5d7fc      0x144 C:\TMP\nn_denoise_rtc_sample.elf.t3mX4c.ltrans1.ltrans.o
 .text.xStreamBufferSend
                0x000000001ff5d940      0x104 C:\TMP\nn_denoise_rtc_sample.elf.t3mX4c.ltrans1.ltrans.o
 .text.xQueueReceive
                0x000000001ff5da44       0xec C:\TMP\nn_denoise_rtc_sample.elf.t3mX4c.ltrans1.ltrans.o
                0x000000001ff5da44                xQueueReceive
 .text.prvTimerTask
                0x000000001ff5db30      0x1a8 C:\TMP\nn_denoise_rtc_sample.elf.t3mX4c.ltrans1.ltrans.o
 .text.xQueueSemaphoreTake
                0x000000001ff5dcd8      0x222 C:\TMP\nn_denoise_rtc_sample.elf.t3mX4c.ltrans1.ltrans.o
                0x000000001ff5dcd8                xQueueSemaphoreTake
 .text.cm_start_codec
                0x000000001ff5defa      0x1da C:\TMP\nn_denoise_rtc_sample.elf.t3mX4c.ltrans1.ltrans.o
 .text.speex_play_data_task
                0x000000001ff5e0d4       0xf2 C:\TMP\nn_denoise_rtc_sample.elf.t3mX4c.ltrans1.ltrans.o
 .text.audio_pre_rslt_write_data
                0x000000001ff5e1c6       0xee C:\TMP\nn_denoise_rtc_sample.elf.t3mX4c.ltrans1.ltrans.o
 .text.ifft_data_handle_task_rtc
                0x000000001ff5e2b4       0xae C:\TMP\nn_denoise_rtc_sample.elf.t3mX4c.ltrans1.ltrans.o
 .text.codec_manage_inner_serve_cb
                0x000000001ff5e362       0x9c C:\TMP\nn_denoise_rtc_sample.elf.t3mX4c.ltrans1.ltrans.o
 .text.cinv_port_mutex_take
                0x000000001ff5e3fe       0x32 C:\TMP\nn_denoise_rtc_sample.elf.t3mX4c.ltrans1.ltrans.o
 .text.uart_eq_param_cfg_task
                0x000000001ff5e430      0x5ea C:\TMP\nn_denoise_rtc_sample.elf.t3mX4c.ltrans1.ltrans.o
 .text.vListInitialise
                0x000000001ff5ea1a       0x14 C:\TMP\nn_denoise_rtc_sample.elf.t3mX4c.ltrans1.ltrans.o
                0x000000001ff5ea1a                vListInitialise
 .text.xQueueGenericCreate
                0x000000001ff5ea2e       0x74 C:\TMP\nn_denoise_rtc_sample.elf.t3mX4c.ltrans1.ltrans.o
                0x000000001ff5ea2e                xQueueGenericCreate
 .text.cm_config_pcm_buffer.part.0
                0x000000001ff5eaa2       0xfe C:\TMP\nn_denoise_rtc_sample.elf.t3mX4c.ltrans1.ltrans.o
 .text.xEventGroupSetBits
                0x000000001ff5eba0       0xbc C:\TMP\nn_denoise_rtc_sample.elf.t3mX4c.ltrans1.ltrans.o
                0x000000001ff5eba0                xEventGroupSetBits
 .text.vEventGroupSetBitsCallback
                0x000000001ff5ec5c        0xc C:\TMP\nn_denoise_rtc_sample.elf.t3mX4c.ltrans1.ltrans.o
                0x000000001ff5ec5c                vEventGroupSetBitsCallback
 .text.handle_trap
                0x000000001ff5ec68      0x11a C:\TMP\nn_denoise_rtc_sample.elf.t3mX4c.ltrans1.ltrans.o
                0x000000001ff5ec68                handle_trap
 .text._delay_10us_240M
                0x000000001ff5ed82       0x2e C:\TMP\nn_denoise_rtc_sample.elf.t3mX4c.ltrans1.ltrans.o
                0x000000001ff5ed82                _delay_10us_240M
 .text.UART_BAUDRATEConfig
                0x000000001ff5edb0      0x45e C:\TMP\nn_denoise_rtc_sample.elf.t3mX4c.ltrans1.ltrans.o
 .text.speex_recv_data_task
                0x000000001ff5f20e      0x210 C:\TMP\nn_denoise_rtc_sample.elf.t3mX4c.ltrans1.ltrans.o
 .text.GPIO_IRQ_Default_proc
                0x000000001ff5f41e       0xc0 C:\TMP\nn_denoise_rtc_sample.elf.t3mX4c.ltrans1.ltrans.o
 .text.AON_PC_IRQHandler
                0x000000001ff5f4de       0x12 C:\TMP\nn_denoise_rtc_sample.elf.t3mX4c.ltrans1.ltrans.o
                0x000000001ff5f4de                AON_PC_IRQHandler
 .text.PB_IRQHandler
                0x000000001ff5f4f0       0x12 C:\TMP\nn_denoise_rtc_sample.elf.t3mX4c.ltrans1.ltrans.o
                0x000000001ff5f4f0                PB_IRQHandler
 .text.PA_IRQHandler
                0x000000001ff5f502       0x12 C:\TMP\nn_denoise_rtc_sample.elf.t3mX4c.ltrans1.ltrans.o
                0x000000001ff5f502                PA_IRQHandler
 .text.inner_codec_dac_enable
                0x000000001ff5f514       0xa2 C:\TMP\nn_denoise_rtc_sample.elf.t3mX4c.ltrans1.ltrans.o
 .text.icodec_start
                0x000000001ff5f5b6       0x1a C:\TMP\nn_denoise_rtc_sample.elf.t3mX4c.ltrans1.ltrans.o
 .text.icodec_init
                0x000000001ff5f5d0      0x318 C:\TMP\nn_denoise_rtc_sample.elf.t3mX4c.ltrans1.ltrans.o
 .text.cm_config_codec.part.0
                0x000000001ff5f8e8      0x6b6 C:\TMP\nn_denoise_rtc_sample.elf.t3mX4c.ltrans1.ltrans.o
 .text.task_init
                0x000000001ff5ff9e     0x13cc C:\TMP\nn_denoise_rtc_sample.elf.t3mX4c.ltrans1.ltrans.o
 .text.audio_pre_rslt_out_play_card_init
                0x000000001ff6136a      0x17c C:\TMP\nn_denoise_rtc_sample.elf.t3mX4c.ltrans1.ltrans.o
 .text.audio_in_manage_inner_task_rtc
                0x000000001ff614e6       0xc2 C:\TMP\nn_denoise_rtc_sample.elf.t3mX4c.ltrans1.ltrans.o
 .text.AON_TIM_INT1_IRQHandler
                0x000000001ff615a8        0x2 C:\TMP\nn_denoise_rtc_sample.elf.t3mX4c.ltrans1.ltrans.o
                0x000000001ff615a8                AON_TIM_INT1_IRQHandler
 .text.IWDG_IRQHandler
                0x000000001ff615aa        0x2 C:\TMP\nn_denoise_rtc_sample.elf.t3mX4c.ltrans1.ltrans.o
                0x000000001ff615aa                IWDG_IRQHandler
 .text.AON_TIM_INT0_IRQHandler
                0x000000001ff615ac        0x2 C:\TMP\nn_denoise_rtc_sample.elf.t3mX4c.ltrans1.ltrans.o
                0x000000001ff615ac                AON_TIM_INT0_IRQHandler
 .text.EXT1_IRQHandler
                0x000000001ff615ae        0x2 C:\TMP\nn_denoise_rtc_sample.elf.t3mX4c.ltrans1.ltrans.o
                0x000000001ff615ae                EXT1_IRQHandler
 .text.EXT0_IRQHandler
                0x000000001ff615b0        0x2 C:\TMP\nn_denoise_rtc_sample.elf.t3mX4c.ltrans1.ltrans.o
                0x000000001ff615b0                EXT0_IRQHandler
 .text.VDT_IRQHandler
                0x000000001ff615b2        0x2 C:\TMP\nn_denoise_rtc_sample.elf.t3mX4c.ltrans1.ltrans.o
                0x000000001ff615b2                VDT_IRQHandler
 .text.V11_OK_IRQHandler
                0x000000001ff615b4        0x2 C:\TMP\nn_denoise_rtc_sample.elf.t3mX4c.ltrans1.ltrans.o
                0x000000001ff615b4                V11_OK_IRQHandler
 .text.DTR_IRQHandler
                0x000000001ff615b6        0x2 C:\TMP\nn_denoise_rtc_sample.elf.t3mX4c.ltrans1.ltrans.o
                0x000000001ff615b6                DTR_IRQHandler
 .text.PDM_IRQHandler
                0x000000001ff615b8        0x2 C:\TMP\nn_denoise_rtc_sample.elf.t3mX4c.ltrans1.ltrans.o
                0x000000001ff615b8                PDM_IRQHandler
 .text.ALC_IRQHandler
                0x000000001ff615ba        0x2 C:\TMP\nn_denoise_rtc_sample.elf.t3mX4c.ltrans1.ltrans.o
                0x000000001ff615ba                ALC_IRQHandler
 .text.IIS2_IRQHandler
                0x000000001ff615bc        0x2 C:\TMP\nn_denoise_rtc_sample.elf.t3mX4c.ltrans1.ltrans.o
                0x000000001ff615bc                IIS2_IRQHandler
 .text.IIS1_IRQHandler
                0x000000001ff615be        0x2 C:\TMP\nn_denoise_rtc_sample.elf.t3mX4c.ltrans1.ltrans.o
                0x000000001ff615be                IIS1_IRQHandler
 .text.IIS0_IRQHandler
                0x000000001ff615c0        0x2 C:\TMP\nn_denoise_rtc_sample.elf.t3mX4c.ltrans1.ltrans.o
                0x000000001ff615c0                IIS0_IRQHandler
 .text.UART1_IRQHandler
                0x000000001ff615c2        0x2 C:\TMP\nn_denoise_rtc_sample.elf.t3mX4c.ltrans1.ltrans.o
                0x000000001ff615c2                UART1_IRQHandler
 .text.TIMER3_IRQHandler
                0x000000001ff615c4        0x2 C:\TMP\nn_denoise_rtc_sample.elf.t3mX4c.ltrans1.ltrans.o
                0x000000001ff615c4                TIMER3_IRQHandler
 .text.TIMER2_IRQHandler
                0x000000001ff615c6        0x2 C:\TMP\nn_denoise_rtc_sample.elf.t3mX4c.ltrans1.ltrans.o
                0x000000001ff615c6                TIMER2_IRQHandler
 .text.TIMER1_IRQHandler
                0x000000001ff615c8        0x2 C:\TMP\nn_denoise_rtc_sample.elf.t3mX4c.ltrans1.ltrans.o
                0x000000001ff615c8                TIMER1_IRQHandler
 .text.TIMER0_IRQHandler
                0x000000001ff615ca        0x2 C:\TMP\nn_denoise_rtc_sample.elf.t3mX4c.ltrans1.ltrans.o
                0x000000001ff615ca                TIMER0_IRQHandler
 .text.DMA_IRQHandler
                0x000000001ff615cc       0x40 C:\TMP\nn_denoise_rtc_sample.elf.t3mX4c.ltrans1.ltrans.o
                0x000000001ff615cc                DMA_IRQHandler
 .text.ADC_IRQHandler
                0x000000001ff6160c        0x2 C:\TMP\nn_denoise_rtc_sample.elf.t3mX4c.ltrans1.ltrans.o
                0x000000001ff6160c                ADC_IRQHandler
 .text.NPU_IRQHandler
                0x000000001ff6160e        0x2 C:\TMP\nn_denoise_rtc_sample.elf.t3mX4c.ltrans1.ltrans.o
                0x000000001ff6160e                NPU_IRQHandler
 .text.SCU_IRQHandler
                0x000000001ff61610        0x2 C:\TMP\nn_denoise_rtc_sample.elf.t3mX4c.ltrans1.ltrans.o
                0x000000001ff61610                SCU_IRQHandler
 .text.TWDG_IRQHandler
                0x000000001ff61612        0x2 C:\TMP\nn_denoise_rtc_sample.elf.t3mX4c.ltrans1.ltrans.o
                0x000000001ff61612                TWDG_IRQHandler
 .text._fini    0x000000001ff61614        0x2 C:\TMP\nn_denoise_rtc_sample.elf.t3mX4c.ltrans1.ltrans.o
                0x000000001ff61614                _fini
 .text._init    0x000000001ff61616       0xc0 C:\TMP\nn_denoise_rtc_sample.elf.t3mX4c.ltrans1.ltrans.o
                0x000000001ff61616                _init
 .text.sbrk     0x000000001ff616d6       0x6e ../../../libs\libnewlib_port.a(sbrk.o)
                0x000000001ff616d6                sbrk
 .text.get_heap_bytes_remaining_size
                0x000000001ff61744        0x6 ../../../libs\libnewlib_port.a(sbrk.o)
                0x000000001ff61744                get_heap_bytes_remaining_size
 .text._sbrk    0x000000001ff6174a        0xc ../../../libs\libnewlib_port.a(sbrk.o)
                0x000000001ff6174a                _sbrk
 .text.__malloc_lock
                0x000000001ff61756        0xa ../../../libs\libnewlib_port.a(sbrk.o)
                0x000000001ff61756                __malloc_lock
 .text.__malloc_unlock
                0x000000001ff61760        0xa ../../../libs\libnewlib_port.a(sbrk.o)
                0x000000001ff61760                __malloc_unlock
 .text.__wrap_memcmp
                0x000000001ff6176a        0xe ../../../libs\libnewlib_port.a(sbrk.o)
                0x000000001ff6176a                __wrap_memcmp
 .text.__wrap_memcpy
                0x000000001ff61778        0xe ../../../libs\libnewlib_port.a(sbrk.o)
                0x000000001ff61778                __wrap_memcpy
 .text.__wrap_memmove
                0x000000001ff61786        0xe ../../../libs\libnewlib_port.a(sbrk.o)
                0x000000001ff61786                __wrap_memmove
 .text.__wrap_memset
                0x000000001ff61794        0xe ../../../libs\libnewlib_port.a(sbrk.o)
                0x000000001ff61794                __wrap_memset
 .text.__wrap_strcmp
                0x000000001ff617a2        0xe ../../../libs\libnewlib_port.a(sbrk.o)
                0x000000001ff617a2                __wrap_strcmp
 .text.__wrap_malloc
                0x000000001ff617b0       0x10 ../../../libs\libnewlib_port.a(sbrk.o)
                0x000000001ff617b0                __wrap_malloc
 .text.__wrap_free
                0x000000001ff617c0       0x10 ../../../libs\libnewlib_port.a(sbrk.o)
                0x000000001ff617c0                __wrap_free
 .text.__wrap_fabsf
                0x000000001ff617d0       0x10 ../../../libs\libnewlib_port.a(sbrk.o)
                0x000000001ff617d0                __wrap_fabsf
 *fill*         0x000000001ff617e0       0x20 
 .text.entry    0x000000001ff61800      0x5f4 ../../../libs\libfreertos_port.a(portasm.o)
                0x000000001ff61800                trap_entry
                0x000000001ff618f0                irq_entry
                0x000000001ff61a64                eclic_mtip_handler
                0x000000001ff61b24                eclic_msip_handler
                0x000000001ff61c00                vPortYield_from_ulSynchTrap
                0x000000001ff61c40                vPortYield
                0x000000001ff61d70                xPortStartScheduler
                0x000000001ff61de0                vPortEndScheduler
 .text          0x000000001ff61df4       0x60 d:/software/yuyin/qiqiyinqiluntai/riscv-nuclei-elf-gcc-9.2.0.0/gcc_fix_raissrc/bin/../lib/gcc/riscv-nuclei-elf/9.2.0/rv32imafc/ilp32f\libgcc.a(save-restore.o)
                0x000000001ff61df4                __riscv_save_12
                0x000000001ff61dfc                __riscv_save_9
                0x000000001ff61dfc                __riscv_save_11
                0x000000001ff61dfc                __riscv_save_10
                0x000000001ff61dfc                __riscv_save_8
                0x000000001ff61e0a                __riscv_save_4
                0x000000001ff61e0a                __riscv_save_6
                0x000000001ff61e0a                __riscv_save_5
                0x000000001ff61e0a                __riscv_save_7
                0x000000001ff61e24                __riscv_save_3
                0x000000001ff61e24                __riscv_save_2
                0x000000001ff61e24                __riscv_save_1
                0x000000001ff61e24                __riscv_save_0
                0x000000001ff61e30                __riscv_restore_12
                0x000000001ff61e34                __riscv_restore_11
                0x000000001ff61e34                __riscv_restore_9
                0x000000001ff61e34                __riscv_restore_10
                0x000000001ff61e34                __riscv_restore_8
                0x000000001ff61e3e                __riscv_restore_5
                0x000000001ff61e3e                __riscv_restore_7
                0x000000001ff61e3e                __riscv_restore_6
                0x000000001ff61e3e                __riscv_restore_4
                0x000000001ff61e48                __riscv_restore_3
                0x000000001ff61e48                __riscv_restore_0
                0x000000001ff61e48                __riscv_restore_2
                0x000000001ff61e48                __riscv_restore_1
 .text          0x000000001ff61e54      0x8a8 d:/software/yuyin/qiqiyinqiluntai/riscv-nuclei-elf-gcc-9.2.0.0/gcc_fix_raissrc/bin/../lib/gcc/riscv-nuclei-elf/9.2.0/rv32imafc/ilp32f\libgcc.a(adddf3.o)
                0x000000001ff61e54                __adddf3
 .text          0x000000001ff626fc      0x694 d:/software/yuyin/qiqiyinqiluntai/riscv-nuclei-elf-gcc-9.2.0.0/gcc_fix_raissrc/bin/../lib/gcc/riscv-nuclei-elf/9.2.0/rv32imafc/ilp32f\libgcc.a(divdf3.o)
                0x000000001ff626fc                __divdf3
 .text          0x000000001ff62d90       0xa2 d:/software/yuyin/qiqiyinqiluntai/riscv-nuclei-elf-gcc-9.2.0.0/gcc_fix_raissrc/bin/../lib/gcc/riscv-nuclei-elf/9.2.0/rv32imafc/ilp32f\libgcc.a(eqdf2.o)
                0x000000001ff62d90                __nedf2
                0x000000001ff62d90                __eqdf2
 .text          0x000000001ff62e32       0xae d:/software/yuyin/qiqiyinqiluntai/riscv-nuclei-elf-gcc-9.2.0.0/gcc_fix_raissrc/bin/../lib/gcc/riscv-nuclei-elf/9.2.0/rv32imafc/ilp32f\libgcc.a(gedf2.o)
                0x000000001ff62e32                __gedf2
                0x000000001ff62e32                __gtdf2
 .text          0x000000001ff62ee0       0xae d:/software/yuyin/qiqiyinqiluntai/riscv-nuclei-elf-gcc-9.2.0.0/gcc_fix_raissrc/bin/../lib/gcc/riscv-nuclei-elf/9.2.0/rv32imafc/ilp32f\libgcc.a(ledf2.o)
                0x000000001ff62ee0                __ledf2
                0x000000001ff62ee0                __ltdf2
 .text          0x000000001ff62f8e      0x5a4 d:/software/yuyin/qiqiyinqiluntai/riscv-nuclei-elf-gcc-9.2.0.0/gcc_fix_raissrc/bin/../lib/gcc/riscv-nuclei-elf/9.2.0/rv32imafc/ilp32f\libgcc.a(muldf3.o)
                0x000000001ff62f8e                __muldf3
 .text          0x000000001ff63532      0x8c4 d:/software/yuyin/qiqiyinqiluntai/riscv-nuclei-elf-gcc-9.2.0.0/gcc_fix_raissrc/bin/../lib/gcc/riscv-nuclei-elf/9.2.0/rv32imafc/ilp32f\libgcc.a(subdf3.o)
                0x000000001ff63532                __subdf3
 .text          0x000000001ff63df6       0x76 d:/software/yuyin/qiqiyinqiluntai/riscv-nuclei-elf-gcc-9.2.0.0/gcc_fix_raissrc/bin/../lib/gcc/riscv-nuclei-elf/9.2.0/rv32imafc/ilp32f\libgcc.a(unorddf2.o)
                0x000000001ff63df6                __unorddf2
 .text          0x000000001ff63e6c       0xc4 d:/software/yuyin/qiqiyinqiluntai/riscv-nuclei-elf-gcc-9.2.0.0/gcc_fix_raissrc/bin/../lib/gcc/riscv-nuclei-elf/9.2.0/rv32imafc/ilp32f\libgcc.a(fixdfsi.o)
                0x000000001ff63e6c                __fixdfsi
 .text          0x000000001ff63f30       0x68 d:/software/yuyin/qiqiyinqiluntai/riscv-nuclei-elf-gcc-9.2.0.0/gcc_fix_raissrc/bin/../lib/gcc/riscv-nuclei-elf/9.2.0/rv32imafc/ilp32f\libgcc.a(floatsidf.o)
                0x000000001ff63f30                __floatsidf
 .text          0x000000001ff63f98       0xbc d:/software/yuyin/qiqiyinqiluntai/riscv-nuclei-elf-gcc-9.2.0.0/gcc_fix_raissrc/bin/../lib/gcc/riscv-nuclei-elf/9.2.0/rv32imafc/ilp32f\libgcc.a(extendsfdf2.o)
                0x000000001ff63f98                __extendsfdf2
 .text          0x000000001ff64054      0x20e d:/software/yuyin/qiqiyinqiluntai/riscv-nuclei-elf-gcc-9.2.0.0/gcc_fix_raissrc/bin/../lib/gcc/riscv-nuclei-elf/9.2.0/rv32imafc/ilp32f\libgcc.a(truncdfsf2.o)
                0x000000001ff64054                __truncdfsf2
 .text          0x000000001ff64262       0x3c d:/software/yuyin/qiqiyinqiluntai/riscv-nuclei-elf-gcc-9.2.0.0/gcc_fix_raissrc/bin/../lib/gcc/riscv-nuclei-elf/9.2.0/rv32imafc/ilp32f\libgcc.a(_clzsi2.o)
                0x000000001ff64262                __clzsi2
 .text.atexit   0x000000001ff6429e        0xa d:/software/yuyin/qiqiyinqiluntai/riscv-nuclei-elf-gcc-9.2.0.0/gcc_fix_raissrc/bin/../lib/gcc/riscv-nuclei-elf/9.2.0/../../../../riscv-nuclei-elf/lib/rv32imafc/ilp32f\libg_nano.a(lib_a-atexit.o)
                0x000000001ff6429e                atexit
 .text.exit     0x000000001ff642a8       0x26 d:/software/yuyin/qiqiyinqiluntai/riscv-nuclei-elf-gcc-9.2.0.0/gcc_fix_raissrc/bin/../lib/gcc/riscv-nuclei-elf/9.2.0/../../../../riscv-nuclei-elf/lib/rv32imafc/ilp32f\libg_nano.a(lib_a-exit.o)
                0x000000001ff642a8                exit
 .text.__libc_fini_array
                0x000000001ff642ce       0x3a d:/software/yuyin/qiqiyinqiluntai/riscv-nuclei-elf-gcc-9.2.0.0/gcc_fix_raissrc/bin/../lib/gcc/riscv-nuclei-elf/9.2.0/../../../../riscv-nuclei-elf/lib/rv32imafc/ilp32f\libg_nano.a(lib_a-fini.o)
                0x000000001ff642ce                __libc_fini_array
 .text.__libc_init_array
                0x000000001ff64308       0x6e d:/software/yuyin/qiqiyinqiluntai/riscv-nuclei-elf-gcc-9.2.0.0/gcc_fix_raissrc/bin/../lib/gcc/riscv-nuclei-elf/9.2.0/../../../../riscv-nuclei-elf/lib/rv32imafc/ilp32f\libg_nano.a(lib_a-init.o)
                0x000000001ff64308                __libc_init_array
 .text.__register_exitproc
                0x000000001ff64376       0x7c d:/software/yuyin/qiqiyinqiluntai/riscv-nuclei-elf-gcc-9.2.0.0/gcc_fix_raissrc/bin/../lib/gcc/riscv-nuclei-elf/9.2.0/../../../../riscv-nuclei-elf/lib/rv32imafc/ilp32f\libg_nano.a(lib_a-__atexit.o)
                0x000000001ff64376                __register_exitproc
 .text.__call_exitprocs
                0x000000001ff643f2       0xc4 d:/software/yuyin/qiqiyinqiluntai/riscv-nuclei-elf-gcc-9.2.0.0/gcc_fix_raissrc/bin/../lib/gcc/riscv-nuclei-elf/9.2.0/../../../../riscv-nuclei-elf/lib/rv32imafc/ilp32f\libg_nano.a(lib_a-__call_atexit.o)
                0x000000001ff643f2                __call_exitprocs
 .text.calloc   0x000000001ff644b6        0xa d:/software/yuyin/qiqiyinqiluntai/riscv-nuclei-elf-gcc-9.2.0.0/gcc_fix_raissrc/bin/../lib/gcc/riscv-nuclei-elf/9.2.0/../../../../riscv-nuclei-elf/lib/rv32imafc/ilp32f\libg_nano.a(lib_a-calloc.o)
                0x000000001ff644b6                calloc
 .text.fprintf  0x000000001ff644c0       0x24 d:/software/yuyin/qiqiyinqiluntai/riscv-nuclei-elf-gcc-9.2.0.0/gcc_fix_raissrc/bin/../lib/gcc/riscv-nuclei-elf/9.2.0/../../../../riscv-nuclei-elf/lib/rv32imafc/ilp32f\libg_nano.a(lib_a-fprintf.o)
                0x000000001ff644c0                fiprintf
                0x000000001ff644c0                fprintf
 .text._calloc_r
                0x000000001ff644e4       0x26 d:/software/yuyin/qiqiyinqiluntai/riscv-nuclei-elf-gcc-9.2.0.0/gcc_fix_raissrc/bin/../lib/gcc/riscv-nuclei-elf/9.2.0/../../../../riscv-nuclei-elf/lib/rv32imafc/ilp32f\libg_nano.a(lib_a-nano-callocr.o)
                0x000000001ff644e4                _calloc_r
 .text._malloc_r
                0x000000001ff6450a       0xd8 d:/software/yuyin/qiqiyinqiluntai/riscv-nuclei-elf-gcc-9.2.0.0/gcc_fix_raissrc/bin/../lib/gcc/riscv-nuclei-elf/9.2.0/../../../../riscv-nuclei-elf/lib/rv32imafc/ilp32f\libg_nano.a(lib_a-nano-mallocr.o)
                0x000000001ff6450a                _malloc_r
 .text.__sfputc_r
                0x000000001ff645e2       0x28 d:/software/yuyin/qiqiyinqiluntai/riscv-nuclei-elf-gcc-9.2.0.0/gcc_fix_raissrc/bin/../lib/gcc/riscv-nuclei-elf/9.2.0/../../../../riscv-nuclei-elf/lib/rv32imafc/ilp32f\libg_nano.a(lib_a-nano-vfprintf.o)
 .text.__sfputs_r
                0x000000001ff6460a       0x44 d:/software/yuyin/qiqiyinqiluntai/riscv-nuclei-elf-gcc-9.2.0.0/gcc_fix_raissrc/bin/../lib/gcc/riscv-nuclei-elf/9.2.0/../../../../riscv-nuclei-elf/lib/rv32imafc/ilp32f\libg_nano.a(lib_a-nano-vfprintf.o)
                0x000000001ff6460a                __sfputs_r
 .text._vfprintf_r
                0x000000001ff6464e      0x2a0 d:/software/yuyin/qiqiyinqiluntai/riscv-nuclei-elf-gcc-9.2.0.0/gcc_fix_raissrc/bin/../lib/gcc/riscv-nuclei-elf/9.2.0/../../../../riscv-nuclei-elf/lib/rv32imafc/ilp32f\libg_nano.a(lib_a-nano-vfprintf.o)
                0x000000001ff6464e                _vfprintf_r
                0x000000001ff6464e                _vfiprintf_r
 .text.realloc  0x000000001ff648ee        0xc d:/software/yuyin/qiqiyinqiluntai/riscv-nuclei-elf-gcc-9.2.0.0/gcc_fix_raissrc/bin/../lib/gcc/riscv-nuclei-elf/9.2.0/../../../../riscv-nuclei-elf/lib/rv32imafc/ilp32f\libg_nano.a(lib_a-realloc.o)
                0x000000001ff648ee                realloc
 .text._sbrk_r  0x000000001ff648fa       0x30 d:/software/yuyin/qiqiyinqiluntai/riscv-nuclei-elf-gcc-9.2.0.0/gcc_fix_raissrc/bin/../lib/gcc/riscv-nuclei-elf/9.2.0/../../../../riscv-nuclei-elf/lib/rv32imafc/ilp32f\libg_nano.a(lib_a-sbrkr.o)
                0x000000001ff648fa                _sbrk_r
 .text.__swbuf_r
                0x000000001ff6492a       0xc0 d:/software/yuyin/qiqiyinqiluntai/riscv-nuclei-elf-gcc-9.2.0.0/gcc_fix_raissrc/bin/../lib/gcc/riscv-nuclei-elf/9.2.0/../../../../riscv-nuclei-elf/lib/rv32imafc/ilp32f\libg_nano.a(lib_a-wbuf.o)
                0x000000001ff6492a                __swbuf_r
 .text.__swsetup_r
                0x000000001ff649ea      0x106 d:/software/yuyin/qiqiyinqiluntai/riscv-nuclei-elf-gcc-9.2.0.0/gcc_fix_raissrc/bin/../lib/gcc/riscv-nuclei-elf/9.2.0/../../../../riscv-nuclei-elf/lib/rv32imafc/ilp32f\libg_nano.a(lib_a-wsetup.o)
                0x000000001ff649ea                __swsetup_r
 .text.__sflush_r
                0x000000001ff64af0      0x14a d:/software/yuyin/qiqiyinqiluntai/riscv-nuclei-elf-gcc-9.2.0.0/gcc_fix_raissrc/bin/../lib/gcc/riscv-nuclei-elf/9.2.0/../../../../riscv-nuclei-elf/lib/rv32imafc/ilp32f\libg_nano.a(lib_a-fflush.o)
                0x000000001ff64af0                __sflush_r
 .text._fflush_r
                0x000000001ff64c3a       0x66 d:/software/yuyin/qiqiyinqiluntai/riscv-nuclei-elf-gcc-9.2.0.0/gcc_fix_raissrc/bin/../lib/gcc/riscv-nuclei-elf/9.2.0/../../../../riscv-nuclei-elf/lib/rv32imafc/ilp32f\libg_nano.a(lib_a-fflush.o)
                0x000000001ff64c3a                _fflush_r
 .text.std      0x000000001ff64ca0       0x6a d:/software/yuyin/qiqiyinqiluntai/riscv-nuclei-elf-gcc-9.2.0.0/gcc_fix_raissrc/bin/../lib/gcc/riscv-nuclei-elf/9.2.0/../../../../riscv-nuclei-elf/lib/rv32imafc/ilp32f\libg_nano.a(lib_a-findfp.o)
 .text._cleanup_r
                0x000000001ff64d0a        0xa d:/software/yuyin/qiqiyinqiluntai/riscv-nuclei-elf-gcc-9.2.0.0/gcc_fix_raissrc/bin/../lib/gcc/riscv-nuclei-elf/9.2.0/../../../../riscv-nuclei-elf/lib/rv32imafc/ilp32f\libg_nano.a(lib_a-findfp.o)
                0x000000001ff64d0a                _cleanup_r
 .text.__sfmoreglue
                0x000000001ff64d14       0x48 d:/software/yuyin/qiqiyinqiluntai/riscv-nuclei-elf-gcc-9.2.0.0/gcc_fix_raissrc/bin/../lib/gcc/riscv-nuclei-elf/9.2.0/../../../../riscv-nuclei-elf/lib/rv32imafc/ilp32f\libg_nano.a(lib_a-findfp.o)
                0x000000001ff64d14                __sfmoreglue
 .text.__sinit  0x000000001ff64d5c       0x6c d:/software/yuyin/qiqiyinqiluntai/riscv-nuclei-elf-gcc-9.2.0.0/gcc_fix_raissrc/bin/../lib/gcc/riscv-nuclei-elf/9.2.0/../../../../riscv-nuclei-elf/lib/rv32imafc/ilp32f\libg_nano.a(lib_a-findfp.o)
                0x000000001ff64d5c                __sinit
 .text.__sfp    0x000000001ff64dc8       0x9e d:/software/yuyin/qiqiyinqiluntai/riscv-nuclei-elf-gcc-9.2.0.0/gcc_fix_raissrc/bin/../lib/gcc/riscv-nuclei-elf/9.2.0/../../../../riscv-nuclei-elf/lib/rv32imafc/ilp32f\libg_nano.a(lib_a-findfp.o)
                0x000000001ff64dc8                __sfp
 .text._fwalk_reent
                0x000000001ff64e66       0x6a d:/software/yuyin/qiqiyinqiluntai/riscv-nuclei-elf-gcc-9.2.0.0/gcc_fix_raissrc/bin/../lib/gcc/riscv-nuclei-elf/9.2.0/../../../../riscv-nuclei-elf/lib/rv32imafc/ilp32f\libg_nano.a(lib_a-fwalk.o)
                0x000000001ff64e66                _fwalk_reent
 .text.__swhatbuf_r
                0x000000001ff64ed0       0x5a d:/software/yuyin/qiqiyinqiluntai/riscv-nuclei-elf-gcc-9.2.0.0/gcc_fix_raissrc/bin/../lib/gcc/riscv-nuclei-elf/9.2.0/../../../../riscv-nuclei-elf/lib/rv32imafc/ilp32f\libg_nano.a(lib_a-makebuf.o)
                0x000000001ff64ed0                __swhatbuf_r
 .text.__smakebuf_r
                0x000000001ff64f2a       0xa0 d:/software/yuyin/qiqiyinqiluntai/riscv-nuclei-elf-gcc-9.2.0.0/gcc_fix_raissrc/bin/../lib/gcc/riscv-nuclei-elf/9.2.0/../../../../riscv-nuclei-elf/lib/rv32imafc/ilp32f\libg_nano.a(lib_a-makebuf.o)
                0x000000001ff64f2a                __smakebuf_r
 .text.memchr   0x000000001ff64fca       0x1a d:/software/yuyin/qiqiyinqiluntai/riscv-nuclei-elf-gcc-9.2.0.0/gcc_fix_raissrc/bin/../lib/gcc/riscv-nuclei-elf/9.2.0/../../../../riscv-nuclei-elf/lib/rv32imafc/ilp32f\libg_nano.a(lib_a-memchr.o)
                0x000000001ff64fca                memchr
 .text._free_r  0x000000001ff64fe4       0xa6 d:/software/yuyin/qiqiyinqiluntai/riscv-nuclei-elf-gcc-9.2.0.0/gcc_fix_raissrc/bin/../lib/gcc/riscv-nuclei-elf/9.2.0/../../../../riscv-nuclei-elf/lib/rv32imafc/ilp32f\libg_nano.a(lib_a-nano-freer.o)
                0x000000001ff64fe4                _free_r
 .text._realloc_r
                0x000000001ff6508a       0x64 d:/software/yuyin/qiqiyinqiluntai/riscv-nuclei-elf-gcc-9.2.0.0/gcc_fix_raissrc/bin/../lib/gcc/riscv-nuclei-elf/9.2.0/../../../../riscv-nuclei-elf/lib/rv32imafc/ilp32f\libg_nano.a(lib_a-nano-reallocr.o)
                0x000000001ff6508a                _realloc_r
 .text._printf_common
                0x000000001ff650ee      0x10c d:/software/yuyin/qiqiyinqiluntai/riscv-nuclei-elf-gcc-9.2.0.0/gcc_fix_raissrc/bin/../lib/gcc/riscv-nuclei-elf/9.2.0/../../../../riscv-nuclei-elf/lib/rv32imafc/ilp32f\libg_nano.a(lib_a-nano-vfprintf_i.o)
                0x000000001ff650ee                _printf_common
 .text._printf_i
                0x000000001ff651fa      0x276 d:/software/yuyin/qiqiyinqiluntai/riscv-nuclei-elf-gcc-9.2.0.0/gcc_fix_raissrc/bin/../lib/gcc/riscv-nuclei-elf/9.2.0/../../../../riscv-nuclei-elf/lib/rv32imafc/ilp32f\libg_nano.a(lib_a-nano-vfprintf_i.o)
                0x000000001ff651fa                _printf_i
 .text.__sread  0x000000001ff65470       0x30 d:/software/yuyin/qiqiyinqiluntai/riscv-nuclei-elf-gcc-9.2.0.0/gcc_fix_raissrc/bin/../lib/gcc/riscv-nuclei-elf/9.2.0/../../../../riscv-nuclei-elf/lib/rv32imafc/ilp32f\libg_nano.a(lib_a-stdio.o)
                0x000000001ff65470                __sread
 .text.__swrite
                0x000000001ff654a0       0x4e d:/software/yuyin/qiqiyinqiluntai/riscv-nuclei-elf-gcc-9.2.0.0/gcc_fix_raissrc/bin/../lib/gcc/riscv-nuclei-elf/9.2.0/../../../../riscv-nuclei-elf/lib/rv32imafc/ilp32f\libg_nano.a(lib_a-stdio.o)
                0x000000001ff654a0                __swrite
 .text.__sseek  0x000000001ff654ee       0x36 d:/software/yuyin/qiqiyinqiluntai/riscv-nuclei-elf-gcc-9.2.0.0/gcc_fix_raissrc/bin/../lib/gcc/riscv-nuclei-elf/9.2.0/../../../../riscv-nuclei-elf/lib/rv32imafc/ilp32f\libg_nano.a(lib_a-stdio.o)
                0x000000001ff654ee                __sseek
 .text.__sclose
                0x000000001ff65524        0x6 d:/software/yuyin/qiqiyinqiluntai/riscv-nuclei-elf-gcc-9.2.0.0/gcc_fix_raissrc/bin/../lib/gcc/riscv-nuclei-elf/9.2.0/../../../../riscv-nuclei-elf/lib/rv32imafc/ilp32f\libg_nano.a(lib_a-stdio.o)
                0x000000001ff65524                __sclose
 .text._write_r
                0x000000001ff6552a       0x32 d:/software/yuyin/qiqiyinqiluntai/riscv-nuclei-elf-gcc-9.2.0.0/gcc_fix_raissrc/bin/../lib/gcc/riscv-nuclei-elf/9.2.0/../../../../riscv-nuclei-elf/lib/rv32imafc/ilp32f\libg_nano.a(lib_a-writer.o)
                0x000000001ff6552a                _write_r
 .text._close_r
                0x000000001ff6555c       0x2e d:/software/yuyin/qiqiyinqiluntai/riscv-nuclei-elf-gcc-9.2.0.0/gcc_fix_raissrc/bin/../lib/gcc/riscv-nuclei-elf/9.2.0/../../../../riscv-nuclei-elf/lib/rv32imafc/ilp32f\libg_nano.a(lib_a-closer.o)
                0x000000001ff6555c                _close_r
 .text._fstat_r
                0x000000001ff6558a       0x30 d:/software/yuyin/qiqiyinqiluntai/riscv-nuclei-elf-gcc-9.2.0.0/gcc_fix_raissrc/bin/../lib/gcc/riscv-nuclei-elf/9.2.0/../../../../riscv-nuclei-elf/lib/rv32imafc/ilp32f\libg_nano.a(lib_a-fstatr.o)
                0x000000001ff6558a                _fstat_r
 .text._isatty_r
                0x000000001ff655ba       0x2e d:/software/yuyin/qiqiyinqiluntai/riscv-nuclei-elf-gcc-9.2.0.0/gcc_fix_raissrc/bin/../lib/gcc/riscv-nuclei-elf/9.2.0/../../../../riscv-nuclei-elf/lib/rv32imafc/ilp32f\libg_nano.a(lib_a-isattyr.o)
                0x000000001ff655ba                _isatty_r
 .text._lseek_r
                0x000000001ff655e8       0x32 d:/software/yuyin/qiqiyinqiluntai/riscv-nuclei-elf-gcc-9.2.0.0/gcc_fix_raissrc/bin/../lib/gcc/riscv-nuclei-elf/9.2.0/../../../../riscv-nuclei-elf/lib/rv32imafc/ilp32f\libg_nano.a(lib_a-lseekr.o)
                0x000000001ff655e8                _lseek_r
 .text._malloc_usable_size_r
                0x000000001ff6561a       0x14 d:/software/yuyin/qiqiyinqiluntai/riscv-nuclei-elf-gcc-9.2.0.0/gcc_fix_raissrc/bin/../lib/gcc/riscv-nuclei-elf/9.2.0/../../../../riscv-nuclei-elf/lib/rv32imafc/ilp32f\libg_nano.a(lib_a-nano-msizer.o)
                0x000000001ff6561a                _malloc_usable_size_r
 .text._read_r  0x000000001ff6562e       0x32 d:/software/yuyin/qiqiyinqiluntai/riscv-nuclei-elf-gcc-9.2.0.0/gcc_fix_raissrc/bin/../lib/gcc/riscv-nuclei-elf/9.2.0/../../../../riscv-nuclei-elf/lib/rv32imafc/ilp32f\libg_nano.a(lib_a-readr.o)
                0x000000001ff6562e                _read_r
 .text._exit    0x000000001ff65660       0x2a d:/software/yuyin/qiqiyinqiluntai/riscv-nuclei-elf-gcc-9.2.0.0/gcc_fix_raissrc/bin/../lib/gcc/riscv-nuclei-elf/9.2.0/../../../../riscv-nuclei-elf/lib/rv32imafc/ilp32f\libgloss_nano.a(sys_exit.o)
                0x000000001ff65660                _exit
 .text._close   0x000000001ff6568a       0x32 d:/software/yuyin/qiqiyinqiluntai/riscv-nuclei-elf-gcc-9.2.0.0/gcc_fix_raissrc/bin/../lib/gcc/riscv-nuclei-elf/9.2.0/../../../../riscv-nuclei-elf/lib/rv32imafc/ilp32f\libgloss_nano.a(sys_close.o)
                0x000000001ff6568a                _close
 .text._fstat   0x000000001ff656bc       0x3e d:/software/yuyin/qiqiyinqiluntai/riscv-nuclei-elf-gcc-9.2.0.0/gcc_fix_raissrc/bin/../lib/gcc/riscv-nuclei-elf/9.2.0/../../../../riscv-nuclei-elf/lib/rv32imafc/ilp32f\libgloss_nano.a(sys_fstat.o)
                0x000000001ff656bc                _fstat
 .text._isatty  0x000000001ff656fa       0x20 d:/software/yuyin/qiqiyinqiluntai/riscv-nuclei-elf-gcc-9.2.0.0/gcc_fix_raissrc/bin/../lib/gcc/riscv-nuclei-elf/9.2.0/../../../../riscv-nuclei-elf/lib/rv32imafc/ilp32f\libgloss_nano.a(sys_isatty.o)
                0x000000001ff656fa                _isatty
 .text._lseek   0x000000001ff6571a       0x2e d:/software/yuyin/qiqiyinqiluntai/riscv-nuclei-elf-gcc-9.2.0.0/gcc_fix_raissrc/bin/../lib/gcc/riscv-nuclei-elf/9.2.0/../../../../riscv-nuclei-elf/lib/rv32imafc/ilp32f\libgloss_nano.a(sys_lseek.o)
                0x000000001ff6571a                _lseek
 .text._read    0x000000001ff65748       0x2e d:/software/yuyin/qiqiyinqiluntai/riscv-nuclei-elf-gcc-9.2.0.0/gcc_fix_raissrc/bin/../lib/gcc/riscv-nuclei-elf/9.2.0/../../../../riscv-nuclei-elf/lib/rv32imafc/ilp32f\libgloss_nano.a(sys_read.o)
                0x000000001ff65748                _read
 .text._write   0x000000001ff65776       0x2e d:/software/yuyin/qiqiyinqiluntai/riscv-nuclei-elf-gcc-9.2.0.0/gcc_fix_raissrc/bin/../lib/gcc/riscv-nuclei-elf/9.2.0/../../../../riscv-nuclei-elf/lib/rv32imafc/ilp32f\libgloss_nano.a(sys_write.o)
                0x000000001ff65776                _write
 .text._conv_stat
                0x000000001ff657a4       0x4e d:/software/yuyin/qiqiyinqiluntai/riscv-nuclei-elf-gcc-9.2.0.0/gcc_fix_raissrc/bin/../lib/gcc/riscv-nuclei-elf/9.2.0/../../../../riscv-nuclei-elf/lib/rv32imafc/ilp32f\libgloss_nano.a(sys_conv_stat.o)
                0x000000001ff657a4                _conv_stat
 .text.__errno  0x000000001ff657f2        0x6 d:/software/yuyin/qiqiyinqiluntai/riscv-nuclei-elf-gcc-9.2.0.0/gcc_fix_raissrc/bin/../lib/gcc/riscv-nuclei-elf/9.2.0/../../../../riscv-nuclei-elf/lib/rv32imafc/ilp32f\libc_nano.a(lib_a-errno.o)
                0x000000001ff657f2                __errno
 .text          0x000000001ff657f8      0x158 d:/software/yuyin/qiqiyinqiluntai/riscv-nuclei-elf-gcc-9.2.0.0/gcc_fix_raissrc/bin/../lib/gcc/riscv-nuclei-elf/9.2.0/../../../../riscv-nuclei-elf/lib/rv32imafc/ilp32f\libm.a(lib_a-s_floor.o)
                0x000000001ff657f8                floor
 .text          0x000000001ff65950       0xbe d:/software/yuyin/qiqiyinqiluntai/riscv-nuclei-elf-gcc-9.2.0.0/gcc_fix_raissrc/bin/../lib/gcc/riscv-nuclei-elf/9.2.0/../../../../riscv-nuclei-elf/lib/rv32imafc/ilp32f\libm.a(lib_a-w_acos.o)
                0x000000001ff65950                acos
 .text          0x000000001ff65a0e      0x10a d:/software/yuyin/qiqiyinqiluntai/riscv-nuclei-elf-gcc-9.2.0.0/gcc_fix_raissrc/bin/../lib/gcc/riscv-nuclei-elf/9.2.0/../../../../riscv-nuclei-elf/lib/rv32imafc/ilp32f\libm.a(lib_a-w_exp.o)
                0x000000001ff65a0e                exp
 .text          0x000000001ff65b18      0x31e d:/software/yuyin/qiqiyinqiluntai/riscv-nuclei-elf-gcc-9.2.0.0/gcc_fix_raissrc/bin/../lib/gcc/riscv-nuclei-elf/9.2.0/../../../../riscv-nuclei-elf/lib/rv32imafc/ilp32f\libm.a(lib_a-wf_pow.o)
                0x000000001ff65b18                powf
 .text          0x000000001ff65e36      0x112 d:/software/yuyin/qiqiyinqiluntai/riscv-nuclei-elf-gcc-9.2.0.0/gcc_fix_raissrc/bin/../lib/gcc/riscv-nuclei-elf/9.2.0/../../../../riscv-nuclei-elf/lib/rv32imafc/ilp32f\libm.a(lib_a-w_log.o)
                0x000000001ff65e36                log
 .text          0x000000001ff65f48       0xb6 d:/software/yuyin/qiqiyinqiluntai/riscv-nuclei-elf-gcc-9.2.0.0/gcc_fix_raissrc/bin/../lib/gcc/riscv-nuclei-elf/9.2.0/../../../../riscv-nuclei-elf/lib/rv32imafc/ilp32f\libm.a(lib_a-w_sqrt.o)
                0x000000001ff65f48                sqrt
 .text          0x000000001ff65ffe      0x4e8 d:/software/yuyin/qiqiyinqiluntai/riscv-nuclei-elf-gcc-9.2.0.0/gcc_fix_raissrc/bin/../lib/gcc/riscv-nuclei-elf/9.2.0/../../../../riscv-nuclei-elf/lib/rv32imafc/ilp32f\libm.a(lib_a-e_acos.o)
                0x000000001ff65ffe                __ieee754_acos
 .text          0x000000001ff664e6      0x3d4 d:/software/yuyin/qiqiyinqiluntai/riscv-nuclei-elf-gcc-9.2.0.0/gcc_fix_raissrc/bin/../lib/gcc/riscv-nuclei-elf/9.2.0/../../../../riscv-nuclei-elf/lib/rv32imafc/ilp32f\libm.a(lib_a-e_exp.o)
                0x000000001ff664e6                __ieee754_exp
 .text          0x000000001ff668ba      0x652 d:/software/yuyin/qiqiyinqiluntai/riscv-nuclei-elf-gcc-9.2.0.0/gcc_fix_raissrc/bin/../lib/gcc/riscv-nuclei-elf/9.2.0/../../../../riscv-nuclei-elf/lib/rv32imafc/ilp32f\libm.a(lib_a-ef_pow.o)
                0x000000001ff668ba                __ieee754_powf
 .text          0x000000001ff66f0c       0xc6 d:/software/yuyin/qiqiyinqiluntai/riscv-nuclei-elf-gcc-9.2.0.0/gcc_fix_raissrc/bin/../lib/gcc/riscv-nuclei-elf/9.2.0/../../../../riscv-nuclei-elf/lib/rv32imafc/ilp32f\libm.a(lib_a-ef_sqrt.o)
                0x000000001ff66f0c                __ieee754_sqrtf
 .text          0x000000001ff66fd2      0x41e d:/software/yuyin/qiqiyinqiluntai/riscv-nuclei-elf-gcc-9.2.0.0/gcc_fix_raissrc/bin/../lib/gcc/riscv-nuclei-elf/9.2.0/../../../../riscv-nuclei-elf/lib/rv32imafc/ilp32f\libm.a(lib_a-e_log.o)
                0x000000001ff66fd2                __ieee754_log
 .text          0x000000001ff673f0      0x1c4 d:/software/yuyin/qiqiyinqiluntai/riscv-nuclei-elf-gcc-9.2.0.0/gcc_fix_raissrc/bin/../lib/gcc/riscv-nuclei-elf/9.2.0/../../../../riscv-nuclei-elf/lib/rv32imafc/ilp32f\libm.a(lib_a-e_sqrt.o)
                0x000000001ff673f0                __ieee754_sqrt
 .text          0x000000001ff675b4        0x6 d:/software/yuyin/qiqiyinqiluntai/riscv-nuclei-elf-gcc-9.2.0.0/gcc_fix_raissrc/bin/../lib/gcc/riscv-nuclei-elf/9.2.0/../../../../riscv-nuclei-elf/lib/rv32imafc/ilp32f\libm.a(lib_a-s_fabs.o)
                0x000000001ff675b4                fabs
 .text          0x000000001ff675ba       0x12 d:/software/yuyin/qiqiyinqiluntai/riscv-nuclei-elf-gcc-9.2.0.0/gcc_fix_raissrc/bin/../lib/gcc/riscv-nuclei-elf/9.2.0/../../../../riscv-nuclei-elf/lib/rv32imafc/ilp32f\libm.a(lib_a-sf_finite.o)
                0x000000001ff675ba                finitef
 .text          0x000000001ff675cc        0xe d:/software/yuyin/qiqiyinqiluntai/riscv-nuclei-elf-gcc-9.2.0.0/gcc_fix_raissrc/bin/../lib/gcc/riscv-nuclei-elf/9.2.0/../../../../riscv-nuclei-elf/lib/rv32imafc/ilp32f\libm.a(lib_a-s_finite.o)
                0x000000001ff675cc                finite
 .text          0x000000001ff675da        0xa d:/software/yuyin/qiqiyinqiluntai/riscv-nuclei-elf-gcc-9.2.0.0/gcc_fix_raissrc/bin/../lib/gcc/riscv-nuclei-elf/9.2.0/../../../../riscv-nuclei-elf/lib/rv32imafc/ilp32f\libm.a(lib_a-sf_nan.o)
                0x000000001ff675da                nanf
 .text          0x000000001ff675e4       0xd2 d:/software/yuyin/qiqiyinqiluntai/riscv-nuclei-elf-gcc-9.2.0.0/gcc_fix_raissrc/bin/../lib/gcc/riscv-nuclei-elf/9.2.0/../../../../riscv-nuclei-elf/lib/rv32imafc/ilp32f\libm.a(lib_a-sf_rint.o)
                0x000000001ff675e4                rintf
 .text          0x000000001ff676b6       0xfe d:/software/yuyin/qiqiyinqiluntai/riscv-nuclei-elf-gcc-9.2.0.0/gcc_fix_raissrc/bin/../lib/gcc/riscv-nuclei-elf/9.2.0/../../../../riscv-nuclei-elf/lib/rv32imafc/ilp32f\libm.a(lib_a-sf_scalbn.o)
                0x000000001ff676b6                scalbnf
 .text          0x000000001ff677b4        0x4 d:/software/yuyin/qiqiyinqiluntai/riscv-nuclei-elf-gcc-9.2.0.0/gcc_fix_raissrc/bin/../lib/gcc/riscv-nuclei-elf/9.2.0/../../../../riscv-nuclei-elf/lib/rv32imafc/ilp32f\libm.a(lib_a-s_matherr.o)
                0x000000001ff677b4                matherr
 .text          0x000000001ff677b8        0xe d:/software/yuyin/qiqiyinqiluntai/riscv-nuclei-elf-gcc-9.2.0.0/gcc_fix_raissrc/bin/../lib/gcc/riscv-nuclei-elf/9.2.0/../../../../riscv-nuclei-elf/lib/rv32imafc/ilp32f\libm.a(lib_a-s_nan.o)
                0x000000001ff677b8                nan
 .text          0x000000001ff677c6       0x1c d:/software/yuyin/qiqiyinqiluntai/riscv-nuclei-elf-gcc-9.2.0.0/gcc_fix_raissrc/bin/../lib/gcc/riscv-nuclei-elf/9.2.0/../../../../riscv-nuclei-elf/lib/rv32imafc/ilp32f\libm.a(lib_a-sf_copysign.o)
                0x000000001ff677c6                copysignf
 *(.gnu.linkonce.t.*)

.fini
 *(SORT_NONE(.fini))
                0x000000001ff677e4                . = ALIGN (0x4)
                [!provide]                        PROVIDE (__etext = .)
                [!provide]                        PROVIDE (_etext = .)
                [!provide]                        PROVIDE (etext = .)
                0x000000001ff677e4                PROVIDE (_eilm = .)

.preinit_array  0x000000001ff677e2        0x0
                0x000000001ff677e2                PROVIDE (__preinit_array_start = .)
 *(.preinit_array)
                0x000000001ff677e2                PROVIDE (__preinit_array_end = .)

.init_array     0x000000001ff677e2        0x0
                0x000000001ff677e2                PROVIDE (__init_array_start = .)
 *(SORT_BY_INIT_PRIORITY(.init_array.*) SORT_BY_INIT_PRIORITY(.ctors.*))
 *(.init_array EXCLUDE_FILE(*crtend?.o *crtend.o *crtbegin?.o *crtbegin.o) .ctors)
                0x000000001ff677e2                PROVIDE (__init_array_end = .)

.fini_array     0x000000001ff677e2        0x0
                0x000000001ff677e2                PROVIDE (__fini_array_start = .)
 *(SORT_BY_INIT_PRIORITY(.fini_array.*) SORT_BY_INIT_PRIORITY(.dtors.*))
 *(.fini_array EXCLUDE_FILE(*crtend?.o *crtend.o *crtbegin?.o *crtbegin.o) .dtors)
                0x000000001ff677e2                PROVIDE (__fini_array_end = .)

.ctors
 *crtbegin.o(.ctors)
 *crtbegin?.o(.ctors)
 *(EXCLUDE_FILE(*crtend?.o *crtend.o) .ctors)
 *(SORT_BY_NAME(.ctors.*))
 *(.ctors)

.dtors
 *crtbegin.o(.dtors)
 *crtbegin?.o(.dtors)
 *(EXCLUDE_FILE(*crtend?.o *crtend.o) .dtors)
 *(SORT_BY_NAME(.dtors.*))
 *(.dtors)

.ro_data        0x000000001ff677e8     0x4f10
 *(.rdata)
 *(.rodata .rodata.*)
 .rodata.speex_warning_int.lto_priv.0.str1.4
                0x000000001ff677e8       0x10 C:\TMP\nn_denoise_rtc_sample.elf.t3mX4c.ltrans0.ltrans.o
 .rodata.nb_mode_query.str1.4
                0x000000001ff677f8       0x20 C:\TMP\nn_denoise_rtc_sample.elf.t3mX4c.ltrans0.ltrans.o
 .rodata.wb_mode_query.str1.4
                0x000000001ff67818       0x20 C:\TMP\nn_denoise_rtc_sample.elf.t3mX4c.ltrans0.ltrans.o
 .rodata._speex_fatal.constprop.0.str1.4
                0x000000001ff67838       0x5f C:\TMP\nn_denoise_rtc_sample.elf.t3mX4c.ltrans0.ltrans.o
 *fill*         0x000000001ff67897        0x1 
 .rodata.nb_decoder_ctl.str1.4
                0x000000001ff67898       0x19 C:\TMP\nn_denoise_rtc_sample.elf.t3mX4c.ltrans0.ltrans.o
 *fill*         0x000000001ff678b1        0x3 
 .rodata.nb_decoder_ctl
                0x000000001ff678b4       0xdc C:\TMP\nn_denoise_rtc_sample.elf.t3mX4c.ltrans0.ltrans.o
 .rodata.nb_encode.str1.4
                0x000000001ff67990       0x54 C:\TMP\nn_denoise_rtc_sample.elf.t3mX4c.ltrans0.ltrans.o
 .rodata.dpmu_set_io_reuse
                0x000000001ff679e4       0x60 C:\TMP\nn_denoise_rtc_sample.elf.t3mX4c.ltrans0.ltrans.o
 .rodata.sb_decoder_ctl
                0x000000001ff67a44       0xdc C:\TMP\nn_denoise_rtc_sample.elf.t3mX4c.ltrans0.ltrans.o
 .rodata.sb_encoder_ctl
                0x000000001ff67b20       0xc8 C:\TMP\nn_denoise_rtc_sample.elf.t3mX4c.ltrans0.ltrans.o
 .rodata.nb_encoder_ctl
                0x000000001ff67be8       0xc8 C:\TMP\nn_denoise_rtc_sample.elf.t3mX4c.ltrans0.ltrans.o
 .rodata.speex_notify.lto_priv.0.lto_priv.0.str1.4
                0x000000001ff67cb0       0x12 C:\TMP\nn_denoise_rtc_sample.elf.t3mX4c.ltrans0.ltrans.o
 *fill*         0x000000001ff67cc2        0x2 
 .rodata.sb_decode.str1.4
                0x000000001ff67cc4       0x33 C:\TMP\nn_denoise_rtc_sample.elf.t3mX4c.ltrans0.ltrans.o
 *fill*         0x000000001ff67cf7        0x1 
 .rodata.nb_decode.str1.4
                0x000000001ff67cf8       0x96 C:\TMP\nn_denoise_rtc_sample.elf.t3mX4c.ltrans0.ltrans.o
 *fill*         0x000000001ff67d8e        0x2 
 .rodata.prompt_play_by_cmd_string.constprop.0.str1.4
                0x000000001ff67d90       0x10 C:\TMP\nn_denoise_rtc_sample.elf.t3mX4c.ltrans0.ltrans.o
 .rodata.IISDMA_ChannelIntENConfig.constprop.0.str1.4
                0x000000001ff67da0       0x1f C:\TMP\nn_denoise_rtc_sample.elf.t3mX4c.ltrans0.ltrans.o
 *fill*         0x000000001ff67dbf        0x1 
 .rodata.cm_write_codec.constprop.0.str1.4
                0x000000001ff67dc0       0x72 C:\TMP\nn_denoise_rtc_sample.elf.t3mX4c.ltrans0.ltrans.o
 *fill*         0x000000001ff67e32        0x2 
 .rodata.cm_get_pcm_buffer.constprop.0.str1.4
                0x000000001ff67e34        0xf C:\TMP\nn_denoise_rtc_sample.elf.t3mX4c.ltrans0.ltrans.o
 *fill*         0x000000001ff67e43        0x1 
 .rodata.iis_audio_choose.constprop.0.str1.4
                0x000000001ff67e44       0x20 C:\TMP\nn_denoise_rtc_sample.elf.t3mX4c.ltrans0.ltrans.o
 .rodata.iis_audio_choose.constprop.0
                0x000000001ff67e64       0x14 C:\TMP\nn_denoise_rtc_sample.elf.t3mX4c.ltrans0.ltrans.o
 .rodata.rc_callee_alg_aes_type_tip.str1.4
                0x000000001ff67e78       0x64 C:\TMP\nn_denoise_rtc_sample.elf.t3mX4c.ltrans0.ltrans.o
 .rodata.rc_callee_npu_ifft_data_handle_in_host.str1.4
                0x000000001ff67edc       0x1a C:\TMP\nn_denoise_rtc_sample.elf.t3mX4c.ltrans0.ltrans.o
 *fill*         0x000000001ff67ef6        0x2 
 .rodata.rc_callee_free_in_host.str1.4
                0x000000001ff67ef8       0x12 C:\TMP\nn_denoise_rtc_sample.elf.t3mX4c.ltrans0.ltrans.o
                                         0x16 (size before relaxing)
 *fill*         0x000000001ff67f0a        0x2 
 .rodata.mailbox_send_msg.str1.4
                0x000000001ff67f0c       0x27 C:\TMP\nn_denoise_rtc_sample.elf.t3mX4c.ltrans0.ltrans.o
 *fill*         0x000000001ff67f33        0x1 
 .rodata.nuclear_com_send.constprop.0.str1.4
                0x000000001ff67f34        0xe C:\TMP\nn_denoise_rtc_sample.elf.t3mX4c.ltrans0.ltrans.o
 *fill*         0x000000001ff67f42        0x2 
 .rodata.nuclear_com_irq_handler.str1.4
                0x000000001ff67f44       0x20 C:\TMP\nn_denoise_rtc_sample.elf.t3mX4c.ltrans0.ltrans.o
 .rodata.flash_manage_req_wait_op_done_sem.str1.4
                0x000000001ff67f64        0xd C:\TMP\nn_denoise_rtc_sample.elf.t3mX4c.ltrans0.ltrans.o
 *fill*         0x000000001ff67f71        0x3 
 .rodata.post_erase_flash.constprop.0.str1.4
                0x000000001ff67f74       0x2b C:\TMP\nn_denoise_rtc_sample.elf.t3mX4c.ltrans0.ltrans.o
 *fill*         0x000000001ff67f9f        0x1 
 .rodata.decoder_rpmsg_serve_cb.str1.4
                0x000000001ff67fa0        0xe C:\TMP\nn_denoise_rtc_sample.elf.t3mX4c.ltrans0.ltrans.o
 *fill*         0x000000001ff67fae        0x2 
 .rodata.decoder_rpmsg_serve_cb
                0x000000001ff67fb0       0x50 C:\TMP\nn_denoise_rtc_sample.elf.t3mX4c.ltrans0.ltrans.o
 .rodata.asr_top_outside_serve_cb.str1.4
                0x000000001ff68000        0xd C:\TMP\nn_denoise_rtc_sample.elf.t3mX4c.ltrans0.ltrans.o
 *fill*         0x000000001ff6800d        0x3 
 .rodata.sb_encoder_destroy.str1.4
                0x000000001ff68010       0x35 C:\TMP\nn_denoise_rtc_sample.elf.t3mX4c.ltrans0.ltrans.o
 *fill*         0x000000001ff68045        0x3 
 .rodata.sb_encoder_init.str1.4
                0x000000001ff68048       0x13 C:\TMP\nn_denoise_rtc_sample.elf.t3mX4c.ltrans0.ltrans.o
 *fill*         0x000000001ff6805b        0x1 
 .rodata.nb_encoder_destroy.str1.4
                0x000000001ff6805c       0x19 C:\TMP\nn_denoise_rtc_sample.elf.t3mX4c.ltrans0.ltrans.o
 *fill*         0x000000001ff68075        0x3 
 .rodata.nb_encoder_init.str1.4
                0x000000001ff68078       0x13 C:\TMP\nn_denoise_rtc_sample.elf.t3mX4c.ltrans0.ltrans.o
 *fill*         0x000000001ff6808b        0x1 
 .rodata        0x000000001ff6808c       0x98 C:\TMP\nn_denoise_rtc_sample.elf.t3mX4c.ltrans0.ltrans.o
 .rodata.__FUNCTION__.5548
                0x000000001ff68124       0x17 C:\TMP\nn_denoise_rtc_sample.elf.t3mX4c.ltrans0.ltrans.o
 *fill*         0x000000001ff6813b        0x1 
 .rodata.__FUNCTION__.5769
                0x000000001ff6813c       0x11 C:\TMP\nn_denoise_rtc_sample.elf.t3mX4c.ltrans0.ltrans.o
 *fill*         0x000000001ff6814d        0x3 
 .rodata.attenuation
                0x000000001ff68150       0x28 C:\TMP\nn_denoise_rtc_sample.elf.t3mX4c.ltrans0.ltrans.o
 .rodata.cdbk_nb
                0x000000001ff68178      0x280 C:\TMP\nn_denoise_rtc_sample.elf.t3mX4c.ltrans0.ltrans.o
 .rodata.cdbk_nb_high1
                0x000000001ff683f8      0x140 C:\TMP\nn_denoise_rtc_sample.elf.t3mX4c.ltrans0.ltrans.o
 .rodata.cdbk_nb_high2
                0x000000001ff68538      0x140 C:\TMP\nn_denoise_rtc_sample.elf.t3mX4c.ltrans0.ltrans.o
 .rodata.cdbk_nb_low1
                0x000000001ff68678      0x140 C:\TMP\nn_denoise_rtc_sample.elf.t3mX4c.ltrans0.ltrans.o
 .rodata.cdbk_nb_low2
                0x000000001ff687b8      0x140 C:\TMP\nn_denoise_rtc_sample.elf.t3mX4c.ltrans0.ltrans.o
 .rodata.exc_gain_quant_scal3
                0x000000001ff688f8       0x20 C:\TMP\nn_denoise_rtc_sample.elf.t3mX4c.ltrans0.ltrans.o
 .rodata.exc_gain_quant_scal3_bound
                0x000000001ff68918       0x1c C:\TMP\nn_denoise_rtc_sample.elf.t3mX4c.ltrans0.ltrans.o
 .rodata.fold_quant_bound
                0x000000001ff68934       0x80 C:\TMP\nn_denoise_rtc_sample.elf.t3mX4c.ltrans0.ltrans.o
 .rodata.gc_quant_bound
                0x000000001ff689b4       0x40 C:\TMP\nn_denoise_rtc_sample.elf.t3mX4c.ltrans0.ltrans.o
 .rodata.h0     0x000000001ff689f4      0x100 C:\TMP\nn_denoise_rtc_sample.elf.t3mX4c.ltrans0.ltrans.o
 .rodata.high_lsp_cdbk
                0x000000001ff68af4      0x200 C:\TMP\nn_denoise_rtc_sample.elf.t3mX4c.ltrans0.ltrans.o
 .rodata.high_lsp_cdbk2
                0x000000001ff68cf4      0x200 C:\TMP\nn_denoise_rtc_sample.elf.t3mX4c.ltrans0.ltrans.o
 .rodata.lag_window
                0x000000001ff68ef4       0x2c C:\TMP\nn_denoise_rtc_sample.elf.t3mX4c.ltrans0.ltrans.o
 .rodata.lpc_window
                0x000000001ff68f20      0x320 C:\TMP\nn_denoise_rtc_sample.elf.t3mX4c.ltrans0.ltrans.o
 .rodata.shift_filt
                0x000000001ff69240       0x54 C:\TMP\nn_denoise_rtc_sample.elf.t3mX4c.ltrans0.ltrans.o
 .rodata.wb_skip_table
                0x000000001ff69294       0x20 C:\TMP\nn_denoise_rtc_sample.elf.t3mX4c.ltrans0.ltrans.o
 .rodata.speex_warning.str1.4
                0x000000001ff692b4        0xd C:\TMP\nn_denoise_rtc_sample.elf.t3mX4c.ltrans1.ltrans.o
 *fill*         0x000000001ff692c1        0x3 
 .rodata.speex_bits_pack.str1.4
                0x000000001ff692c4       0x71 C:\TMP\nn_denoise_rtc_sample.elf.t3mX4c.ltrans1.ltrans.o
 *fill*         0x000000001ff69335        0x3 
 .rodata.UART2_IRQHandler.str1.4
                0x000000001ff69338       0x1a C:\TMP\nn_denoise_rtc_sample.elf.t3mX4c.ltrans1.ltrans.o
 *fill*         0x000000001ff69352        0x2 
 .rodata.IIC0_IRQHandler.str1.4
                0x000000001ff69354       0x1a C:\TMP\nn_denoise_rtc_sample.elf.t3mX4c.ltrans1.ltrans.o
 *fill*         0x000000001ff6936e        0x2 
 .rodata.iis_wait_load_ctrl.str1.4
                0x000000001ff69370       0x18 C:\TMP\nn_denoise_rtc_sample.elf.t3mX4c.ltrans1.ltrans.o
 .rodata.IISxDMA_TADDR1.part.0.str1.4
                0x000000001ff69388       0x1f C:\TMP\nn_denoise_rtc_sample.elf.t3mX4c.ltrans1.ltrans.o
 .rodata.IISDMA_ADDRRollBackINT.part.0.str1.4
                0x000000001ff69388       0x1d C:\TMP\nn_denoise_rtc_sample.elf.t3mX4c.ltrans1.ltrans.o
 .rodata.get_iis_dma_channel.str1.4
                0x000000001ff693a5       0x16 C:\TMP\nn_denoise_rtc_sample.elf.t3mX4c.ltrans1.ltrans.o
 *fill*         0x000000001ff693a5        0x3 
 .rodata.cm_reg_codec.part.0.str1.4
                0x000000001ff693a8       0x11 C:\TMP\nn_denoise_rtc_sample.elf.t3mX4c.ltrans1.ltrans.o
 *fill*         0x000000001ff693b9        0x3 
 .rodata.cinv_port_mutex_give.str1.4
                0x000000001ff693bc        0xb C:\TMP\nn_denoise_rtc_sample.elf.t3mX4c.ltrans1.ltrans.o
 *fill*         0x000000001ff693c7        0x1 
 .rodata.cm_input_interrupt_handler.str1.4
                0x000000001ff693c8       0x19 C:\TMP\nn_denoise_rtc_sample.elf.t3mX4c.ltrans1.ltrans.o
 *fill*         0x000000001ff693e1        0x3 
 .rodata.realloc_buffer.str1.4
                0x000000001ff693e4       0x1c C:\TMP\nn_denoise_rtc_sample.elf.t3mX4c.ltrans1.ltrans.o
 .rodata.get_file_addr.str1.4
                0x000000001ff69400       0x1f C:\TMP\nn_denoise_rtc_sample.elf.t3mX4c.ltrans1.ltrans.o
 *fill*         0x000000001ff6941f        0x1 
 .rodata.get_current_model_addr.str1.4
                0x000000001ff69420       0x15 C:\TMP\nn_denoise_rtc_sample.elf.t3mX4c.ltrans1.ltrans.o
 *fill*         0x000000001ff69435        0x3 
 .rodata.flash_control_inner_serve_cb.str1.4
                0x000000001ff69438       0x1d C:\TMP\nn_denoise_rtc_sample.elf.t3mX4c.ltrans1.ltrans.o
 *fill*         0x000000001ff69455        0x3 
 .rodata.speex_record_data_task.str1.4
                0x000000001ff69458       0x51 C:\TMP\nn_denoise_rtc_sample.elf.t3mX4c.ltrans1.ltrans.o
 *fill*         0x000000001ff694a9        0x3 
 .rodata.prvTimerTask
                0x000000001ff694ac       0x28 C:\TMP\nn_denoise_rtc_sample.elf.t3mX4c.ltrans1.ltrans.o
 .rodata.speex_play_data_task.str1.4
                0x000000001ff694d4       0x23 C:\TMP\nn_denoise_rtc_sample.elf.t3mX4c.ltrans1.ltrans.o
 *fill*         0x000000001ff694f7        0x1 
 .rodata.audio_pre_rslt_write_data.str1.4
                0x000000001ff694f8       0x29 C:\TMP\nn_denoise_rtc_sample.elf.t3mX4c.ltrans1.ltrans.o
 *fill*         0x000000001ff69521        0x3 
 .rodata.ifft_data_handle_task_rtc.str1.4
                0x000000001ff69524       0x20 C:\TMP\nn_denoise_rtc_sample.elf.t3mX4c.ltrans1.ltrans.o
 .rodata.codec_manage_inner_serve_cb
                0x000000001ff69544       0x14 C:\TMP\nn_denoise_rtc_sample.elf.t3mX4c.ltrans1.ltrans.o
 .rodata.uart_eq_param_cfg_task.str1.4
                0x000000001ff69558      0x2e7 C:\TMP\nn_denoise_rtc_sample.elf.t3mX4c.ltrans1.ltrans.o
                                        0x2eb (size before relaxing)
 *fill*         0x000000001ff6983f        0x1 
 .rodata.handle_trap.str1.4
                0x000000001ff69840       0x5d C:\TMP\nn_denoise_rtc_sample.elf.t3mX4c.ltrans1.ltrans.o
 *fill*         0x000000001ff6989d        0x3 
 .rodata.speex_recv_data_task.str1.4
                0x000000001ff698a0       0xf6 C:\TMP\nn_denoise_rtc_sample.elf.t3mX4c.ltrans1.ltrans.o
 *fill*         0x000000001ff69996        0x2 
 .rodata.main.str1.4
                0x000000001ff69998       0xcc C:\TMP\nn_denoise_rtc_sample.elf.t3mX4c.ltrans1.ltrans.o
 .rodata.GPIO_IRQ_Default_proc.str1.4
                0x000000001ff69a64       0x26 C:\TMP\nn_denoise_rtc_sample.elf.t3mX4c.ltrans1.ltrans.o
 *fill*         0x000000001ff69a8a        0x2 
 .rodata.task_init.str1.4
                0x000000001ff69a8c      0x5eb C:\TMP\nn_denoise_rtc_sample.elf.t3mX4c.ltrans1.ltrans.o
                                        0x62b (size before relaxing)
 *fill*         0x000000001ff6a077        0x1 
 .rodata.audio_pre_rslt_out_play_card_init.str1.4
                0x000000001ff6a078       0x60 C:\TMP\nn_denoise_rtc_sample.elf.t3mX4c.ltrans1.ltrans.o
 .rodata.audio_in_manage_inner_task_rtc.str1.4
                0x000000001ff6a0d8       0x15 C:\TMP\nn_denoise_rtc_sample.elf.t3mX4c.ltrans1.ltrans.o
                                         0x49 (size before relaxing)
 *fill*         0x000000001ff6a0ed        0x3 
 .rodata.str1.4
                0x000000001ff6a0f0        0xb C:\TMP\nn_denoise_rtc_sample.elf.t3mX4c.ltrans1.ltrans.o
 *fill*         0x000000001ff6a0fb        0x1 
 .rodata        0x000000001ff6a0fc       0xf4 C:\TMP\nn_denoise_rtc_sample.elf.t3mX4c.ltrans1.ltrans.o
 .rodata.CRC_table
                0x000000001ff6a1f0      0x400 C:\TMP\nn_denoise_rtc_sample.elf.t3mX4c.ltrans1.ltrans.o
 .rodata.__FUNCTION__.3222
                0x000000001ff6a5f0       0x13 C:\TMP\nn_denoise_rtc_sample.elf.t3mX4c.ltrans1.ltrans.o
 *fill*         0x000000001ff6a603        0x1 
 .rodata.__FUNCTION__.5447
                0x000000001ff6a604        0xa C:\TMP\nn_denoise_rtc_sample.elf.t3mX4c.ltrans1.ltrans.o
 *fill*         0x000000001ff6a60e        0x2 
 .rodata.__FUNCTION__.6069
                0x000000001ff6a610       0x14 C:\TMP\nn_denoise_rtc_sample.elf.t3mX4c.ltrans1.ltrans.o
 .rodata.__FUNCTION__.6071
                0x000000001ff6a624        0xf C:\TMP\nn_denoise_rtc_sample.elf.t3mX4c.ltrans1.ltrans.o
 *fill*         0x000000001ff6a633        0x1 
 .rodata.__FUNCTION__.6113
                0x000000001ff6a634       0x1e C:\TMP\nn_denoise_rtc_sample.elf.t3mX4c.ltrans1.ltrans.o
 *fill*         0x000000001ff6a652        0x2 
 .rodata.__FUNCTION__.6120
                0x000000001ff6a654       0x25 C:\TMP\nn_denoise_rtc_sample.elf.t3mX4c.ltrans1.ltrans.o
 *fill*         0x000000001ff6a679        0x3 
 .rodata.__FUNCTION__.6183
                0x000000001ff6a67c       0x10 C:\TMP\nn_denoise_rtc_sample.elf.t3mX4c.ltrans1.ltrans.o
 .rodata.__FUNCTION__.6668
                0x000000001ff6a68c       0x22 C:\TMP\nn_denoise_rtc_sample.elf.t3mX4c.ltrans1.ltrans.o
 *fill*         0x000000001ff6a6ae        0x2 
 .rodata.__FUNCTION__.7597
                0x000000001ff6a6b0       0x1f C:\TMP\nn_denoise_rtc_sample.elf.t3mX4c.ltrans1.ltrans.o
 *fill*         0x000000001ff6a6cf        0x1 
 .rodata.__func__.4151
                0x000000001ff6a6d0       0x16 C:\TMP\nn_denoise_rtc_sample.elf.t3mX4c.ltrans1.ltrans.o
 *fill*         0x000000001ff6a6e6        0x2 
 .rodata.__func__.4155
                0x000000001ff6a6e8       0x15 C:\TMP\nn_denoise_rtc_sample.elf.t3mX4c.ltrans1.ltrans.o
 *fill*         0x000000001ff6a6fd        0x3 
 .rodata.__func__.4159
                0x000000001ff6a700       0x15 C:\TMP\nn_denoise_rtc_sample.elf.t3mX4c.ltrans1.ltrans.o
 *fill*         0x000000001ff6a715        0x3 
 .rodata.aec_config
                0x000000001ff6a718       0x54 C:\TMP\nn_denoise_rtc_sample.elf.t3mX4c.ltrans1.ltrans.o
 .rodata.exc_10_16_table
                0x000000001ff6a76c       0xa0 C:\TMP\nn_denoise_rtc_sample.elf.t3mX4c.ltrans1.ltrans.o
 .rodata.exc_10_32_table
                0x000000001ff6a80c      0x140 C:\TMP\nn_denoise_rtc_sample.elf.t3mX4c.ltrans1.ltrans.o
 .rodata.exc_20_32_table
                0x000000001ff6a94c      0x280 C:\TMP\nn_denoise_rtc_sample.elf.t3mX4c.ltrans1.ltrans.o
 .rodata.exc_5_256_table
                0x000000001ff6abcc      0x500 C:\TMP\nn_denoise_rtc_sample.elf.t3mX4c.ltrans1.ltrans.o
 .rodata.exc_5_64_table
                0x000000001ff6b0cc      0x140 C:\TMP\nn_denoise_rtc_sample.elf.t3mX4c.ltrans1.ltrans.o
 .rodata.exc_8_128_table
                0x000000001ff6b20c      0x400 C:\TMP\nn_denoise_rtc_sample.elf.t3mX4c.ltrans1.ltrans.o
 .rodata.gain_cdbk_lbr
                0x000000001ff6b60c       0x80 C:\TMP\nn_denoise_rtc_sample.elf.t3mX4c.ltrans1.ltrans.o
 .rodata.gain_cdbk_nb
                0x000000001ff6b68c      0x200 C:\TMP\nn_denoise_rtc_sample.elf.t3mX4c.ltrans1.ltrans.o
 .rodata.hexc_10_32_table
                0x000000001ff6b88c      0x140 C:\TMP\nn_denoise_rtc_sample.elf.t3mX4c.ltrans1.ltrans.o
 .rodata.hexc_table
                0x000000001ff6b9cc      0x400 C:\TMP\nn_denoise_rtc_sample.elf.t3mX4c.ltrans1.ltrans.o
 .rodata.host_mic_hw_info
                0x000000001ff6bdcc       0x54 C:\TMP\nn_denoise_rtc_sample.elf.t3mX4c.ltrans1.ltrans.o
 .rodata.ltp_params_lbr
                0x000000001ff6be20        0xc C:\TMP\nn_denoise_rtc_sample.elf.t3mX4c.ltrans1.ltrans.o
 .rodata.ltp_params_med
                0x000000001ff6be2c        0xc C:\TMP\nn_denoise_rtc_sample.elf.t3mX4c.ltrans1.ltrans.o
 .rodata.ltp_params_nb
                0x000000001ff6be38        0xc C:\TMP\nn_denoise_rtc_sample.elf.t3mX4c.ltrans1.ltrans.o
 .rodata.ltp_params_vlbr
                0x000000001ff6be44        0xc C:\TMP\nn_denoise_rtc_sample.elf.t3mX4c.ltrans1.ltrans.o
 .rodata.nb_mode
                0x000000001ff6be50       0x90 C:\TMP\nn_denoise_rtc_sample.elf.t3mX4c.ltrans1.ltrans.o
 .rodata.nb_submode1
                0x000000001ff6bee0       0x38 C:\TMP\nn_denoise_rtc_sample.elf.t3mX4c.ltrans1.ltrans.o
 .rodata.nb_submode2
                0x000000001ff6bf18       0x38 C:\TMP\nn_denoise_rtc_sample.elf.t3mX4c.ltrans1.ltrans.o
 .rodata.nb_submode3
                0x000000001ff6bf50       0x38 C:\TMP\nn_denoise_rtc_sample.elf.t3mX4c.ltrans1.ltrans.o
 .rodata.nb_submode4
                0x000000001ff6bf88       0x38 C:\TMP\nn_denoise_rtc_sample.elf.t3mX4c.ltrans1.ltrans.o
 .rodata.nb_submode5
                0x000000001ff6bfc0       0x38 C:\TMP\nn_denoise_rtc_sample.elf.t3mX4c.ltrans1.ltrans.o
 .rodata.nb_submode6
                0x000000001ff6bff8       0x38 C:\TMP\nn_denoise_rtc_sample.elf.t3mX4c.ltrans1.ltrans.o
 .rodata.nb_submode7
                0x000000001ff6c030       0x38 C:\TMP\nn_denoise_rtc_sample.elf.t3mX4c.ltrans1.ltrans.o
 .rodata.nb_submode8
                0x000000001ff6c068       0x38 C:\TMP\nn_denoise_rtc_sample.elf.t3mX4c.ltrans1.ltrans.o
 .rodata.over_sample_table.6100
                0x000000001ff6c0a0       0x10 C:\TMP\nn_denoise_rtc_sample.elf.t3mX4c.ltrans1.ltrans.o
 .rodata.sb_wb_mode
                0x000000001ff6c0b0       0xa0 C:\TMP\nn_denoise_rtc_sample.elf.t3mX4c.ltrans1.ltrans.o
 .rodata.speex_nb_mode
                0x000000001ff6c150       0x34 C:\TMP\nn_denoise_rtc_sample.elf.t3mX4c.ltrans1.ltrans.o
 .rodata.split_cb_high
                0x000000001ff6c184       0x14 C:\TMP\nn_denoise_rtc_sample.elf.t3mX4c.ltrans1.ltrans.o
 .rodata.split_cb_high_lbr
                0x000000001ff6c198       0x14 C:\TMP\nn_denoise_rtc_sample.elf.t3mX4c.ltrans1.ltrans.o
 .rodata.split_cb_nb
                0x000000001ff6c1ac       0x14 C:\TMP\nn_denoise_rtc_sample.elf.t3mX4c.ltrans1.ltrans.o
 .rodata.split_cb_nb_lbr
                0x000000001ff6c1c0       0x14 C:\TMP\nn_denoise_rtc_sample.elf.t3mX4c.ltrans1.ltrans.o
 .rodata.split_cb_nb_med
                0x000000001ff6c1d4       0x14 C:\TMP\nn_denoise_rtc_sample.elf.t3mX4c.ltrans1.ltrans.o
 .rodata.split_cb_nb_ulbr
                0x000000001ff6c1e8       0x14 C:\TMP\nn_denoise_rtc_sample.elf.t3mX4c.ltrans1.ltrans.o
 .rodata.split_cb_nb_vlbr
                0x000000001ff6c1fc       0x14 C:\TMP\nn_denoise_rtc_sample.elf.t3mX4c.ltrans1.ltrans.o
 .rodata.split_cb_sb
                0x000000001ff6c210       0x14 C:\TMP\nn_denoise_rtc_sample.elf.t3mX4c.ltrans1.ltrans.o
 .rodata.stft_istft_config
                0x000000001ff6c224       0x20 C:\TMP\nn_denoise_rtc_sample.elf.t3mX4c.ltrans1.ltrans.o
 .rodata.table_crc8
                0x000000001ff6c244      0x100 C:\TMP\nn_denoise_rtc_sample.elf.t3mX4c.ltrans1.ltrans.o
 .rodata.wb_submode1
                0x000000001ff6c344       0x38 C:\TMP\nn_denoise_rtc_sample.elf.t3mX4c.ltrans1.ltrans.o
 .rodata.wb_submode2
                0x000000001ff6c37c       0x38 C:\TMP\nn_denoise_rtc_sample.elf.t3mX4c.ltrans1.ltrans.o
 .rodata.wb_submode3
                0x000000001ff6c3b4       0x38 C:\TMP\nn_denoise_rtc_sample.elf.t3mX4c.ltrans1.ltrans.o
 .rodata.wb_submode4
                0x000000001ff6c3ec       0x38 C:\TMP\nn_denoise_rtc_sample.elf.t3mX4c.ltrans1.ltrans.o
 .rodata.sbrk.str1.4
                0x000000001ff6c424       0x18 ../../../libs\libnewlib_port.a(sbrk.o)
 .rodata        0x000000001ff6c43c       0x3c d:/software/yuyin/qiqiyinqiluntai/riscv-nuclei-elf-gcc-9.2.0.0/gcc_fix_raissrc/bin/../lib/gcc/riscv-nuclei-elf/9.2.0/rv32imafc/ilp32f\libgcc.a(divdf3.o)
 .rodata        0x000000001ff6c478       0x3c d:/software/yuyin/qiqiyinqiluntai/riscv-nuclei-elf-gcc-9.2.0.0/gcc_fix_raissrc/bin/../lib/gcc/riscv-nuclei-elf/9.2.0/rv32imafc/ilp32f\libgcc.a(muldf3.o)
 .rodata        0x000000001ff6c4b4      0x100 d:/software/yuyin/qiqiyinqiluntai/riscv-nuclei-elf-gcc-9.2.0.0/gcc_fix_raissrc/bin/../lib/gcc/riscv-nuclei-elf/9.2.0/rv32imafc/ilp32f\libgcc.a(_clz.o)
                0x000000001ff6c4b4                __clz_tab
 .rodata._vfprintf_r.str1.4
                0x000000001ff6c5b4       0x13 d:/software/yuyin/qiqiyinqiluntai/riscv-nuclei-elf-gcc-9.2.0.0/gcc_fix_raissrc/bin/../lib/gcc/riscv-nuclei-elf/9.2.0/../../../../riscv-nuclei-elf/lib/rv32imafc/ilp32f\libg_nano.a(lib_a-nano-vfprintf.o)
 *fill*         0x000000001ff6c5c7        0x1 
 .rodata.__sf_fake_stderr
                0x000000001ff6c5c8       0x20 d:/software/yuyin/qiqiyinqiluntai/riscv-nuclei-elf-gcc-9.2.0.0/gcc_fix_raissrc/bin/../lib/gcc/riscv-nuclei-elf/9.2.0/../../../../riscv-nuclei-elf/lib/rv32imafc/ilp32f\libg_nano.a(lib_a-findfp.o)
                0x000000001ff6c5c8                __sf_fake_stderr
 .rodata.__sf_fake_stdin
                0x000000001ff6c5e8       0x20 d:/software/yuyin/qiqiyinqiluntai/riscv-nuclei-elf-gcc-9.2.0.0/gcc_fix_raissrc/bin/../lib/gcc/riscv-nuclei-elf/9.2.0/../../../../riscv-nuclei-elf/lib/rv32imafc/ilp32f\libg_nano.a(lib_a-findfp.o)
                0x000000001ff6c5e8                __sf_fake_stdin
 .rodata.__sf_fake_stdout
                0x000000001ff6c608       0x20 d:/software/yuyin/qiqiyinqiluntai/riscv-nuclei-elf-gcc-9.2.0.0/gcc_fix_raissrc/bin/../lib/gcc/riscv-nuclei-elf/9.2.0/../../../../riscv-nuclei-elf/lib/rv32imafc/ilp32f\libg_nano.a(lib_a-findfp.o)
                0x000000001ff6c608                __sf_fake_stdout
 .rodata._printf_i.str1.4
                0x000000001ff6c628       0x28 d:/software/yuyin/qiqiyinqiluntai/riscv-nuclei-elf-gcc-9.2.0.0/gcc_fix_raissrc/bin/../lib/gcc/riscv-nuclei-elf/9.2.0/../../../../riscv-nuclei-elf/lib/rv32imafc/ilp32f\libg_nano.a(lib_a-nano-vfprintf_i.o)
                                         0x25 (size before relaxing)
 .rodata._printf_i
                0x000000001ff6c650       0x58 d:/software/yuyin/qiqiyinqiluntai/riscv-nuclei-elf-gcc-9.2.0.0/gcc_fix_raissrc/bin/../lib/gcc/riscv-nuclei-elf/9.2.0/../../../../riscv-nuclei-elf/lib/rv32imafc/ilp32f\libg_nano.a(lib_a-nano-vfprintf_i.o)
 .rodata.str1.4
                0x000000001ff6c6a8        0x5 d:/software/yuyin/qiqiyinqiluntai/riscv-nuclei-elf-gcc-9.2.0.0/gcc_fix_raissrc/bin/../lib/gcc/riscv-nuclei-elf/9.2.0/../../../../riscv-nuclei-elf/lib/rv32imafc/ilp32f\libm.a(lib_a-w_acos.o)
                                          0x9 (size before relaxing)
 *fill*         0x000000001ff6c6ad        0x3 
 .rodata.str1.4
                0x000000001ff6c6b0        0x4 d:/software/yuyin/qiqiyinqiluntai/riscv-nuclei-elf-gcc-9.2.0.0/gcc_fix_raissrc/bin/../lib/gcc/riscv-nuclei-elf/9.2.0/../../../../riscv-nuclei-elf/lib/rv32imafc/ilp32f\libm.a(lib_a-w_exp.o)
 .rodata.str1.4
                0x000000001ff6c6b4        0x5 d:/software/yuyin/qiqiyinqiluntai/riscv-nuclei-elf-gcc-9.2.0.0/gcc_fix_raissrc/bin/../lib/gcc/riscv-nuclei-elf/9.2.0/../../../../riscv-nuclei-elf/lib/rv32imafc/ilp32f\libm.a(lib_a-wf_pow.o)
 *fill*         0x000000001ff6c6b9        0x3 
 .rodata.str1.4
                0x000000001ff6c6bc        0x4 d:/software/yuyin/qiqiyinqiluntai/riscv-nuclei-elf-gcc-9.2.0.0/gcc_fix_raissrc/bin/../lib/gcc/riscv-nuclei-elf/9.2.0/../../../../riscv-nuclei-elf/lib/rv32imafc/ilp32f\libm.a(lib_a-w_log.o)
                                          0x5 (size before relaxing)
 .rodata.str1.4
                0x000000001ff6c6c0        0x5 d:/software/yuyin/qiqiyinqiluntai/riscv-nuclei-elf-gcc-9.2.0.0/gcc_fix_raissrc/bin/../lib/gcc/riscv-nuclei-elf/9.2.0/../../../../riscv-nuclei-elf/lib/rv32imafc/ilp32f\libm.a(lib_a-w_sqrt.o)
 *fill*         0x000000001ff6c6c5        0x3 
 .rodata        0x000000001ff6c6c8       0x30 d:/software/yuyin/qiqiyinqiluntai/riscv-nuclei-elf-gcc-9.2.0.0/gcc_fix_raissrc/bin/../lib/gcc/riscv-nuclei-elf/9.2.0/../../../../riscv-nuclei-elf/lib/rv32imafc/ilp32f\libm.a(lib_a-e_exp.o)
 .rodata.str1.4
                0x000000001ff6c6f8        0x1 d:/software/yuyin/qiqiyinqiluntai/riscv-nuclei-elf-gcc-9.2.0.0/gcc_fix_raissrc/bin/../lib/gcc/riscv-nuclei-elf/9.2.0/../../../../riscv-nuclei-elf/lib/rv32imafc/ilp32f\libm.a(lib_a-ef_pow.o)

.rela.dyn       0x000000001ff6c6f8        0x0
 .rela.init     0x000000001ff6c6f8        0x0 build/objs/ci130x_vtable.o
 .rela.load_addr
                0x000000001ff6c6f8        0x0 build/objs/ci130x_vtable.o
 .rela.text.sbrk
                0x000000001ff6c6f8        0x0 build/objs/ci130x_vtable.o
 .rela.sdata.currentHeapEnd.5595
                0x000000001ff6c6f8        0x0 build/objs/ci130x_vtable.o
 .rela.text.entry
                0x000000001ff6c6f8        0x0 build/objs/ci130x_vtable.o
 .rela.text.__libc_fini_array
                0x000000001ff6c6f8        0x0 build/objs/ci130x_vtable.o
 .rela.text.__libc_init_array
                0x000000001ff6c6f8        0x0 build/objs/ci130x_vtable.o
 .rela.text.__register_exitproc
                0x000000001ff6c6f8        0x0 build/objs/ci130x_vtable.o
 .rela.text.pvPortMalloc
                0x000000001ff6c6f8        0x0 build/objs/ci130x_vtable.o
 .rela.text.handle_trap
                0x000000001ff6c6f8        0x0 build/objs/ci130x_vtable.o
 .rela.text.startup.main
                0x000000001ff6c6f8        0x0 build/objs/ci130x_vtable.o
 .rela.text.task_init
                0x000000001ff6c6f8        0x0 build/objs/ci130x_vtable.o
 .rela.text._init
                0x000000001ff6c6f8        0x0 build/objs/ci130x_vtable.o
 .rela.text._vfprintf_r
                0x000000001ff6c6f8        0x0 build/objs/ci130x_vtable.o
 .rela.text._sbrk_r
                0x000000001ff6c6f8        0x0 build/objs/ci130x_vtable.o
 .rela.text._write_r
                0x000000001ff6c6f8        0x0 build/objs/ci130x_vtable.o
 .rela.text._close_r
                0x000000001ff6c6f8        0x0 build/objs/ci130x_vtable.o
 .rela.text._fstat_r
                0x000000001ff6c6f8        0x0 build/objs/ci130x_vtable.o
 .rela.text._isatty_r
                0x000000001ff6c6f8        0x0 build/objs/ci130x_vtable.o
 .rela.text._lseek_r
                0x000000001ff6c6f8        0x0 build/objs/ci130x_vtable.o
 .rela.text._read_r
                0x000000001ff6c6f8        0x0 build/objs/ci130x_vtable.o

.lalign         0x000000001ff6c6f8        0x0
                0x000000001ff6c6f8                . = ALIGN (0x4)
                0x000000001ff6c6f8                PROVIDE (_data_lma = .)

.dalign         0x000000001ff6c6f8        0x0
                0x000000001ff6c6f8                . = ALIGN (0x4)
                0x000000001ff6c6f8                PROVIDE (_data = .)

.data           0x000000001ff6c6f8      0x6e8
 *(.gnu.linkonce.r.*)
 *(.data .data.*)
 .data.audio_capture
                0x000000001ff6c6f8        0xc C:\TMP\nn_denoise_rtc_sample.elf.t3mX4c.ltrans1.ltrans.o
 .data.audio_pre_tslt_out_info
                0x000000001ff6c704       0x54 C:\TMP\nn_denoise_rtc_sample.elf.t3mX4c.ltrans1.ltrans.o
 .data.ci_ssp   0x000000001ff6c758       0xe0 C:\TMP\nn_denoise_rtc_sample.elf.t3mX4c.ltrans1.ltrans.o
 .data.eq_config
                0x000000001ff6c838       0x78 C:\TMP\nn_denoise_rtc_sample.elf.t3mX4c.ltrans1.ltrans.o
 .data.impure_data
                0x000000001ff6c8b0       0x60 d:/software/yuyin/qiqiyinqiluntai/riscv-nuclei-elf-gcc-9.2.0.0/gcc_fix_raissrc/bin/../lib/gcc/riscv-nuclei-elf/9.2.0/../../../../riscv-nuclei-elf/lib/rv32imafc/ilp32f\libg_nano.a(lib_a-impure.o)
 *(.gnu.linkonce.d.*)
                0x000000001ff6c910                . = ALIGN (0x8)
                0x000000001ff6d110                PROVIDE (__global_pointer$ = (. + 0x800))
 *(.sdata .sdata.* .sdata*)
 .sdata.uxCriticalNesting
                0x000000001ff6c910        0x4 C:\TMP\nn_denoise_rtc_sample.elf.t3mX4c.ltrans0.ltrans.o
 .sdata2.exc_gain_quant_scal1
                0x000000001ff6c914        0x8 C:\TMP\nn_denoise_rtc_sample.elf.t3mX4c.ltrans0.ltrans.o
 .sdata2.mailbox_ports
                0x000000001ff6c91c        0x8 C:\TMP\nn_denoise_rtc_sample.elf.t3mX4c.ltrans0.ltrans.o
 .sdata.a0_string
                0x000000001ff6c924        0x3 C:\TMP\nn_denoise_rtc_sample.elf.t3mX4c.ltrans1.ltrans.o
 *fill*         0x000000001ff6c927        0x1 
 .sdata.a1_string
                0x000000001ff6c928        0x3 C:\TMP\nn_denoise_rtc_sample.elf.t3mX4c.ltrans1.ltrans.o
 *fill*         0x000000001ff6c92b        0x1 
 .sdata.a2_string
                0x000000001ff6c92c        0x3 C:\TMP\nn_denoise_rtc_sample.elf.t3mX4c.ltrans1.ltrans.o
 *fill*         0x000000001ff6c92f        0x1 
 .sdata.a3_string
                0x000000001ff6c930        0x3 C:\TMP\nn_denoise_rtc_sample.elf.t3mX4c.ltrans1.ltrans.o
 *fill*         0x000000001ff6c933        0x1 
 .sdata.a4_string
                0x000000001ff6c934        0x3 C:\TMP\nn_denoise_rtc_sample.elf.t3mX4c.ltrans1.ltrans.o
 *fill*         0x000000001ff6c937        0x1 
 .sdata.a5_string
                0x000000001ff6c938        0x3 C:\TMP\nn_denoise_rtc_sample.elf.t3mX4c.ltrans1.ltrans.o
 *fill*         0x000000001ff6c93b        0x1 
 .sdata.a6_string
                0x000000001ff6c93c        0x3 C:\TMP\nn_denoise_rtc_sample.elf.t3mX4c.ltrans1.ltrans.o
 *fill*         0x000000001ff6c93f        0x1 
 .sdata.a7_string
                0x000000001ff6c940        0x3 C:\TMP\nn_denoise_rtc_sample.elf.t3mX4c.ltrans1.ltrans.o
 *fill*         0x000000001ff6c943        0x1 
 .sdata.ai_denoise_config
                0x000000001ff6c944        0x8 C:\TMP\nn_denoise_rtc_sample.elf.t3mX4c.ltrans1.ltrans.o
 .sdata.cmd_file_start_addr_in_flash
                0x000000001ff6c94c        0x4 C:\TMP\nn_denoise_rtc_sample.elf.t3mX4c.ltrans1.ltrans.o
 .sdata.fp_string
                0x000000001ff6c950        0x3 C:\TMP\nn_denoise_rtc_sample.elf.t3mX4c.ltrans1.ltrans.o
 *fill*         0x000000001ff6c953        0x1 
 .sdata.gp_string
                0x000000001ff6c954        0x3 C:\TMP\nn_denoise_rtc_sample.elf.t3mX4c.ltrans1.ltrans.o
 *fill*         0x000000001ff6c957        0x1 
 .sdata.mcause_string
                0x000000001ff6c958        0x7 C:\TMP\nn_denoise_rtc_sample.elf.t3mX4c.ltrans1.ltrans.o
 *fill*         0x000000001ff6c95f        0x1 
 .sdata.mepc_string
                0x000000001ff6c960        0x5 C:\TMP\nn_denoise_rtc_sample.elf.t3mX4c.ltrans1.ltrans.o
 *fill*         0x000000001ff6c965        0x3 
 .sdata.mstatus_string
                0x000000001ff6c968        0x8 C:\TMP\nn_denoise_rtc_sample.elf.t3mX4c.ltrans1.ltrans.o
 .sdata.msubm_string
                0x000000001ff6c970        0x6 C:\TMP\nn_denoise_rtc_sample.elf.t3mX4c.ltrans1.ltrans.o
 *fill*         0x000000001ff6c976        0x2 
 .sdata.pre_rslt_out_sound_info
                0x000000001ff6c978        0x8 C:\TMP\nn_denoise_rtc_sample.elf.t3mX4c.ltrans1.ltrans.o
 .sdata.ra_string
                0x000000001ff6c980        0x3 C:\TMP\nn_denoise_rtc_sample.elf.t3mX4c.ltrans1.ltrans.o
 .sdata.rtc_denoise_func_status.6068
                0x000000001ff6c983        0x1 C:\TMP\nn_denoise_rtc_sample.elf.t3mX4c.ltrans1.ltrans.o
 .sdata.s10_string
                0x000000001ff6c984        0x4 C:\TMP\nn_denoise_rtc_sample.elf.t3mX4c.ltrans1.ltrans.o
 .sdata.s11_string
                0x000000001ff6c988        0x4 C:\TMP\nn_denoise_rtc_sample.elf.t3mX4c.ltrans1.ltrans.o
 .sdata.s1_string
                0x000000001ff6c98c        0x3 C:\TMP\nn_denoise_rtc_sample.elf.t3mX4c.ltrans1.ltrans.o
 *fill*         0x000000001ff6c98f        0x1 
 .sdata.s2_string
                0x000000001ff6c990        0x3 C:\TMP\nn_denoise_rtc_sample.elf.t3mX4c.ltrans1.ltrans.o
 *fill*         0x000000001ff6c993        0x1 
 .sdata.s3_string
                0x000000001ff6c994        0x3 C:\TMP\nn_denoise_rtc_sample.elf.t3mX4c.ltrans1.ltrans.o
 *fill*         0x000000001ff6c997        0x1 
 .sdata.s4_string
                0x000000001ff6c998        0x3 C:\TMP\nn_denoise_rtc_sample.elf.t3mX4c.ltrans1.ltrans.o
 *fill*         0x000000001ff6c99b        0x1 
 .sdata.s5_string
                0x000000001ff6c99c        0x3 C:\TMP\nn_denoise_rtc_sample.elf.t3mX4c.ltrans1.ltrans.o
 *fill*         0x000000001ff6c99f        0x1 
 .sdata.s6_string
                0x000000001ff6c9a0        0x3 C:\TMP\nn_denoise_rtc_sample.elf.t3mX4c.ltrans1.ltrans.o
 *fill*         0x000000001ff6c9a3        0x1 
 .sdata.s7_string
                0x000000001ff6c9a4        0x3 C:\TMP\nn_denoise_rtc_sample.elf.t3mX4c.ltrans1.ltrans.o
 *fill*         0x000000001ff6c9a7        0x1 
 .sdata.s8_string
                0x000000001ff6c9a8        0x3 C:\TMP\nn_denoise_rtc_sample.elf.t3mX4c.ltrans1.ltrans.o
 *fill*         0x000000001ff6c9ab        0x1 
 .sdata.s9_string
                0x000000001ff6c9ac        0x3 C:\TMP\nn_denoise_rtc_sample.elf.t3mX4c.ltrans1.ltrans.o
 *fill*         0x000000001ff6c9af        0x1 
 .sdata.sp_string
                0x000000001ff6c9b0        0x3 C:\TMP\nn_denoise_rtc_sample.elf.t3mX4c.ltrans1.ltrans.o
 *fill*         0x000000001ff6c9b3        0x1 
 .sdata.t0_string
                0x000000001ff6c9b4        0x3 C:\TMP\nn_denoise_rtc_sample.elf.t3mX4c.ltrans1.ltrans.o
 *fill*         0x000000001ff6c9b7        0x1 
 .sdata.t1_string
                0x000000001ff6c9b8        0x3 C:\TMP\nn_denoise_rtc_sample.elf.t3mX4c.ltrans1.ltrans.o
 *fill*         0x000000001ff6c9bb        0x1 
 .sdata.t2_string
                0x000000001ff6c9bc        0x3 C:\TMP\nn_denoise_rtc_sample.elf.t3mX4c.ltrans1.ltrans.o
 *fill*         0x000000001ff6c9bf        0x1 
 .sdata.t3_string
                0x000000001ff6c9c0        0x3 C:\TMP\nn_denoise_rtc_sample.elf.t3mX4c.ltrans1.ltrans.o
 *fill*         0x000000001ff6c9c3        0x1 
 .sdata.t4_string
                0x000000001ff6c9c4        0x3 C:\TMP\nn_denoise_rtc_sample.elf.t3mX4c.ltrans1.ltrans.o
 *fill*         0x000000001ff6c9c7        0x1 
 .sdata.t5_string
                0x000000001ff6c9c8        0x3 C:\TMP\nn_denoise_rtc_sample.elf.t3mX4c.ltrans1.ltrans.o
 *fill*         0x000000001ff6c9cb        0x1 
 .sdata.t6_string
                0x000000001ff6c9cc        0x3 C:\TMP\nn_denoise_rtc_sample.elf.t3mX4c.ltrans1.ltrans.o
 *fill*         0x000000001ff6c9cf        0x1 
 .sdata.tp_string
                0x000000001ff6c9d0        0x3 C:\TMP\nn_denoise_rtc_sample.elf.t3mX4c.ltrans1.ltrans.o
 *fill*         0x000000001ff6c9d3        0x1 
 .sdata.trans_blk
                0x000000001ff6c9d4        0x2 C:\TMP\nn_denoise_rtc_sample.elf.t3mX4c.ltrans1.ltrans.o
 .sdata.trans_off
                0x000000001ff6c9d6        0x2 C:\TMP\nn_denoise_rtc_sample.elf.t3mX4c.ltrans1.ltrans.o
 .sdata2.host_mic_sound_info
                0x000000001ff6c9d8        0x8 C:\TMP\nn_denoise_rtc_sample.elf.t3mX4c.ltrans1.ltrans.o
 .sdata2.iis_out_audio_config
                0x000000001ff6c9e0        0x5 C:\TMP\nn_denoise_rtc_sample.elf.t3mX4c.ltrans1.ltrans.o
 *fill*         0x000000001ff6c9e5        0x3 
 .sdata.currentHeapEnd.5595
                0x000000001ff6c9e8        0x4 ../../../libs\libnewlib_port.a(sbrk.o)
 .sdata._impure_ptr
                0x000000001ff6c9ec        0x4 d:/software/yuyin/qiqiyinqiluntai/riscv-nuclei-elf-gcc-9.2.0.0/gcc_fix_raissrc/bin/../lib/gcc/riscv-nuclei-elf/9.2.0/../../../../riscv-nuclei-elf/lib/rv32imafc/ilp32f\libg_nano.a(lib_a-impure.o)
                0x000000001ff6c9ec                _impure_ptr
 .sdata2._global_impure_ptr
                0x000000001ff6c9f0        0x4 d:/software/yuyin/qiqiyinqiluntai/riscv-nuclei-elf-gcc-9.2.0.0/gcc_fix_raissrc/bin/../lib/gcc/riscv-nuclei-elf/9.2.0/../../../../riscv-nuclei-elf/lib/rv32imafc/ilp32f\libg_nano.a(lib_a-impure.o)
                0x000000001ff6c9f0                _global_impure_ptr
 .sdata         0x000000001ff6c9f4        0x4 d:/software/yuyin/qiqiyinqiluntai/riscv-nuclei-elf-gcc-9.2.0.0/gcc_fix_raissrc/bin/../lib/gcc/riscv-nuclei-elf/9.2.0/../../../../riscv-nuclei-elf/lib/rv32imafc/ilp32f\libm.a(lib_a-s_lib_ver.o)
                0x000000001ff6c9f4                __fdlib_version
 *(.gnu.linkonce.s.*)
                0x000000001ff6c9f8                . = ALIGN (0x8)
 *(.srodata.cst16)
 *(.srodata.cst8)
 .srodata.cst8  0x000000001ff6c9f8      0x138 C:\TMP\nn_denoise_rtc_sample.elf.t3mX4c.ltrans0.ltrans.o
 .srodata.cst8  0x000000001ff6cb30        0x8 d:/software/yuyin/qiqiyinqiluntai/riscv-nuclei-elf-gcc-9.2.0.0/gcc_fix_raissrc/bin/../lib/gcc/riscv-nuclei-elf/9.2.0/../../../../riscv-nuclei-elf/lib/rv32imafc/ilp32f\libm.a(lib_a-s_floor.o)
 .srodata.cst8  0x000000001ff6cb38        0x8 d:/software/yuyin/qiqiyinqiluntai/riscv-nuclei-elf-gcc-9.2.0.0/gcc_fix_raissrc/bin/../lib/gcc/riscv-nuclei-elf/9.2.0/../../../../riscv-nuclei-elf/lib/rv32imafc/ilp32f\libm.a(lib_a-w_acos.o)
 .srodata.cst8  0x000000001ff6cb38       0x20 d:/software/yuyin/qiqiyinqiluntai/riscv-nuclei-elf-gcc-9.2.0.0/gcc_fix_raissrc/bin/../lib/gcc/riscv-nuclei-elf/9.2.0/../../../../riscv-nuclei-elf/lib/rv32imafc/ilp32f\libm.a(lib_a-w_exp.o)
 .srodata.cst8  0x000000001ff6cb58       0x10 d:/software/yuyin/qiqiyinqiluntai/riscv-nuclei-elf-gcc-9.2.0.0/gcc_fix_raissrc/bin/../lib/gcc/riscv-nuclei-elf/9.2.0/../../../../riscv-nuclei-elf/lib/rv32imafc/ilp32f\libm.a(lib_a-wf_pow.o)
                                         0x28 (size before relaxing)
 .srodata.cst8  0x000000001ff6cb68       0x10 d:/software/yuyin/qiqiyinqiluntai/riscv-nuclei-elf-gcc-9.2.0.0/gcc_fix_raissrc/bin/../lib/gcc/riscv-nuclei-elf/9.2.0/../../../../riscv-nuclei-elf/lib/rv32imafc/ilp32f\libm.a(lib_a-w_log.o)
 .srodata.cst8  0x000000001ff6cb68       0x60 d:/software/yuyin/qiqiyinqiluntai/riscv-nuclei-elf-gcc-9.2.0.0/gcc_fix_raissrc/bin/../lib/gcc/riscv-nuclei-elf/9.2.0/../../../../riscv-nuclei-elf/lib/rv32imafc/ilp32f\libm.a(lib_a-e_acos.o)
                                         0x78 (size before relaxing)
 .srodata.cst8  0x000000001ff6cbc8       0x50 d:/software/yuyin/qiqiyinqiluntai/riscv-nuclei-elf-gcc-9.2.0.0/gcc_fix_raissrc/bin/../lib/gcc/riscv-nuclei-elf/9.2.0/../../../../riscv-nuclei-elf/lib/rv32imafc/ilp32f\libm.a(lib_a-e_exp.o)
                                         0x70 (size before relaxing)
 .srodata.cst8  0x000000001ff6cc18       0x50 d:/software/yuyin/qiqiyinqiluntai/riscv-nuclei-elf-gcc-9.2.0.0/gcc_fix_raissrc/bin/../lib/gcc/riscv-nuclei-elf/9.2.0/../../../../riscv-nuclei-elf/lib/rv32imafc/ilp32f\libm.a(lib_a-e_log.o)
                                         0x78 (size before relaxing)
 .srodata.cst8  0x000000001ff6cc68        0x8 d:/software/yuyin/qiqiyinqiluntai/riscv-nuclei-elf-gcc-9.2.0.0/gcc_fix_raissrc/bin/../lib/gcc/riscv-nuclei-elf/9.2.0/../../../../riscv-nuclei-elf/lib/rv32imafc/ilp32f\libm.a(lib_a-s_nan.o)
 *(.srodata.cst4)
 .srodata.cst4  0x000000001ff6cc70       0xe0 C:\TMP\nn_denoise_rtc_sample.elf.t3mX4c.ltrans0.ltrans.o
 .srodata.cst4  0x000000001ff6cd50       0x10 C:\TMP\nn_denoise_rtc_sample.elf.t3mX4c.ltrans1.ltrans.o
                                         0x1c (size before relaxing)
 .srodata.cst4  0x000000001ff6cd60        0x8 d:/software/yuyin/qiqiyinqiluntai/riscv-nuclei-elf-gcc-9.2.0.0/gcc_fix_raissrc/bin/../lib/gcc/riscv-nuclei-elf/9.2.0/../../../../riscv-nuclei-elf/lib/rv32imafc/ilp32f\libm.a(lib_a-wf_pow.o)
 .srodata.cst4  0x000000001ff6cd60       0x6c d:/software/yuyin/qiqiyinqiluntai/riscv-nuclei-elf-gcc-9.2.0.0/gcc_fix_raissrc/bin/../lib/gcc/riscv-nuclei-elf/9.2.0/../../../../riscv-nuclei-elf/lib/rv32imafc/ilp32f\libm.a(lib_a-ef_pow.o)
                                         0x84 (size before relaxing)
 .srodata.cst4  0x000000001ff6cdcc        0x4 d:/software/yuyin/qiqiyinqiluntai/riscv-nuclei-elf-gcc-9.2.0.0/gcc_fix_raissrc/bin/../lib/gcc/riscv-nuclei-elf/9.2.0/../../../../riscv-nuclei-elf/lib/rv32imafc/ilp32f\libm.a(lib_a-sf_nan.o)
 .srodata.cst4  0x000000001ff6cdd0        0x8 d:/software/yuyin/qiqiyinqiluntai/riscv-nuclei-elf-gcc-9.2.0.0/gcc_fix_raissrc/bin/../lib/gcc/riscv-nuclei-elf/9.2.0/../../../../riscv-nuclei-elf/lib/rv32imafc/ilp32f\libm.a(lib_a-sf_scalbn.o)
                                         0x10 (size before relaxing)
 *(.srodata.cst2)
 *(.srodata .srodata.*)
 .srodata       0x000000001ff6cdd8        0x8 d:/software/yuyin/qiqiyinqiluntai/riscv-nuclei-elf-gcc-9.2.0.0/gcc_fix_raissrc/bin/../lib/gcc/riscv-nuclei-elf/9.2.0/../../../../riscv-nuclei-elf/lib/rv32imafc/ilp32f\libm.a(lib_a-sf_rint.o)
                0x000000001ff6cde0                . = ALIGN (0x4)
                0x000000001ff6cde0                PROVIDE (_edata = .)
                [!provide]                        PROVIDE (edata = .)
                [!provide]                        PROVIDE (_fbss = .)
                0x000000001ff6cde0                PROVIDE (__bss_start = .)

.bss            0x000000001ff6cde0     0x1ec4
 *(.sbss*)
 .sbss.asrtop_asr_system_continue_semaphore
                0x000000001ff6cde0        0x4 C:\TMP\nn_denoise_rtc_sample.elf.t3mX4c.ltrans0.ltrans.o
                0x000000001ff6cde0                asrtop_asr_system_continue_semaphore
 .sbss.asrtop_asr_system_create_model_semaphore
                0x000000001ff6cde4        0x4 C:\TMP\nn_denoise_rtc_sample.elf.t3mX4c.ltrans0.ltrans.o
                0x000000001ff6cde4                asrtop_asr_system_create_model_semaphore
 .sbss.asrtop_asr_system_pause_semaphore
                0x000000001ff6cde8        0x4 C:\TMP\nn_denoise_rtc_sample.elf.t3mX4c.ltrans0.ltrans.o
                0x000000001ff6cde8                asrtop_asr_system_pause_semaphore
 .sbss.boot_sync_bnpu.lto_priv.0
                0x000000001ff6cdec        0x4 C:\TMP\nn_denoise_rtc_sample.elf.t3mX4c.ltrans0.ltrans.o
                0x000000001ff6cdec                boot_sync_bnpu.lto_priv.0
 .sbss.boot_sync_host.lto_priv.0
                0x000000001ff6cdf0        0x4 C:\TMP\nn_denoise_rtc_sample.elf.t3mX4c.ltrans0.ltrans.o
                0x000000001ff6cdf0                boot_sync_host.lto_priv.0
 .sbss.cinv_hotid_m.lto_priv.0
                0x000000001ff6cdf4        0x4 C:\TMP\nn_denoise_rtc_sample.elf.t3mX4c.ltrans0.ltrans.o
                0x000000001ff6cdf4                cinv_hotid_m.lto_priv.0
 .sbss.decoder_createmodel_done_flag
                0x000000001ff6cdf8        0x1 C:\TMP\nn_denoise_rtc_sample.elf.t3mX4c.ltrans0.ltrans.o
 .sbss.decoder_manage_is_decodeing
                0x000000001ff6cdf9        0x1 C:\TMP\nn_denoise_rtc_sample.elf.t3mX4c.ltrans0.ltrans.o
 .sbss.decoder_task_could_init
                0x000000001ff6cdfa        0x1 C:\TMP\nn_denoise_rtc_sample.elf.t3mX4c.ltrans0.ltrans.o
 .sbss.decoder_task_vadfe_clear_done_flag
                0x000000001ff6cdfb        0x1 C:\TMP\nn_denoise_rtc_sample.elf.t3mX4c.ltrans0.ltrans.o
 .sbss.flash_ctl_xSemaphore
                0x000000001ff6cdfc        0x4 C:\TMP\nn_denoise_rtc_sample.elf.t3mX4c.ltrans0.ltrans.o
                0x000000001ff6cdfc                flash_ctl_xSemaphore
 .sbss.flash_req_op_done_event_group.lto_priv.0
                0x000000001ff6ce00        0x4 C:\TMP\nn_denoise_rtc_sample.elf.t3mX4c.ltrans0.ltrans.o
                0x000000001ff6ce00                flash_req_op_done_event_group.lto_priv.0
 .sbss.g_feb_total_count.lto_priv.0
                0x000000001ff6ce04        0x2 C:\TMP\nn_denoise_rtc_sample.elf.t3mX4c.ltrans0.ltrans.o
                0x000000001ff6ce04                g_feb_total_count.lto_priv.0
 *fill*         0x000000001ff6ce06        0x2 
 .sbss.g_flash_base_addr.lto_priv.0
                0x000000001ff6ce08        0x4 C:\TMP\nn_denoise_rtc_sample.elf.t3mX4c.ltrans0.ltrans.o
                0x000000001ff6ce08                g_flash_base_addr.lto_priv.0
 .sbss.g_prun_count_max
                0x000000001ff6ce0c        0x4 C:\TMP\nn_denoise_rtc_sample.elf.t3mX4c.ltrans0.ltrans.o
 .sbss.ifft_data_queue
                0x000000001ff6ce10        0x4 C:\TMP\nn_denoise_rtc_sample.elf.t3mX4c.ltrans0.ltrans.o
                0x000000001ff6ce10                ifft_data_queue
 .sbss.is_burn_down
                0x000000001ff6ce14        0x1 C:\TMP\nn_denoise_rtc_sample.elf.t3mX4c.ltrans0.ltrans.o
 .sbss.is_check_err
                0x000000001ff6ce15        0x1 C:\TMP\nn_denoise_rtc_sample.elf.t3mX4c.ltrans0.ltrans.o
 .sbss.is_dnn_err
                0x000000001ff6ce16        0x1 C:\TMP\nn_denoise_rtc_sample.elf.t3mX4c.ltrans0.ltrans.o
 .sbss.is_por_err
                0x000000001ff6ce17        0x1 C:\TMP\nn_denoise_rtc_sample.elf.t3mX4c.ltrans0.ltrans.o
 .sbss.is_read_down
                0x000000001ff6ce18        0x1 C:\TMP\nn_denoise_rtc_sample.elf.t3mX4c.ltrans0.ltrans.o
 .sbss.mailbox_is_busy
                0x000000001ff6ce19        0x1 C:\TMP\nn_denoise_rtc_sample.elf.t3mX4c.ltrans0.ltrans.o
 *fill*         0x000000001ff6ce1a        0x2 
 .sbss.mailbox_semaphore.lto_priv.0
                0x000000001ff6ce1c        0x4 C:\TMP\nn_denoise_rtc_sample.elf.t3mX4c.ltrans0.ltrans.o
                0x000000001ff6ce1c                mailbox_semaphore.lto_priv.0
 .sbss.nuclear_com_callback_func.lto_priv.0
                0x000000001ff6ce20        0x4 C:\TMP\nn_denoise_rtc_sample.elf.t3mX4c.ltrans0.ltrans.o
                0x000000001ff6ce20                nuclear_com_callback_func.lto_priv.0
 .sbss.nuclear_com_semaphore
                0x000000001ff6ce24        0x4 C:\TMP\nn_denoise_rtc_sample.elf.t3mX4c.ltrans0.ltrans.o
                0x000000001ff6ce24                nuclear_com_semaphore
 .sbss.pxCurrentTCB
                0x000000001ff6ce28        0x4 C:\TMP\nn_denoise_rtc_sample.elf.t3mX4c.ltrans0.ltrans.o
                0x000000001ff6ce28                pxCurrentTCB
 .sbss.pxDelayedTaskList.lto_priv.0
                0x000000001ff6ce2c        0x4 C:\TMP\nn_denoise_rtc_sample.elf.t3mX4c.ltrans0.ltrans.o
                0x000000001ff6ce2c                pxDelayedTaskList.lto_priv.0
 .sbss.pxOverflowDelayedTaskList.lto_priv.0
                0x000000001ff6ce30        0x4 C:\TMP\nn_denoise_rtc_sample.elf.t3mX4c.ltrans0.ltrans.o
                0x000000001ff6ce30                pxOverflowDelayedTaskList.lto_priv.0
 .sbss.sg_req_change_model
                0x000000001ff6ce34        0x1 C:\TMP\nn_denoise_rtc_sample.elf.t3mX4c.ltrans0.ltrans.o
 *fill*         0x000000001ff6ce35        0x3 
 .sbss.sys_err_flag
                0x000000001ff6ce38        0x4 C:\TMP\nn_denoise_rtc_sample.elf.t3mX4c.ltrans0.ltrans.o
 .sbss.uxCurrentNumberOfTasks.lto_priv.0
                0x000000001ff6ce3c        0x4 C:\TMP\nn_denoise_rtc_sample.elf.t3mX4c.ltrans0.ltrans.o
                0x000000001ff6ce3c                uxCurrentNumberOfTasks.lto_priv.0
 .sbss.uxSchedulerSuspended.lto_priv.0
                0x000000001ff6ce40        0x4 C:\TMP\nn_denoise_rtc_sample.elf.t3mX4c.ltrans0.ltrans.o
                0x000000001ff6ce40                uxSchedulerSuspended.lto_priv.0
 .sbss.uxTaskNumber.lto_priv.0
                0x000000001ff6ce44        0x4 C:\TMP\nn_denoise_rtc_sample.elf.t3mX4c.ltrans0.ltrans.o
                0x000000001ff6ce44                uxTaskNumber.lto_priv.0
 .sbss.uxTopReadyPriority.lto_priv.0
                0x000000001ff6ce48        0x4 C:\TMP\nn_denoise_rtc_sample.elf.t3mX4c.ltrans0.ltrans.o
                0x000000001ff6ce48                uxTopReadyPriority.lto_priv.0
 .sbss.xNumOfOverflows.lto_priv.0
                0x000000001ff6ce4c        0x4 C:\TMP\nn_denoise_rtc_sample.elf.t3mX4c.ltrans0.ltrans.o
                0x000000001ff6ce4c                xNumOfOverflows.lto_priv.0
 .sbss.xSchedulerRunning.lto_priv.0
                0x000000001ff6ce50        0x4 C:\TMP\nn_denoise_rtc_sample.elf.t3mX4c.ltrans0.ltrans.o
                0x000000001ff6ce50                xSchedulerRunning.lto_priv.0
 .sbss.xTickCount.lto_priv.0
                0x000000001ff6ce54        0x4 C:\TMP\nn_denoise_rtc_sample.elf.t3mX4c.ltrans0.ltrans.o
                0x000000001ff6ce54                xTickCount.lto_priv.0
 .sbss.xTimerQueue.lto_priv.0
                0x000000001ff6ce58        0x4 C:\TMP\nn_denoise_rtc_sample.elf.t3mX4c.ltrans0.ltrans.o
                0x000000001ff6ce58                xTimerQueue.lto_priv.0
 .sbss.xYieldPending.lto_priv.0
                0x000000001ff6ce5c        0x4 C:\TMP\nn_denoise_rtc_sample.elf.t3mX4c.ltrans0.ltrans.o
                0x000000001ff6ce5c                xYieldPending.lto_priv.0
 .sbss.LDO_trim_value_crc
                0x000000001ff6ce60        0x1 C:\TMP\nn_denoise_rtc_sample.elf.t3mX4c.ltrans1.ltrans.o
 *fill*         0x000000001ff6ce61        0x3 
 .sbss.UART_CLK
                0x000000001ff6ce64        0x4 C:\TMP\nn_denoise_rtc_sample.elf.t3mX4c.ltrans1.ltrans.o
 .sbss.ci_flash_data_info_init_flag
                0x000000001ff6ce68        0x1 C:\TMP\nn_denoise_rtc_sample.elf.t3mX4c.ltrans1.ltrans.o
 *fill*         0x000000001ff6ce69        0x3 
 .sbss.ci_speex_decode_hander
                0x000000001ff6ce6c        0x4 C:\TMP\nn_denoise_rtc_sample.elf.t3mX4c.ltrans1.ltrans.o
 .sbss.ci_speex_encode_hander
                0x000000001ff6ce70        0x4 C:\TMP\nn_denoise_rtc_sample.elf.t3mX4c.ltrans1.ltrans.o
 .sbss.cinv_mutex
                0x000000001ff6ce74        0x4 C:\TMP\nn_denoise_rtc_sample.elf.t3mX4c.ltrans1.ltrans.o
 .sbss.cnt.7384
                0x000000001ff6ce78        0x4 C:\TMP\nn_denoise_rtc_sample.elf.t3mX4c.ltrans1.ltrans.o
 .sbss.efuse_writer
                0x000000001ff6ce7c        0x4 C:\TMP\nn_denoise_rtc_sample.elf.t3mX4c.ltrans1.ltrans.o
 .sbss.eq_msg_recv_queue
                0x000000001ff6ce80        0x4 C:\TMP\nn_denoise_rtc_sample.elf.t3mX4c.ltrans1.ltrans.o
 .sbss.eq_port  0x000000001ff6ce84        0x1 C:\TMP\nn_denoise_rtc_sample.elf.t3mX4c.ltrans1.ltrans.o
 *fill*         0x000000001ff6ce85        0x3 
 .sbss.g_audio_rx_index
                0x000000001ff6ce88        0x4 C:\TMP\nn_denoise_rtc_sample.elf.t3mX4c.ltrans1.ltrans.o
 .sbss.g_dma_channel_callback
                0x000000001ff6ce8c        0x8 C:\TMP\nn_denoise_rtc_sample.elf.t3mX4c.ltrans1.ltrans.o
 .sbss.g_dma_translate_ok
                0x000000001ff6ce94        0x8 C:\TMP\nn_denoise_rtc_sample.elf.t3mX4c.ltrans1.ltrans.o
 .sbss.g_drc_param
                0x000000001ff6ce9c        0x4 C:\TMP\nn_denoise_rtc_sample.elf.t3mX4c.ltrans1.ltrans.o
 .sbss.g_eq_param
                0x000000001ff6cea0        0x4 C:\TMP\nn_denoise_rtc_sample.elf.t3mX4c.ltrans1.ltrans.o
 .sbss.g_pa_pin_valid_level
                0x000000001ff6cea4        0x4 C:\TMP\nn_denoise_rtc_sample.elf.t3mX4c.ltrans1.ltrans.o
 .sbss.g_start_handle_ifft_data_flag
                0x000000001ff6cea8        0x1 C:\TMP\nn_denoise_rtc_sample.elf.t3mX4c.ltrans1.ltrans.o
 .sbss.iis_pad_for_clk_input_flag
                0x000000001ff6cea9        0x1 C:\TMP\nn_denoise_rtc_sample.elf.t3mX4c.ltrans1.ltrans.o
 .sbss.is_convert_left_right
                0x000000001ff6ceaa        0x1 C:\TMP\nn_denoise_rtc_sample.elf.t3mX4c.ltrans1.ltrans.o
 *fill*         0x000000001ff6ceab        0x1 
 .sbss.max_cmd_string_table_size
                0x000000001ff6ceac        0x4 C:\TMP\nn_denoise_rtc_sample.elf.t3mX4c.ltrans1.ltrans.o
 .sbss.max_command_number
                0x000000001ff6ceb0        0x2 C:\TMP\nn_denoise_rtc_sample.elf.t3mX4c.ltrans1.ltrans.o
 .sbss.max_special_word_number
                0x000000001ff6ceb2        0x2 C:\TMP\nn_denoise_rtc_sample.elf.t3mX4c.ltrans1.ltrans.o
 .sbss.network_msg_recv_queue
                0x000000001ff6ceb4        0x4 C:\TMP\nn_denoise_rtc_sample.elf.t3mX4c.ltrans1.ltrans.o
 .sbss.pxCurrentTimerList
                0x000000001ff6ceb8        0x4 C:\TMP\nn_denoise_rtc_sample.elf.t3mX4c.ltrans1.ltrans.o
 .sbss.pxEnd    0x000000001ff6cebc        0x4 C:\TMP\nn_denoise_rtc_sample.elf.t3mX4c.ltrans1.ltrans.o
 .sbss.pxOverflowTimerList
                0x000000001ff6cec0        0x4 C:\TMP\nn_denoise_rtc_sample.elf.t3mX4c.ltrans1.ltrans.o
 .sbss.tmp_voice_addr
                0x000000001ff6cec4        0x4 C:\TMP\nn_denoise_rtc_sample.elf.t3mX4c.ltrans1.ltrans.o
 .sbss.trans_id
                0x000000001ff6cec8        0x4 C:\TMP\nn_denoise_rtc_sample.elf.t3mX4c.ltrans1.ltrans.o
 .sbss.uart_dma_trans_done
                0x000000001ff6cecc        0x1 C:\TMP\nn_denoise_rtc_sample.elf.t3mX4c.ltrans1.ltrans.o
 *fill*         0x000000001ff6cecd        0x3 
 .sbss.uxDeletedTasksWaitingCleanUp
                0x000000001ff6ced0        0x4 C:\TMP\nn_denoise_rtc_sample.elf.t3mX4c.ltrans1.ltrans.o
 .sbss.uxPendedTicks
                0x000000001ff6ced4        0x4 C:\TMP\nn_denoise_rtc_sample.elf.t3mX4c.ltrans1.ltrans.o
 .sbss.xBlockAllocatedBit
                0x000000001ff6ced8        0x4 C:\TMP\nn_denoise_rtc_sample.elf.t3mX4c.ltrans1.ltrans.o
 .sbss.xFreeBytesRemaining
                0x000000001ff6cedc        0x4 C:\TMP\nn_denoise_rtc_sample.elf.t3mX4c.ltrans1.ltrans.o
 .sbss.xIdleTaskHandle
                0x000000001ff6cee0        0x4 C:\TMP\nn_denoise_rtc_sample.elf.t3mX4c.ltrans1.ltrans.o
 .sbss.xLastTime.4367
                0x000000001ff6cee4        0x4 C:\TMP\nn_denoise_rtc_sample.elf.t3mX4c.ltrans1.ltrans.o
 .sbss.xMinimumEverFreeBytesRemaining
                0x000000001ff6cee8        0x4 C:\TMP\nn_denoise_rtc_sample.elf.t3mX4c.ltrans1.ltrans.o
 .sbss.xNextTaskUnblockTime
                0x000000001ff6ceec        0x4 C:\TMP\nn_denoise_rtc_sample.elf.t3mX4c.ltrans1.ltrans.o
 .sbss.xSpeexPlayStreamBuffer
                0x000000001ff6cef0        0x4 C:\TMP\nn_denoise_rtc_sample.elf.t3mX4c.ltrans1.ltrans.o
 .sbss.xSpeexRecordStreamBuffer
                0x000000001ff6cef4        0x4 C:\TMP\nn_denoise_rtc_sample.elf.t3mX4c.ltrans1.ltrans.o
 .sbss.xStart   0x000000001ff6cef8        0x8 C:\TMP\nn_denoise_rtc_sample.elf.t3mX4c.ltrans1.ltrans.o
 .sbss.xTimerTaskHandle
                0x000000001ff6cf00        0x4 C:\TMP\nn_denoise_rtc_sample.elf.t3mX4c.ltrans1.ltrans.o
 .sbss.heapBytesRemaining
                0x000000001ff6cf04        0x4 ../../../libs\libnewlib_port.a(sbrk.o)
 .sbss._global_atexit
                0x000000001ff6cf08        0x4 d:/software/yuyin/qiqiyinqiluntai/riscv-nuclei-elf-gcc-9.2.0.0/gcc_fix_raissrc/bin/../lib/gcc/riscv-nuclei-elf/9.2.0/../../../../riscv-nuclei-elf/lib/rv32imafc/ilp32f\libg_nano.a(lib_a-__call_atexit.o)
                0x000000001ff6cf08                _global_atexit
 .sbss.__malloc_free_list
                0x000000001ff6cf0c        0x4 d:/software/yuyin/qiqiyinqiluntai/riscv-nuclei-elf-gcc-9.2.0.0/gcc_fix_raissrc/bin/../lib/gcc/riscv-nuclei-elf/9.2.0/../../../../riscv-nuclei-elf/lib/rv32imafc/ilp32f\libg_nano.a(lib_a-nano-mallocr.o)
                0x000000001ff6cf0c                __malloc_free_list
 .sbss.__malloc_sbrk_start
                0x000000001ff6cf10        0x4 d:/software/yuyin/qiqiyinqiluntai/riscv-nuclei-elf-gcc-9.2.0.0/gcc_fix_raissrc/bin/../lib/gcc/riscv-nuclei-elf/9.2.0/../../../../riscv-nuclei-elf/lib/rv32imafc/ilp32f\libg_nano.a(lib_a-nano-mallocr.o)
                0x000000001ff6cf10                __malloc_sbrk_start
 *(.gnu.linkonce.sb.*)
 *(.bss .bss.*)
 .bss.cinv_mang_r.lto_priv.0
                0x000000001ff6cf14        0xc C:\TMP\nn_denoise_rtc_sample.elf.t3mX4c.ltrans0.ltrans.o
                0x000000001ff6cf14                cinv_mang_r.lto_priv.0
 .bss.cinv_rd_io_buf.lto_priv.0
                0x000000001ff6cf20      0x100 C:\TMP\nn_denoise_rtc_sample.elf.t3mX4c.ltrans0.ltrans.o
                0x000000001ff6cf20                cinv_rd_io_buf.lto_priv.0
 .bss.cinv_wr_io_buf.lto_priv.0
                0x000000001ff6d020      0x100 C:\TMP\nn_denoise_rtc_sample.elf.t3mX4c.ltrans0.ltrans.o
                0x000000001ff6d020                cinv_wr_io_buf.lto_priv.0
 .bss.cm.lto_priv.0
                0x000000001ff6d120      0x554 C:\TMP\nn_denoise_rtc_sample.elf.t3mX4c.ltrans0.ltrans.o
                0x000000001ff6d120                cm.lto_priv.0
 .bss.cmd_info_variable
                0x000000001ff6d674       0x34 C:\TMP\nn_denoise_rtc_sample.elf.t3mX4c.ltrans0.ltrans.o
                0x000000001ff6d674                cmd_info_variable
 .bss.eq_gain_str
                0x000000001ff6d6a8       0x28 C:\TMP\nn_denoise_rtc_sample.elf.t3mX4c.ltrans0.ltrans.o
 .bss.g_model_parameter_info
                0x000000001ff6d6d0       0x1c C:\TMP\nn_denoise_rtc_sample.elf.t3mX4c.ltrans0.ltrans.o
 .bss.init_eq_drc_val
                0x000000001ff6d6ec       0x44 C:\TMP\nn_denoise_rtc_sample.elf.t3mX4c.ltrans0.ltrans.o
                0x000000001ff6d6ec                init_eq_drc_val
 .bss.nuclear_com_serve_irq_cal
                0x000000001ff6d730       0x24 C:\TMP\nn_denoise_rtc_sample.elf.t3mX4c.ltrans0.ltrans.o
                0x000000001ff6d730                nuclear_com_serve_irq_cal
 .bss.pxReadyTasksLists.lto_priv.0
                0x000000001ff6d754       0x78 C:\TMP\nn_denoise_rtc_sample.elf.t3mX4c.ltrans0.ltrans.o
                0x000000001ff6d754                pxReadyTasksLists.lto_priv.0
 .bss.rcv_ifft_data_msg
                0x000000001ff6d7cc      0x2bc C:\TMP\nn_denoise_rtc_sample.elf.t3mX4c.ltrans0.ltrans.o
                0x000000001ff6d7cc                rcv_ifft_data_msg
 .bss.remote_call_module
                0x000000001ff6da88       0x5c C:\TMP\nn_denoise_rtc_sample.elf.t3mX4c.ltrans0.ltrans.o
                0x000000001ff6da88                remote_call_module
 .bss.send_ifft_data_msg
                0x000000001ff6dae4      0x2bc C:\TMP\nn_denoise_rtc_sample.elf.t3mX4c.ltrans0.ltrans.o
 .bss.speexOutDecFrame
                0x000000001ff6dda0      0x280 C:\TMP\nn_denoise_rtc_sample.elf.t3mX4c.ltrans0.ltrans.o
                0x000000001ff6dda0                speexOutDecFrame
 .bss.speex_dst_addr
                0x000000001ff6e020       0x40 C:\TMP\nn_denoise_rtc_sample.elf.t3mX4c.ltrans0.ltrans.o
                0x000000001ff6e020                speex_dst_addr
 .bss.speex_rx_temp
                0x000000001ff6e060      0x280 C:\TMP\nn_denoise_rtc_sample.elf.t3mX4c.ltrans0.ltrans.o
                0x000000001ff6e060                speex_rx_temp
 .bss.xDelayedTaskList1.5214
                0x000000001ff6e2e0       0x14 C:\TMP\nn_denoise_rtc_sample.elf.t3mX4c.ltrans0.ltrans.o
 .bss.xDelayedTaskList2.5215
                0x000000001ff6e2f4       0x14 C:\TMP\nn_denoise_rtc_sample.elf.t3mX4c.ltrans0.ltrans.o
 .bss.xPendingReadyList.lto_priv.0
                0x000000001ff6e308       0x14 C:\TMP\nn_denoise_rtc_sample.elf.t3mX4c.ltrans0.ltrans.o
                0x000000001ff6e308                xPendingReadyList.lto_priv.0
 .bss.xSuspendedTaskList.lto_priv.0
                0x000000001ff6e31c       0x14 C:\TMP\nn_denoise_rtc_sample.elf.t3mX4c.ltrans0.ltrans.o
                0x000000001ff6e31c                xSuspendedTaskList.lto_priv.0
 .bss.xTasksWaitingTermination.lto_priv.0
                0x000000001ff6e330       0x14 C:\TMP\nn_denoise_rtc_sample.elf.t3mX4c.ltrans0.ltrans.o
                0x000000001ff6e330                xTasksWaitingTermination.lto_priv.0
 .bss.cias_speex_wb_mode
                0x000000001ff6e344       0x34 C:\TMP\nn_denoise_rtc_sample.elf.t3mX4c.ltrans1.ltrans.o
 .bss.cmd_file_header
                0x000000001ff6e378       0x19 C:\TMP\nn_denoise_rtc_sample.elf.t3mX4c.ltrans1.ltrans.o
 *fill*         0x000000001ff6e391        0x3 
 .bss.g_audio_rx_temp
                0x000000001ff6e394       0x2b C:\TMP\nn_denoise_rtc_sample.elf.t3mX4c.ltrans1.ltrans.o
 *fill*         0x000000001ff6e3bf        0x1 
 .bss.g_gpio_callback_list_root
                0x000000001ff6e3c0       0x30 C:\TMP\nn_denoise_rtc_sample.elf.t3mX4c.ltrans1.ltrans.o
 .bss.iic0_status
                0x000000001ff6e3f0       0x28 C:\TMP\nn_denoise_rtc_sample.elf.t3mX4c.ltrans1.ltrans.o
 .bss.model_header
                0x000000001ff6e418       0x1c C:\TMP\nn_denoise_rtc_sample.elf.t3mX4c.ltrans1.ltrans.o
 .bss.partition_table
                0x000000001ff6e434      0x116 C:\TMP\nn_denoise_rtc_sample.elf.t3mX4c.ltrans1.ltrans.o
 *fill*         0x000000001ff6e54a        0x2 
 .bss.printk_string
                0x000000001ff6e54c      0x200 C:\TMP\nn_denoise_rtc_sample.elf.t3mX4c.ltrans1.ltrans.o
 .bss.recv_pcm_buf
                0x000000001ff6e74c       0x2b C:\TMP\nn_denoise_rtc_sample.elf.t3mX4c.ltrans1.ltrans.o
 *fill*         0x000000001ff6e777        0x1 
 .bss.sg_init_tmp_str
                0x000000001ff6e778       0x14 C:\TMP\nn_denoise_rtc_sample.elf.t3mX4c.ltrans1.ltrans.o
 .bss.speex_play_data
                0x000000001ff6e78c      0x200 C:\TMP\nn_denoise_rtc_sample.elf.t3mX4c.ltrans1.ltrans.o
 .bss.speex_play_temp
                0x000000001ff6e98c      0x200 C:\TMP\nn_denoise_rtc_sample.elf.t3mX4c.ltrans1.ltrans.o
 .bss.xActiveTimerList1.4413
                0x000000001ff6eb8c       0x14 C:\TMP\nn_denoise_rtc_sample.elf.t3mX4c.ltrans1.ltrans.o
 .bss.xActiveTimerList2.4414
                0x000000001ff6eba0       0x14 C:\TMP\nn_denoise_rtc_sample.elf.t3mX4c.ltrans1.ltrans.o
 .bss.xQueueRegistry
                0x000000001ff6ebb4       0x50 C:\TMP\nn_denoise_rtc_sample.elf.t3mX4c.ltrans1.ltrans.o
 .bss.xdata     0x000000001ff6ec04       0x10 C:\TMP\nn_denoise_rtc_sample.elf.t3mX4c.ltrans1.ltrans.o
 .bss._global_atexit0
                0x000000001ff6ec14       0x8c d:/software/yuyin/qiqiyinqiluntai/riscv-nuclei-elf-gcc-9.2.0.0/gcc_fix_raissrc/bin/../lib/gcc/riscv-nuclei-elf/9.2.0/../../../../riscv-nuclei-elf/lib/rv32imafc/ilp32f\libg_nano.a(lib_a-__atexit.o)
 *(.gnu.linkonce.b.*)
 *(COMMON)
 COMMON         0x000000001ff6eca0        0x4 d:/software/yuyin/qiqiyinqiluntai/riscv-nuclei-elf-gcc-9.2.0.0/gcc_fix_raissrc/bin/../lib/gcc/riscv-nuclei-elf/9.2.0/../../../../riscv-nuclei-elf/lib/rv32imafc/ilp32f\libg_nano.a(lib_a-reent.o)
                0x000000001ff6eca0                errno
                0x000000001ff6eca4                . = ALIGN (0x4)
                0x000000001ff6eca8                . = ALIGN (0x8)
                0x000000001ff6eca8                PROVIDE (__bss_end = .)

.no_init        0x000000001ff6eca4        0x0
 *(.no_init)
                0x000000001ff6eca4                . = ALIGN (0x4)
                0x000000001ff6eca8                . = ALIGN (0x8)
                [!provide]                        PROVIDE (_end = .)
                [!provide]                        PROVIDE (end = .)

.stack          0x000000001ff6eca4      0xc00
                0x0000000000000c00                . = __stack_size
 *fill*         0x000000001ff6eca4      0xc00 
                0x000000001ff6f8a4                PROVIDE (_sp = .)

.sys_heap       0x000000001ff6f8a4    0x37000
                0x000000001ff6f8a4                PROVIDE (__FREERTOSHEAP_START = .)
                0x0000000000037000                . = SYS_HEAP_SIZE
 *fill*         0x000000001ff6f8a4    0x37000 
                0x000000001ffa68a4                PROVIDE (__FREERTOSHEAP_END = .)

.heap_start     0x000000001ffa68a4        0x0
                0x000000001ffa68a4                PROVIDE (heap_start = .)

.heap_end       0x000000001ffd8000        0x0 load address 0x000000001ffa68a4
                0x000000001ffd8000                PROVIDE (heap_end = .)
                0x000000001ffd8000                PROVIDE (__befor_os_int_sp = .)
                0x000000001ff51000                START_ADDR = SRAM_START_ADDR
                0x0000000000000000                LOAD_TYPE = 0x0
                0x0000000000000000                ITCM_EN = 0x0
                0x0000000000000000                STCM_EN = 0x0
                0x0000000000000000                ICACHE_EN = 0x0
                0x00000000ffffffff                ICACHE_START_ADDR = 0xffffffff
                0x00000000ffffffff                ICACHE_END_ADDR = 0xffffffff
                0x00000000ffffffff                ICACHE_ALIAS_ADDR = 0xffffffff
                0x0000000000000000                SCACHE_EN = 0x0
                0x00000000ffffffff                SCACHE_START_ADDR = 0xffffffff
                0x00000000ffffffff                SCACHE_END_ADDR = 0xffffffff
                0x00000000ffffffff                SCACHE_ALIAS_ADDR = 0xffffffff
OUTPUT(build/nn_denoise_rtc_sample.elf elf32-littleriscv)

.debug_info     0x0000000000000000    0x8b450
 .debug_info    0x0000000000000000     0xb468 C:\TMP\nn_denoise_rtc_sample.elf.t3mX4c.ltrans0.ltrans.o
 .debug_info    0x000000000000b468     0xc38c C:\TMP\nn_denoise_rtc_sample.elf.t3mX4c.ltrans1.ltrans.o
 .debug_info    0x00000000000177f4     0x134b C:\TMP\cc4YLWqI.debug.temp.o
                0x00000000000177f4                ci130x_init.c.a11b3469
 .debug_info    0x0000000000018b3f      0xa68 C:\TMP\cc6QkfHa.debug.temp.o
                0x0000000000018b3f                ci130x_it.c.d361b7d0
 .debug_info    0x00000000000195a7      0xa03 C:\TMP\cc4209hD.debug.temp.o
                0x00000000000195a7                ci130x_system.c.fd7aa68c
 .debug_info    0x0000000000019faa     0x16f1 C:\TMP\ccCPWpM5.debug.temp.o
                0x0000000000019faa                platform_config.c.0d141092
 .debug_info    0x000000000001b69b      0xff7 C:\TMP\ccQrCnjy.debug.temp.o
                0x000000000001b69b                ci130x_handlers.c.26b938dd
 .debug_info    0x000000000001c692      0x443 C:\TMP\ccCmUm6A.debug.temp.o
                0x000000000001c692                debug_time_consuming.c.96ad17ad
 .debug_info    0x000000000001cad5      0xf14 C:\TMP\ccA3nlrE.debug.temp.o
                0x000000000001cad5                event_groups.c.44c9b65b
 .debug_info    0x000000000001d9e9      0xb24 C:\TMP\ccyrueia.debug.temp.o
                0x000000000001d9e9                list.c.3059c6a9
 .debug_info    0x000000000001e50d     0x1eb3 C:\TMP\ccQH9FZF.debug.temp.o
                0x000000000001e50d                queue.c.852fda40
 .debug_info    0x00000000000203c0     0x1b1b C:\TMP\ccAkZg8b.debug.temp.o
                0x00000000000203c0                stream_buffer.c.7d3f34d1
 .debug_info    0x0000000000021edb     0x2697 C:\TMP\ccIrIPbI.debug.temp.o
                0x0000000000021edb                tasks.c.4d5866cf
 .debug_info    0x0000000000024572     0x1285 C:\TMP\cc2w12vd.debug.temp.o
                0x0000000000024572                timers.c.5b8e9b9e
 .debug_info    0x00000000000257f7     0x1463 C:\TMP\cckXRLGI.debug.temp.o
                0x00000000000257f7                heap_4.c.9fd5cc48
 .debug_info    0x0000000000026c5a     0x144b C:\TMP\ccWvt5de.debug.temp.o
                0x0000000000026c5a                ci_log.c.2b401590
 .debug_info    0x00000000000280a5      0x946 C:\TMP\ccW86zPJ.debug.temp.o
                0x00000000000280a5                ota_aes.c.16db77c9
 .debug_info    0x00000000000289eb      0xeb6 C:\TMP\ccoG6aIe.debug.temp.o
                0x00000000000289eb                ota_partition_verify.c.88e1ce58
 .debug_info    0x00000000000298a1      0xbb7 C:\TMP\ccgOl22l.debug.temp.o
                0x00000000000298a1                UARTCommandConsole.c.3a18bc04
 .debug_info    0x000000000002a458      0xc8d C:\TMP\cc6IqVfu.debug.temp.o
                0x000000000002a458                Sample_CLI_commands.c.532a33c8
 .debug_info    0x000000000002b0e5     0x1e69 C:\TMP\ccoz6Dg3.debug.temp.o
                0x000000000002b0e5                ci_flash_data_info.c.ef562867
 .debug_info    0x000000000002cf4e      0xd56 C:\TMP\ccoOXNqB.debug.temp.o
                0x000000000002cf4e                flash_control_inner_port.c.770add84
 .debug_info    0x000000000002dca4     0x179a C:\TMP\ccM3YNr9.debug.temp.o
                0x000000000002dca4                audio_play_api.c.67d8eee8
 .debug_info    0x000000000002f43e     0x218e C:\TMP\ccAAQFTH.debug.temp.o
                0x000000000002f43e                audio_play_decoder.c.19c66228
 .debug_info    0x00000000000315cc     0x215f C:\TMP\ccCmYdcg.debug.temp.o
                0x00000000000315cc                audio_play_process.c.e5f3e6a6
 .debug_info    0x000000000003372b     0x15f2 C:\TMP\cc6JTJal.debug.temp.o
                0x000000000003372b                audio_play_device.c.6af226e4
 .debug_info    0x0000000000034d1d      0xb00 C:\TMP\ccwSzk46.debug.temp.o
                0x0000000000034d1d                flacdecoder.c.717ce340
 .debug_info    0x000000000003581d      0xe93 C:\TMP\ccIYmIhj.debug.temp.o
                0x000000000003581d                status_share.c.af82eb86
 .debug_info    0x00000000000366b0     0x1dcd C:\TMP\ccW0pvkU.debug.temp.o
                0x00000000000366b0                ci_nvdata_manage.c.2c533890
 .debug_info    0x000000000003847d      0xb22 C:\TMP\ccydWBNv.debug.temp.o
                0x000000000003847d                ci_nvdata_port.c.37c20f0f
 .debug_info    0x0000000000038f9f     0x168a C:\TMP\ccMNkB36.debug.temp.o
                0x0000000000038f9f                command_file_reader.c.55e20849
 .debug_info    0x000000000003a629     0x1b79 C:\TMP\cc0NmanI.debug.temp.o
                0x000000000003a629                command_info.c.052bebba
 .debug_info    0x000000000003c1a2     0x1226 C:\TMP\ccioQYZi.debug.temp.o
                0x000000000003c1a2                prompt_player.c.dc08f156
 .debug_info    0x000000000003d3c8     0x1329 C:\TMP\ccWT9ltT.debug.temp.o
                0x000000000003d3c8                audio_in_manage_inner.c.4086c299
 .debug_info    0x000000000003e6f1      0xe48 C:\TMP\cc2LDSnu.debug.temp.o
                0x000000000003e6f1                ci_key.c.264f2cc9
 .debug_info    0x000000000003f539      0x9c1 C:\TMP\cckkAW84.debug.temp.o
                0x000000000003f539                asr_malloc_port.c.b6eb120d
 .debug_info    0x000000000003fefa     0x2405 C:\TMP\cckLCbaP.debug.temp.o
                0x000000000003fefa                codec_manager.c.63f82bad
 .debug_info    0x00000000000422ff      0xe91 C:\TMP\ccMAbIrp.debug.temp.o
                0x00000000000422ff                codec_manage_inner_port.c.25901215
 .debug_info    0x0000000000043190     0x20c1 C:\TMP\cc88Jun8.debug.temp.o
                0x0000000000043190                voice_module_uart_protocol.c.fddd7fc4
 .debug_info    0x0000000000045251      0xc8b C:\TMP\ccWJ5m0H.debug.temp.o
                0x0000000000045251                color_light_control.c.5c7080c6
 .debug_info    0x0000000000045edc     0x14cc C:\TMP\ccejiF5U.debug.temp.o
                0x0000000000045edc                ci130x_audio_pre_rslt_out.c.2a3ecfe4
 .debug_info    0x00000000000473a8      0xf68 C:\TMP\ccwXVfpy.debug.temp.o
                0x00000000000473a8                ci130x_core_eclic.c.5495010e
 .debug_info    0x0000000000048310      0xafe C:\TMP\ccKdocac.debug.temp.o
                0x0000000000048310                ci130x_core_timer.c.adb87397
 .debug_info    0x0000000000048e0e     0x1870 C:\TMP\ccI5TmZP.debug.temp.o
                0x0000000000048e0e                ci130x_dma.c.6dbcbed3
 .debug_info    0x000000000004a67e     0x1d7c C:\TMP\ccUcGdFt.debug.temp.o
                0x000000000004a67e                ci130x_codec.c.b61c1eaa
 .debug_info    0x000000000004c3fa      0xaed C:\TMP\ccG0PW1l.debug.temp.o
                0x000000000004c3fa                ci130x_iisdma.c.fac163c6
 .debug_info    0x000000000004cee7      0xa8d C:\TMP\ccEmJP1Y.debug.temp.o
                0x000000000004cee7                ci130x_core_misc.c.9627070e
 .debug_info    0x000000000004d974     0x1a0d C:\TMP\ccMtM85B.debug.temp.o
                0x000000000004d974                ci130x_iis.c.8afdd38f
 .debug_info    0x000000000004f381      0x7af C:\TMP\ccWNvWqe.debug.temp.o
                0x000000000004f381                ci130x_adc.c.b3d1f5ae
 .debug_info    0x000000000004fb30      0xf8e C:\TMP\ccIDzZDQ.debug.temp.o
                0x000000000004fb30                ci130x_gpio.c.55239d8d
 .debug_info    0x0000000000050abe     0x17fd C:\TMP\ccUKdEdt.debug.temp.o
                0x0000000000050abe                ci130x_iic.c.4013fdbe
 .debug_info    0x00000000000522bb     0x13da C:\TMP\ccwfYLZj.debug.temp.o
                0x00000000000522bb                ci130x_uart.c.e2305cce
 .debug_info    0x0000000000053695      0xe35 C:\TMP\ccanP2vV.debug.temp.o
                0x0000000000053695                ci130x_lowpower.c.aab1964c
 .debug_info    0x00000000000544ca      0xafa C:\TMP\ccqAXBxx.debug.temp.o
                0x00000000000544ca                ci130x_iwdg.c.754fc983
 .debug_info    0x0000000000054fc4     0x1638 C:\TMP\ccYcdZEy.debug.temp.o
                0x0000000000054fc4                board.c.9162739e
 .debug_info    0x00000000000565fc      0xbd6 C:\TMP\ccWgNIQe.debug.temp.o
                0x00000000000565fc                board_default.c.c9c7cb58
 .debug_info    0x00000000000571d2       0xcd C:\TMP\cc8znSOU.debug.temp.o
                0x00000000000571d2                dichotomy_find.c.4be177d3
 .debug_info    0x000000000005729f      0x208 C:\TMP\ccALTbRA.debug.temp.o
                0x000000000005729f                crc.c.7a683981
 .debug_info    0x00000000000574a7     0x121c C:\TMP\ccYYdI9f.debug.temp.o
                0x00000000000574a7                main.c.8380232e
 .debug_info    0x00000000000586c3     0x1c86 C:\TMP\cc6dXIeV.debug.temp.o
                0x00000000000586c3                iis0_sample.c.62bf1147
 .debug_info    0x000000000005a349     0x25da C:\TMP\ccioCXbg.debug.temp.o
                0x000000000005a349                system_msg_deal.c.d9497f31
 .debug_info    0x000000000005c923     0x1227 C:\TMP\ccsU93OU.debug.temp.o
                0x000000000005c923                user_msg_deal.c.fd6c25c1
 .debug_info    0x000000000005db4a     0x107e C:\TMP\ccqIV5wz.debug.temp.o
                0x000000000005db4a                ci_ssp_config.c.018f918b
 .debug_info    0x000000000005ebc8     0x1bfb C:\TMP\ccoWiE1d.debug.temp.o
                0x000000000005ebc8                ci_uart_audio_data_handle.c.44dc0e64
 .debug_info    0x00000000000607c3     0x11c7 C:\TMP\cc2PI6WS.debug.temp.o
                0x00000000000607c3                ci_uart_eq_param.c.053407a8
 .debug_info    0x000000000006198a      0xea9 C:\TMP\ccy5RdXx.debug.temp.o
                0x000000000006198a                bits.c.d61e4e80
 .debug_info    0x0000000000062833     0x12c9 C:\TMP\cceuJ0Nc.debug.temp.o
                0x0000000000062833                cb_search.c.403b7a49
 .debug_info    0x0000000000063afc       0x53 C:\TMP\ccKfNAQQ.debug.temp.o
                0x0000000000063afc                exc_5_64_table.c.6498f342
 .debug_info    0x0000000000063b4f       0x53 C:\TMP\ccMNvvXu.debug.temp.o
                0x0000000000063b4f                exc_5_256_table.c.7c16051c
 .debug_info    0x0000000000063ba2       0x53 C:\TMP\cc0xd6U8.debug.temp.o
                0x0000000000063ba2                exc_8_128_table.c.8b4cd41a
 .debug_info    0x0000000000063bf5       0x52 C:\TMP\ccUrrsjN.debug.temp.o
                0x0000000000063bf5                exc_10_16_table.c.8b7dc865
 .debug_info    0x0000000000063c47       0x53 C:\TMP\cceVCNyr.debug.temp.o
                0x0000000000063c47                exc_10_32_table.c.0b0d6940
 .debug_info    0x0000000000063c9a       0x53 C:\TMP\ccsXfBG9.debug.temp.o
                0x0000000000063c9a                exc_20_32_table.c.fc187acb
 .debug_info    0x0000000000063ced     0x146c C:\TMP\ccuHuDSR.debug.temp.o
                0x0000000000063ced                filters.c.96c2fcdd
 .debug_info    0x0000000000065159       0x53 C:\TMP\cc4cNFVz.debug.temp.o
                0x0000000000065159                gain_table.c.017c7e8d
 .debug_info    0x00000000000651ac       0x52 C:\TMP\ccWNzili.debug.temp.o
                0x00000000000651ac                gain_table_lbr.c.90f48bfd
 .debug_info    0x00000000000651fe       0x53 C:\TMP\ccIfNaP0.debug.temp.o
                0x00000000000651fe                hexc_10_32_table.c.3bead03a
 .debug_info    0x0000000000065251       0x53 C:\TMP\ccChVz9I.debug.temp.o
                0x0000000000065251                hexc_table.c.663c1fa0
 .debug_info    0x00000000000652a4       0x5f C:\TMP\ccKO7eGq.debug.temp.o
                0x00000000000652a4                high_lsp_tables.c.851bd69b
 .debug_info    0x0000000000065303     0x10f5 C:\TMP\ccMAjp37.debug.temp.o
                0x0000000000065303                kiss_fft.c.2da24abb
 .debug_info    0x00000000000663f8      0x175 C:\TMP\ccACoKBx.debug.temp.o
                0x00000000000663f8                lpc.c.8bb1ec93
 .debug_info    0x000000000006656d      0xd00 C:\TMP\ccq2nUnf.debug.temp.o
                0x000000000006656d                lsp.c.e3063bc9
 .debug_info    0x000000000006726d       0x9a C:\TMP\cc6OP7pW.debug.temp.o
                0x000000000006726d                lsp_tables_nb.c.7605cdbf
 .debug_info    0x0000000000067307     0x153a C:\TMP\cc82nMeD.debug.temp.o
                0x0000000000067307                ltp.c.1e0bc84c
 .debug_info    0x0000000000068841     0x1324 C:\TMP\ccAqiT7j.debug.temp.o
                0x0000000000068841                modes.c.edb36332
 .debug_info    0x0000000000069b65     0x129c C:\TMP\ccqAlhs1.debug.temp.o
                0x0000000000069b65                modes_wb.c.3435f7a0
 .debug_info    0x000000000006ae01     0x21c7 C:\TMP\ccyFlzMI.debug.temp.o
                0x000000000006ae01                nb_celp.c.18a8eb00
 .debug_info    0x000000000006cfc8      0xe20 C:\TMP\ccUv8FXp.debug.temp.o
                0x000000000006cfc8                quant_lsp.c.d4cd3405
 .debug_info    0x000000000006dde8     0x1d2e C:\TMP\cckAzKk6.debug.temp.o
                0x000000000006dde8                sb_celp.c.8c52e003
 .debug_info    0x000000000006fb16     0x1363 C:\TMP\ccgGctQs.debug.temp.o
                0x000000000006fb16                speex.c.02a745af
 .debug_info    0x0000000000070e79      0xec7 C:\TMP\ccmKSSl9.debug.temp.o
                0x0000000000070e79                speex_callbacks.c.5483de13
 .debug_info    0x0000000000071d40      0x294 C:\TMP\cciwW0C9.debug.temp.o
                0x0000000000071d40                vq.c.53c25454
 .debug_info    0x0000000000071fd4       0xbe C:\TMP\ccoK7juU.debug.temp.o
                0x0000000000071fd4                window.c.f51247f9
 .debug_info    0x0000000000072092     0x10a0 C:\TMP\ccma17bF.debug.temp.o
                0x0000000000072092                ci110x_speex.c.bc774158
 .debug_info    0x0000000000073132     0x151b C:\TMP\ccg8ehap.debug.temp.o
                0x0000000000073132                asr_top_outside_port.c.2e466c91
 .debug_info    0x000000000007464d     0x110d C:\TMP\cc4soLV8.debug.temp.o
                0x000000000007464d                decoder_inner_port_rpmsg.c.b310a49b
 .debug_info    0x000000000007575a     0x34a2 C:\TMP\cccO4GLS.debug.temp.o
                0x000000000007575a                decoder_manage.c.760e2675
 .debug_info    0x0000000000078bfc      0x1b4 C:\TMP\ccOUHKOC.debug.temp.o
                0x0000000000078bfc                dynmic_confidence.c.9bb26918
 .debug_info    0x0000000000078db0      0xfbb C:\TMP\ccClinWm.debug.temp.o
                0x0000000000078db0                dnn_outside_port.c.c37167a0
 .debug_info    0x0000000000079d6b     0x12c0 C:\TMP\ccmkdlk6.debug.temp.o
                0x0000000000079d6b                flash_manage_outside_port.c.b48baff3
 .debug_info    0x000000000007b02b      0xeb2 C:\TMP\cc8drquP.debug.temp.o
                0x000000000007b02b                vad_fe_outside_port.c.04b8d3a2
 .debug_info    0x000000000007bedd     0x14a2 C:\TMP\ccInzvm2.debug.temp.o
                0x000000000007bedd                cmp_twice_confidence.c.9e6ca063
 .debug_info    0x000000000007d37f      0xf6d C:\TMP\ccoXnYNt.debug.temp.o
                0x000000000007d37f                port.c.4d161114
 .debug_info    0x000000000007e2ec      0x9af C:\TMP\ccixn6tc.debug.temp.o
                0x000000000007e2ec                ci130x_dsu.c.25c59ad6
 .debug_info    0x000000000007ec9b      0xdcc C:\TMP\cciUcNwV.debug.temp.o
                0x000000000007ec9b                ci130x_mailbox.c.3231987c
 .debug_info    0x000000000007fa67     0x136f C:\TMP\ccIQfJuE.debug.temp.o
                0x000000000007fa67                ci130x_scu.c.3fdfa867
 .debug_info    0x0000000000080dd6      0x395 C:\TMP\cciOiYpr.debug.temp.o
                0x0000000000080dd6                ci130x_efuse.c.7f29a68f
 .debug_info    0x000000000008116b     0x1355 C:\TMP\cc0Ptl7d.debug.temp.o
                0x000000000008116b                ci130x_dpmu.c.785f8ec3
 .debug_info    0x00000000000824c0     0x1126 C:\TMP\cceknSf1.debug.temp.o
                0x00000000000824c0                ci130x_nuclear_com.c.93f914cc
 .debug_info    0x00000000000835e6     0x179e C:\TMP\cciBcVsO.debug.temp.o
                0x00000000000835e6                remote_api_for_host.c.45421faa
 .debug_info    0x0000000000084d84       0x26 build/objs/ci130x_startup.o
 .debug_info    0x0000000000084daa     0x1f7f ../../../libs\libnewlib_port.a(sbrk.o)
 .debug_info    0x0000000000086d29       0x26 ../../../libs\libfreertos_port.a(portasm.o)
 .debug_info    0x0000000000086d4f       0x26 d:/software/yuyin/qiqiyinqiluntai/riscv-nuclei-elf-gcc-9.2.0.0/gcc_fix_raissrc/bin/../lib/gcc/riscv-nuclei-elf/9.2.0/rv32imafc/ilp32f\libgcc.a(save-restore.o)
 .debug_info    0x0000000000086d75      0x5e4 d:/software/yuyin/qiqiyinqiluntai/riscv-nuclei-elf-gcc-9.2.0.0/gcc_fix_raissrc/bin/../lib/gcc/riscv-nuclei-elf/9.2.0/rv32imafc/ilp32f\libgcc.a(adddf3.o)
 .debug_info    0x0000000000087359      0x76f d:/software/yuyin/qiqiyinqiluntai/riscv-nuclei-elf-gcc-9.2.0.0/gcc_fix_raissrc/bin/../lib/gcc/riscv-nuclei-elf/9.2.0/rv32imafc/ilp32f\libgcc.a(divdf3.o)
 .debug_info    0x0000000000087ac8      0x2a1 d:/software/yuyin/qiqiyinqiluntai/riscv-nuclei-elf-gcc-9.2.0.0/gcc_fix_raissrc/bin/../lib/gcc/riscv-nuclei-elf/9.2.0/rv32imafc/ilp32f\libgcc.a(eqdf2.o)
 .debug_info    0x0000000000087d69      0x28c d:/software/yuyin/qiqiyinqiluntai/riscv-nuclei-elf-gcc-9.2.0.0/gcc_fix_raissrc/bin/../lib/gcc/riscv-nuclei-elf/9.2.0/rv32imafc/ilp32f\libgcc.a(gedf2.o)
 .debug_info    0x0000000000087ff5      0x28c d:/software/yuyin/qiqiyinqiluntai/riscv-nuclei-elf-gcc-9.2.0.0/gcc_fix_raissrc/bin/../lib/gcc/riscv-nuclei-elf/9.2.0/rv32imafc/ilp32f\libgcc.a(ledf2.o)
 .debug_info    0x0000000000088281      0x79b d:/software/yuyin/qiqiyinqiluntai/riscv-nuclei-elf-gcc-9.2.0.0/gcc_fix_raissrc/bin/../lib/gcc/riscv-nuclei-elf/9.2.0/rv32imafc/ilp32f\libgcc.a(muldf3.o)
 .debug_info    0x0000000000088a1c      0x5e4 d:/software/yuyin/qiqiyinqiluntai/riscv-nuclei-elf-gcc-9.2.0.0/gcc_fix_raissrc/bin/../lib/gcc/riscv-nuclei-elf/9.2.0/rv32imafc/ilp32f\libgcc.a(subdf3.o)
 .debug_info    0x0000000000089000      0x294 d:/software/yuyin/qiqiyinqiluntai/riscv-nuclei-elf-gcc-9.2.0.0/gcc_fix_raissrc/bin/../lib/gcc/riscv-nuclei-elf/9.2.0/rv32imafc/ilp32f\libgcc.a(unorddf2.o)
 .debug_info    0x0000000000089294      0x21d d:/software/yuyin/qiqiyinqiluntai/riscv-nuclei-elf-gcc-9.2.0.0/gcc_fix_raissrc/bin/../lib/gcc/riscv-nuclei-elf/9.2.0/rv32imafc/ilp32f\libgcc.a(fixdfsi.o)
 .debug_info    0x00000000000894b1      0x2bc d:/software/yuyin/qiqiyinqiluntai/riscv-nuclei-elf-gcc-9.2.0.0/gcc_fix_raissrc/bin/../lib/gcc/riscv-nuclei-elf/9.2.0/rv32imafc/ilp32f\libgcc.a(floatsidf.o)
 .debug_info    0x000000000008976d      0x2af d:/software/yuyin/qiqiyinqiluntai/riscv-nuclei-elf-gcc-9.2.0.0/gcc_fix_raissrc/bin/../lib/gcc/riscv-nuclei-elf/9.2.0/rv32imafc/ilp32f\libgcc.a(extendsfdf2.o)
 .debug_info    0x0000000000089a1c      0x2f3 d:/software/yuyin/qiqiyinqiluntai/riscv-nuclei-elf-gcc-9.2.0.0/gcc_fix_raissrc/bin/../lib/gcc/riscv-nuclei-elf/9.2.0/rv32imafc/ilp32f\libgcc.a(truncdfsf2.o)
 .debug_info    0x0000000000089d0f      0xbd7 d:/software/yuyin/qiqiyinqiluntai/riscv-nuclei-elf-gcc-9.2.0.0/gcc_fix_raissrc/bin/../lib/gcc/riscv-nuclei-elf/9.2.0/rv32imafc/ilp32f\libgcc.a(_clzsi2.o)
 .debug_info    0x000000000008a8e6      0xb6a d:/software/yuyin/qiqiyinqiluntai/riscv-nuclei-elf-gcc-9.2.0.0/gcc_fix_raissrc/bin/../lib/gcc/riscv-nuclei-elf/9.2.0/rv32imafc/ilp32f\libgcc.a(_clz.o)

.debug_abbrev   0x0000000000000000    0x1162d
 .debug_abbrev  0x0000000000000000      0x35e C:\TMP\nn_denoise_rtc_sample.elf.t3mX4c.ltrans0.ltrans.o
 .debug_abbrev  0x000000000000035e      0x29e C:\TMP\nn_denoise_rtc_sample.elf.t3mX4c.ltrans1.ltrans.o
 .debug_abbrev  0x00000000000005fc      0x2b7 C:\TMP\cc4YLWqI.debug.temp.o
 .debug_abbrev  0x00000000000008b3      0x1e9 C:\TMP\cc6QkfHa.debug.temp.o
 .debug_abbrev  0x0000000000000a9c      0x1ec C:\TMP\cc4209hD.debug.temp.o
 .debug_abbrev  0x0000000000000c88      0x331 C:\TMP\ccCPWpM5.debug.temp.o
 .debug_abbrev  0x0000000000000fb9      0x266 C:\TMP\ccQrCnjy.debug.temp.o
 .debug_abbrev  0x000000000000121f      0x125 C:\TMP\ccCmUm6A.debug.temp.o
 .debug_abbrev  0x0000000000001344      0x25c C:\TMP\ccA3nlrE.debug.temp.o
 .debug_abbrev  0x00000000000015a0      0x20f C:\TMP\ccyrueia.debug.temp.o
 .debug_abbrev  0x00000000000017af      0x2ab C:\TMP\ccQH9FZF.debug.temp.o
 .debug_abbrev  0x0000000000001a5a      0x2b5 C:\TMP\ccAkZg8b.debug.temp.o
 .debug_abbrev  0x0000000000001d0f      0x2e2 C:\TMP\ccIrIPbI.debug.temp.o
 .debug_abbrev  0x0000000000001ff1      0x25c C:\TMP\cc2w12vd.debug.temp.o
 .debug_abbrev  0x000000000000224d      0x2d6 C:\TMP\cckXRLGI.debug.temp.o
 .debug_abbrev  0x0000000000002523      0x2ba C:\TMP\ccWvt5de.debug.temp.o
 .debug_abbrev  0x00000000000027dd      0x1d5 C:\TMP\ccW86zPJ.debug.temp.o
 .debug_abbrev  0x00000000000029b2      0x26d C:\TMP\ccoG6aIe.debug.temp.o
 .debug_abbrev  0x0000000000002c1f      0x27e C:\TMP\ccgOl22l.debug.temp.o
 .debug_abbrev  0x0000000000002e9d      0x265 C:\TMP\cc6IqVfu.debug.temp.o
 .debug_abbrev  0x0000000000003102      0x353 C:\TMP\ccoz6Dg3.debug.temp.o
 .debug_abbrev  0x0000000000003455      0x26a C:\TMP\ccoOXNqB.debug.temp.o
 .debug_abbrev  0x00000000000036bf      0x30f C:\TMP\ccM3YNr9.debug.temp.o
 .debug_abbrev  0x00000000000039ce      0x2fa C:\TMP\ccAAQFTH.debug.temp.o
 .debug_abbrev  0x0000000000003cc8      0x377 C:\TMP\ccCmYdcg.debug.temp.o
 .debug_abbrev  0x000000000000403f      0x2db C:\TMP\cc6JTJal.debug.temp.o
 .debug_abbrev  0x000000000000431a      0x1d6 C:\TMP\ccwSzk46.debug.temp.o
 .debug_abbrev  0x00000000000044f0      0x274 C:\TMP\ccIYmIhj.debug.temp.o
 .debug_abbrev  0x0000000000004764      0x352 C:\TMP\ccW0pvkU.debug.temp.o
 .debug_abbrev  0x0000000000004ab6      0x242 C:\TMP\ccydWBNv.debug.temp.o
 .debug_abbrev  0x0000000000004cf8      0x2ce C:\TMP\ccMNkB36.debug.temp.o
 .debug_abbrev  0x0000000000004fc6      0x310 C:\TMP\cc0NmanI.debug.temp.o
 .debug_abbrev  0x00000000000052d6      0x347 C:\TMP\ccioQYZi.debug.temp.o
 .debug_abbrev  0x000000000000561d      0x308 C:\TMP\ccWT9ltT.debug.temp.o
 .debug_abbrev  0x0000000000005925      0x28f C:\TMP\cc2LDSnu.debug.temp.o
 .debug_abbrev  0x0000000000005bb4      0x22d C:\TMP\cckkAW84.debug.temp.o
 .debug_abbrev  0x0000000000005de1      0x39c C:\TMP\cckLCbaP.debug.temp.o
 .debug_abbrev  0x000000000000617d      0x294 C:\TMP\ccMAbIrp.debug.temp.o
 .debug_abbrev  0x0000000000006411      0x388 C:\TMP\cc88Jun8.debug.temp.o
 .debug_abbrev  0x0000000000006799      0x294 C:\TMP\ccWJ5m0H.debug.temp.o
 .debug_abbrev  0x0000000000006a2d      0x2d7 C:\TMP\ccejiF5U.debug.temp.o
 .debug_abbrev  0x0000000000006d04      0x2be C:\TMP\ccwXVfpy.debug.temp.o
 .debug_abbrev  0x0000000000006fc2      0x250 C:\TMP\ccKdocac.debug.temp.o
 .debug_abbrev  0x0000000000007212      0x304 C:\TMP\ccI5TmZP.debug.temp.o
 .debug_abbrev  0x0000000000007516      0x342 C:\TMP\ccUcGdFt.debug.temp.o
 .debug_abbrev  0x0000000000007858      0x171 C:\TMP\ccG0PW1l.debug.temp.o
 .debug_abbrev  0x00000000000079c9      0x203 C:\TMP\ccEmJP1Y.debug.temp.o
 .debug_abbrev  0x0000000000007bcc      0x2e1 C:\TMP\ccMtM85B.debug.temp.o
 .debug_abbrev  0x0000000000007ead      0x191 C:\TMP\ccWNvWqe.debug.temp.o
 .debug_abbrev  0x000000000000803e      0x2d2 C:\TMP\ccIDzZDQ.debug.temp.o
 .debug_abbrev  0x0000000000008310      0x301 C:\TMP\ccUKdEdt.debug.temp.o
 .debug_abbrev  0x0000000000008611      0x2d0 C:\TMP\ccwfYLZj.debug.temp.o
 .debug_abbrev  0x00000000000088e1      0x32f C:\TMP\ccanP2vV.debug.temp.o
 .debug_abbrev  0x0000000000008c10      0x20c C:\TMP\ccqAXBxx.debug.temp.o
 .debug_abbrev  0x0000000000008e1c      0x2c9 C:\TMP\ccYcdZEy.debug.temp.o
 .debug_abbrev  0x00000000000090e5      0x236 C:\TMP\ccWgNIQe.debug.temp.o
 .debug_abbrev  0x000000000000931b       0x82 C:\TMP\cc8znSOU.debug.temp.o
 .debug_abbrev  0x000000000000939d       0xc2 C:\TMP\ccALTbRA.debug.temp.o
 .debug_abbrev  0x000000000000945f      0x2c5 C:\TMP\ccYYdI9f.debug.temp.o
 .debug_abbrev  0x0000000000009724      0x2dd C:\TMP\cc6dXIeV.debug.temp.o
 .debug_abbrev  0x0000000000009a01      0x35c C:\TMP\ccioCXbg.debug.temp.o
 .debug_abbrev  0x0000000000009d5d      0x310 C:\TMP\ccsU93OU.debug.temp.o
 .debug_abbrev  0x000000000000a06d      0x268 C:\TMP\ccqIV5wz.debug.temp.o
 .debug_abbrev  0x000000000000a2d5      0x327 C:\TMP\ccoWiE1d.debug.temp.o
 .debug_abbrev  0x000000000000a5fc      0x2e6 C:\TMP\cc2PI6WS.debug.temp.o
 .debug_abbrev  0x000000000000a8e2      0x2de C:\TMP\ccy5RdXx.debug.temp.o
 .debug_abbrev  0x000000000000abc0      0x291 C:\TMP\cceuJ0Nc.debug.temp.o
 .debug_abbrev  0x000000000000ae51       0x45 C:\TMP\ccKfNAQQ.debug.temp.o
 .debug_abbrev  0x000000000000ae96       0x45 C:\TMP\ccMNvvXu.debug.temp.o
 .debug_abbrev  0x000000000000aedb       0x45 C:\TMP\cc0xd6U8.debug.temp.o
 .debug_abbrev  0x000000000000af20       0x45 C:\TMP\ccUrrsjN.debug.temp.o
 .debug_abbrev  0x000000000000af65       0x45 C:\TMP\cceVCNyr.debug.temp.o
 .debug_abbrev  0x000000000000afaa       0x45 C:\TMP\ccsXfBG9.debug.temp.o
 .debug_abbrev  0x000000000000afef      0x2b9 C:\TMP\ccuHuDSR.debug.temp.o
 .debug_abbrev  0x000000000000b2a8       0x45 C:\TMP\cc4cNFVz.debug.temp.o
 .debug_abbrev  0x000000000000b2ed       0x45 C:\TMP\ccWNzili.debug.temp.o
 .debug_abbrev  0x000000000000b332       0x45 C:\TMP\ccIfNaP0.debug.temp.o
 .debug_abbrev  0x000000000000b377       0x45 C:\TMP\ccChVz9I.debug.temp.o
 .debug_abbrev  0x000000000000b3bc       0x45 C:\TMP\ccKO7eGq.debug.temp.o
 .debug_abbrev  0x000000000000b401      0x2b7 C:\TMP\ccMAjp37.debug.temp.o
 .debug_abbrev  0x000000000000b6b8       0x9f C:\TMP\ccACoKBx.debug.temp.o
 .debug_abbrev  0x000000000000b757      0x28e C:\TMP\ccq2nUnf.debug.temp.o
 .debug_abbrev  0x000000000000b9e5       0x56 C:\TMP\cc6OP7pW.debug.temp.o
 .debug_abbrev  0x000000000000ba3b      0x2e6 C:\TMP\cc82nMeD.debug.temp.o
 .debug_abbrev  0x000000000000bd21      0x24f C:\TMP\ccAqiT7j.debug.temp.o
 .debug_abbrev  0x000000000000bf70      0x28d C:\TMP\ccqAlhs1.debug.temp.o
 .debug_abbrev  0x000000000000c1fd      0x37f C:\TMP\ccyFlzMI.debug.temp.o
 .debug_abbrev  0x000000000000c57c      0x29d C:\TMP\ccUv8FXp.debug.temp.o
 .debug_abbrev  0x000000000000c819      0x340 C:\TMP\cckAzKk6.debug.temp.o
 .debug_abbrev  0x000000000000cb59      0x26a C:\TMP\ccgGctQs.debug.temp.o
 .debug_abbrev  0x000000000000cdc3      0x22e C:\TMP\ccmKSSl9.debug.temp.o
 .debug_abbrev  0x000000000000cff1       0xc1 C:\TMP\cciwW0C9.debug.temp.o
 .debug_abbrev  0x000000000000d0b2       0x5f C:\TMP\ccoK7juU.debug.temp.o
 .debug_abbrev  0x000000000000d111      0x280 C:\TMP\ccma17bF.debug.temp.o
 .debug_abbrev  0x000000000000d391      0x2b1 C:\TMP\ccg8ehap.debug.temp.o
 .debug_abbrev  0x000000000000d642      0x32e C:\TMP\cc4soLV8.debug.temp.o
 .debug_abbrev  0x000000000000d970      0x425 C:\TMP\cccO4GLS.debug.temp.o
 .debug_abbrev  0x000000000000dd95       0xbe C:\TMP\ccOUHKOC.debug.temp.o
 .debug_abbrev  0x000000000000de53      0x298 C:\TMP\ccClinWm.debug.temp.o
 .debug_abbrev  0x000000000000e0eb      0x2fd C:\TMP\ccmkdlk6.debug.temp.o
 .debug_abbrev  0x000000000000e3e8      0x258 C:\TMP\cc8drquP.debug.temp.o
 .debug_abbrev  0x000000000000e640      0x2ad C:\TMP\ccInzvm2.debug.temp.o
 .debug_abbrev  0x000000000000e8ed      0x2d1 C:\TMP\ccoXnYNt.debug.temp.o
 .debug_abbrev  0x000000000000ebbe      0x12c C:\TMP\ccixn6tc.debug.temp.o
 .debug_abbrev  0x000000000000ecea      0x2c6 C:\TMP\cciUcNwV.debug.temp.o
 .debug_abbrev  0x000000000000efb0      0x236 C:\TMP\ccIQfJuE.debug.temp.o
 .debug_abbrev  0x000000000000f1e6       0xf9 C:\TMP\cciOiYpr.debug.temp.o
 .debug_abbrev  0x000000000000f2df      0x27f C:\TMP\cc0Ptl7d.debug.temp.o
 .debug_abbrev  0x000000000000f55e      0x308 C:\TMP\cceknSf1.debug.temp.o
 .debug_abbrev  0x000000000000f866      0x351 C:\TMP\cciBcVsO.debug.temp.o
 .debug_abbrev  0x000000000000fbb7       0x14 build/objs/ci130x_startup.o
 .debug_abbrev  0x000000000000fbcb      0x3f8 ../../../libs\libnewlib_port.a(sbrk.o)
 .debug_abbrev  0x000000000000ffc3       0x14 ../../../libs\libfreertos_port.a(portasm.o)
 .debug_abbrev  0x000000000000ffd7       0x14 d:/software/yuyin/qiqiyinqiluntai/riscv-nuclei-elf-gcc-9.2.0.0/gcc_fix_raissrc/bin/../lib/gcc/riscv-nuclei-elf/9.2.0/rv32imafc/ilp32f\libgcc.a(save-restore.o)
 .debug_abbrev  0x000000000000ffeb      0x189 d:/software/yuyin/qiqiyinqiluntai/riscv-nuclei-elf-gcc-9.2.0.0/gcc_fix_raissrc/bin/../lib/gcc/riscv-nuclei-elf/9.2.0/rv32imafc/ilp32f\libgcc.a(adddf3.o)
 .debug_abbrev  0x0000000000010174      0x176 d:/software/yuyin/qiqiyinqiluntai/riscv-nuclei-elf-gcc-9.2.0.0/gcc_fix_raissrc/bin/../lib/gcc/riscv-nuclei-elf/9.2.0/rv32imafc/ilp32f\libgcc.a(divdf3.o)
 .debug_abbrev  0x00000000000102ea      0x193 d:/software/yuyin/qiqiyinqiluntai/riscv-nuclei-elf-gcc-9.2.0.0/gcc_fix_raissrc/bin/../lib/gcc/riscv-nuclei-elf/9.2.0/rv32imafc/ilp32f\libgcc.a(eqdf2.o)
 .debug_abbrev  0x000000000001047d      0x193 d:/software/yuyin/qiqiyinqiluntai/riscv-nuclei-elf-gcc-9.2.0.0/gcc_fix_raissrc/bin/../lib/gcc/riscv-nuclei-elf/9.2.0/rv32imafc/ilp32f\libgcc.a(gedf2.o)
 .debug_abbrev  0x0000000000010610      0x193 d:/software/yuyin/qiqiyinqiluntai/riscv-nuclei-elf-gcc-9.2.0.0/gcc_fix_raissrc/bin/../lib/gcc/riscv-nuclei-elf/9.2.0/rv32imafc/ilp32f\libgcc.a(ledf2.o)
 .debug_abbrev  0x00000000000107a3      0x186 d:/software/yuyin/qiqiyinqiluntai/riscv-nuclei-elf-gcc-9.2.0.0/gcc_fix_raissrc/bin/../lib/gcc/riscv-nuclei-elf/9.2.0/rv32imafc/ilp32f\libgcc.a(muldf3.o)
 .debug_abbrev  0x0000000000010929      0x189 d:/software/yuyin/qiqiyinqiluntai/riscv-nuclei-elf-gcc-9.2.0.0/gcc_fix_raissrc/bin/../lib/gcc/riscv-nuclei-elf/9.2.0/rv32imafc/ilp32f\libgcc.a(subdf3.o)
 .debug_abbrev  0x0000000000010ab2      0x184 d:/software/yuyin/qiqiyinqiluntai/riscv-nuclei-elf-gcc-9.2.0.0/gcc_fix_raissrc/bin/../lib/gcc/riscv-nuclei-elf/9.2.0/rv32imafc/ilp32f\libgcc.a(unorddf2.o)
 .debug_abbrev  0x0000000000010c36      0x170 d:/software/yuyin/qiqiyinqiluntai/riscv-nuclei-elf-gcc-9.2.0.0/gcc_fix_raissrc/bin/../lib/gcc/riscv-nuclei-elf/9.2.0/rv32imafc/ilp32f\libgcc.a(fixdfsi.o)
 .debug_abbrev  0x0000000000010da6      0x178 d:/software/yuyin/qiqiyinqiluntai/riscv-nuclei-elf-gcc-9.2.0.0/gcc_fix_raissrc/bin/../lib/gcc/riscv-nuclei-elf/9.2.0/rv32imafc/ilp32f\libgcc.a(floatsidf.o)
 .debug_abbrev  0x0000000000010f1e      0x16c d:/software/yuyin/qiqiyinqiluntai/riscv-nuclei-elf-gcc-9.2.0.0/gcc_fix_raissrc/bin/../lib/gcc/riscv-nuclei-elf/9.2.0/rv32imafc/ilp32f\libgcc.a(extendsfdf2.o)
 .debug_abbrev  0x000000000001108a      0x179 d:/software/yuyin/qiqiyinqiluntai/riscv-nuclei-elf-gcc-9.2.0.0/gcc_fix_raissrc/bin/../lib/gcc/riscv-nuclei-elf/9.2.0/rv32imafc/ilp32f\libgcc.a(truncdfsf2.o)
 .debug_abbrev  0x0000000000011203      0x242 d:/software/yuyin/qiqiyinqiluntai/riscv-nuclei-elf-gcc-9.2.0.0/gcc_fix_raissrc/bin/../lib/gcc/riscv-nuclei-elf/9.2.0/rv32imafc/ilp32f\libgcc.a(_clzsi2.o)
 .debug_abbrev  0x0000000000011445      0x1e8 d:/software/yuyin/qiqiyinqiluntai/riscv-nuclei-elf-gcc-9.2.0.0/gcc_fix_raissrc/bin/../lib/gcc/riscv-nuclei-elf/9.2.0/rv32imafc/ilp32f\libgcc.a(_clz.o)

.debug_loc      0x0000000000000000    0x221fb
 .debug_loc     0x0000000000000000    0x11150 C:\TMP\nn_denoise_rtc_sample.elf.t3mX4c.ltrans0.ltrans.o
 .debug_loc     0x0000000000011150     0x9921 C:\TMP\nn_denoise_rtc_sample.elf.t3mX4c.ltrans1.ltrans.o
 .debug_loc     0x000000000001aa71      0xa71 ../../../libs\libnewlib_port.a(sbrk.o)
 .debug_loc     0x000000000001b4e2     0x1a85 d:/software/yuyin/qiqiyinqiluntai/riscv-nuclei-elf-gcc-9.2.0.0/gcc_fix_raissrc/bin/../lib/gcc/riscv-nuclei-elf/9.2.0/rv32imafc/ilp32f\libgcc.a(adddf3.o)
 .debug_loc     0x000000000001cf67     0x14a9 d:/software/yuyin/qiqiyinqiluntai/riscv-nuclei-elf-gcc-9.2.0.0/gcc_fix_raissrc/bin/../lib/gcc/riscv-nuclei-elf/9.2.0/rv32imafc/ilp32f\libgcc.a(divdf3.o)
 .debug_loc     0x000000000001e410      0x19a d:/software/yuyin/qiqiyinqiluntai/riscv-nuclei-elf-gcc-9.2.0.0/gcc_fix_raissrc/bin/../lib/gcc/riscv-nuclei-elf/9.2.0/rv32imafc/ilp32f\libgcc.a(eqdf2.o)
 .debug_loc     0x000000000001e5aa      0x155 d:/software/yuyin/qiqiyinqiluntai/riscv-nuclei-elf-gcc-9.2.0.0/gcc_fix_raissrc/bin/../lib/gcc/riscv-nuclei-elf/9.2.0/rv32imafc/ilp32f\libgcc.a(gedf2.o)
 .debug_loc     0x000000000001e6ff      0x155 d:/software/yuyin/qiqiyinqiluntai/riscv-nuclei-elf-gcc-9.2.0.0/gcc_fix_raissrc/bin/../lib/gcc/riscv-nuclei-elf/9.2.0/rv32imafc/ilp32f\libgcc.a(ledf2.o)
 .debug_loc     0x000000000001e854     0x10d8 d:/software/yuyin/qiqiyinqiluntai/riscv-nuclei-elf-gcc-9.2.0.0/gcc_fix_raissrc/bin/../lib/gcc/riscv-nuclei-elf/9.2.0/rv32imafc/ilp32f\libgcc.a(muldf3.o)
 .debug_loc     0x000000000001f92c     0x1b31 d:/software/yuyin/qiqiyinqiluntai/riscv-nuclei-elf-gcc-9.2.0.0/gcc_fix_raissrc/bin/../lib/gcc/riscv-nuclei-elf/9.2.0/rv32imafc/ilp32f\libgcc.a(subdf3.o)
 .debug_loc     0x000000000002145d       0xc9 d:/software/yuyin/qiqiyinqiluntai/riscv-nuclei-elf-gcc-9.2.0.0/gcc_fix_raissrc/bin/../lib/gcc/riscv-nuclei-elf/9.2.0/rv32imafc/ilp32f\libgcc.a(unorddf2.o)
 .debug_loc     0x0000000000021526      0x2a8 d:/software/yuyin/qiqiyinqiluntai/riscv-nuclei-elf-gcc-9.2.0.0/gcc_fix_raissrc/bin/../lib/gcc/riscv-nuclei-elf/9.2.0/rv32imafc/ilp32f\libgcc.a(fixdfsi.o)
 .debug_loc     0x00000000000217ce      0x14c d:/software/yuyin/qiqiyinqiluntai/riscv-nuclei-elf-gcc-9.2.0.0/gcc_fix_raissrc/bin/../lib/gcc/riscv-nuclei-elf/9.2.0/rv32imafc/ilp32f\libgcc.a(floatsidf.o)
 .debug_loc     0x000000000002191a      0x264 d:/software/yuyin/qiqiyinqiluntai/riscv-nuclei-elf-gcc-9.2.0.0/gcc_fix_raissrc/bin/../lib/gcc/riscv-nuclei-elf/9.2.0/rv32imafc/ilp32f\libgcc.a(extendsfdf2.o)
 .debug_loc     0x0000000000021b7e      0x612 d:/software/yuyin/qiqiyinqiluntai/riscv-nuclei-elf-gcc-9.2.0.0/gcc_fix_raissrc/bin/../lib/gcc/riscv-nuclei-elf/9.2.0/rv32imafc/ilp32f\libgcc.a(truncdfsf2.o)
 .debug_loc     0x0000000000022190       0x6b d:/software/yuyin/qiqiyinqiluntai/riscv-nuclei-elf-gcc-9.2.0.0/gcc_fix_raissrc/bin/../lib/gcc/riscv-nuclei-elf/9.2.0/rv32imafc/ilp32f\libgcc.a(_clzsi2.o)

.debug_aranges  0x0000000000000000      0xc28
 .debug_aranges
                0x0000000000000000      0x4f8 C:\TMP\nn_denoise_rtc_sample.elf.t3mX4c.ltrans0.ltrans.o
 .debug_aranges
                0x00000000000004f8      0x3a8 C:\TMP\nn_denoise_rtc_sample.elf.t3mX4c.ltrans1.ltrans.o
 .debug_aranges
                0x00000000000008a0       0x20 build/objs/ci130x_startup.o
 .debug_aranges
                0x00000000000008c0      0x170 ../../../libs\libnewlib_port.a(sbrk.o)
 .debug_aranges
                0x0000000000000a30       0x20 ../../../libs\libfreertos_port.a(portasm.o)
 .debug_aranges
                0x0000000000000a50       0x20 d:/software/yuyin/qiqiyinqiluntai/riscv-nuclei-elf-gcc-9.2.0.0/gcc_fix_raissrc/bin/../lib/gcc/riscv-nuclei-elf/9.2.0/rv32imafc/ilp32f\libgcc.a(save-restore.o)
 .debug_aranges
                0x0000000000000a70       0x20 d:/software/yuyin/qiqiyinqiluntai/riscv-nuclei-elf-gcc-9.2.0.0/gcc_fix_raissrc/bin/../lib/gcc/riscv-nuclei-elf/9.2.0/rv32imafc/ilp32f\libgcc.a(adddf3.o)
 .debug_aranges
                0x0000000000000a90       0x20 d:/software/yuyin/qiqiyinqiluntai/riscv-nuclei-elf-gcc-9.2.0.0/gcc_fix_raissrc/bin/../lib/gcc/riscv-nuclei-elf/9.2.0/rv32imafc/ilp32f\libgcc.a(divdf3.o)
 .debug_aranges
                0x0000000000000ab0       0x20 d:/software/yuyin/qiqiyinqiluntai/riscv-nuclei-elf-gcc-9.2.0.0/gcc_fix_raissrc/bin/../lib/gcc/riscv-nuclei-elf/9.2.0/rv32imafc/ilp32f\libgcc.a(eqdf2.o)
 .debug_aranges
                0x0000000000000ad0       0x20 d:/software/yuyin/qiqiyinqiluntai/riscv-nuclei-elf-gcc-9.2.0.0/gcc_fix_raissrc/bin/../lib/gcc/riscv-nuclei-elf/9.2.0/rv32imafc/ilp32f\libgcc.a(gedf2.o)
 .debug_aranges
                0x0000000000000af0       0x20 d:/software/yuyin/qiqiyinqiluntai/riscv-nuclei-elf-gcc-9.2.0.0/gcc_fix_raissrc/bin/../lib/gcc/riscv-nuclei-elf/9.2.0/rv32imafc/ilp32f\libgcc.a(ledf2.o)
 .debug_aranges
                0x0000000000000b10       0x20 d:/software/yuyin/qiqiyinqiluntai/riscv-nuclei-elf-gcc-9.2.0.0/gcc_fix_raissrc/bin/../lib/gcc/riscv-nuclei-elf/9.2.0/rv32imafc/ilp32f\libgcc.a(muldf3.o)
 .debug_aranges
                0x0000000000000b30       0x20 d:/software/yuyin/qiqiyinqiluntai/riscv-nuclei-elf-gcc-9.2.0.0/gcc_fix_raissrc/bin/../lib/gcc/riscv-nuclei-elf/9.2.0/rv32imafc/ilp32f\libgcc.a(subdf3.o)
 .debug_aranges
                0x0000000000000b50       0x20 d:/software/yuyin/qiqiyinqiluntai/riscv-nuclei-elf-gcc-9.2.0.0/gcc_fix_raissrc/bin/../lib/gcc/riscv-nuclei-elf/9.2.0/rv32imafc/ilp32f\libgcc.a(unorddf2.o)
 .debug_aranges
                0x0000000000000b70       0x20 d:/software/yuyin/qiqiyinqiluntai/riscv-nuclei-elf-gcc-9.2.0.0/gcc_fix_raissrc/bin/../lib/gcc/riscv-nuclei-elf/9.2.0/rv32imafc/ilp32f\libgcc.a(fixdfsi.o)
 .debug_aranges
                0x0000000000000b90       0x20 d:/software/yuyin/qiqiyinqiluntai/riscv-nuclei-elf-gcc-9.2.0.0/gcc_fix_raissrc/bin/../lib/gcc/riscv-nuclei-elf/9.2.0/rv32imafc/ilp32f\libgcc.a(floatsidf.o)
 .debug_aranges
                0x0000000000000bb0       0x20 d:/software/yuyin/qiqiyinqiluntai/riscv-nuclei-elf-gcc-9.2.0.0/gcc_fix_raissrc/bin/../lib/gcc/riscv-nuclei-elf/9.2.0/rv32imafc/ilp32f\libgcc.a(extendsfdf2.o)
 .debug_aranges
                0x0000000000000bd0       0x20 d:/software/yuyin/qiqiyinqiluntai/riscv-nuclei-elf-gcc-9.2.0.0/gcc_fix_raissrc/bin/../lib/gcc/riscv-nuclei-elf/9.2.0/rv32imafc/ilp32f\libgcc.a(truncdfsf2.o)
 .debug_aranges
                0x0000000000000bf0       0x20 d:/software/yuyin/qiqiyinqiluntai/riscv-nuclei-elf-gcc-9.2.0.0/gcc_fix_raissrc/bin/../lib/gcc/riscv-nuclei-elf/9.2.0/rv32imafc/ilp32f\libgcc.a(_clzsi2.o)
 .debug_aranges
                0x0000000000000c10       0x18 d:/software/yuyin/qiqiyinqiluntai/riscv-nuclei-elf-gcc-9.2.0.0/gcc_fix_raissrc/bin/../lib/gcc/riscv-nuclei-elf/9.2.0/rv32imafc/ilp32f\libgcc.a(_clz.o)

.debug_ranges   0x0000000000000000     0x6260
 .debug_ranges  0x0000000000000000     0x2668 C:\TMP\nn_denoise_rtc_sample.elf.t3mX4c.ltrans0.ltrans.o
 .debug_ranges  0x0000000000002668     0x2ca8 C:\TMP\nn_denoise_rtc_sample.elf.t3mX4c.ltrans1.ltrans.o
 .debug_ranges  0x0000000000005310      0x160 ../../../libs\libnewlib_port.a(sbrk.o)
 .debug_ranges  0x0000000000005470      0x3b8 d:/software/yuyin/qiqiyinqiluntai/riscv-nuclei-elf-gcc-9.2.0.0/gcc_fix_raissrc/bin/../lib/gcc/riscv-nuclei-elf/9.2.0/rv32imafc/ilp32f\libgcc.a(adddf3.o)
 .debug_ranges  0x0000000000005828      0x1b8 d:/software/yuyin/qiqiyinqiluntai/riscv-nuclei-elf-gcc-9.2.0.0/gcc_fix_raissrc/bin/../lib/gcc/riscv-nuclei-elf/9.2.0/rv32imafc/ilp32f\libgcc.a(divdf3.o)
 .debug_ranges  0x00000000000059e0       0x60 d:/software/yuyin/qiqiyinqiluntai/riscv-nuclei-elf-gcc-9.2.0.0/gcc_fix_raissrc/bin/../lib/gcc/riscv-nuclei-elf/9.2.0/rv32imafc/ilp32f\libgcc.a(eqdf2.o)
 .debug_ranges  0x0000000000005a40       0x38 d:/software/yuyin/qiqiyinqiluntai/riscv-nuclei-elf-gcc-9.2.0.0/gcc_fix_raissrc/bin/../lib/gcc/riscv-nuclei-elf/9.2.0/rv32imafc/ilp32f\libgcc.a(gedf2.o)
 .debug_ranges  0x0000000000005a78       0x38 d:/software/yuyin/qiqiyinqiluntai/riscv-nuclei-elf-gcc-9.2.0.0/gcc_fix_raissrc/bin/../lib/gcc/riscv-nuclei-elf/9.2.0/rv32imafc/ilp32f\libgcc.a(ledf2.o)
 .debug_ranges  0x0000000000005ab0      0x258 d:/software/yuyin/qiqiyinqiluntai/riscv-nuclei-elf-gcc-9.2.0.0/gcc_fix_raissrc/bin/../lib/gcc/riscv-nuclei-elf/9.2.0/rv32imafc/ilp32f\libgcc.a(muldf3.o)
 .debug_ranges  0x0000000000005d08      0x3a8 d:/software/yuyin/qiqiyinqiluntai/riscv-nuclei-elf-gcc-9.2.0.0/gcc_fix_raissrc/bin/../lib/gcc/riscv-nuclei-elf/9.2.0/rv32imafc/ilp32f\libgcc.a(subdf3.o)
 .debug_ranges  0x00000000000060b0       0x38 d:/software/yuyin/qiqiyinqiluntai/riscv-nuclei-elf-gcc-9.2.0.0/gcc_fix_raissrc/bin/../lib/gcc/riscv-nuclei-elf/9.2.0/rv32imafc/ilp32f\libgcc.a(unorddf2.o)
 .debug_ranges  0x00000000000060e8       0x58 d:/software/yuyin/qiqiyinqiluntai/riscv-nuclei-elf-gcc-9.2.0.0/gcc_fix_raissrc/bin/../lib/gcc/riscv-nuclei-elf/9.2.0/rv32imafc/ilp32f\libgcc.a(fixdfsi.o)
 .debug_ranges  0x0000000000006140       0x68 d:/software/yuyin/qiqiyinqiluntai/riscv-nuclei-elf-gcc-9.2.0.0/gcc_fix_raissrc/bin/../lib/gcc/riscv-nuclei-elf/9.2.0/rv32imafc/ilp32f\libgcc.a(floatsidf.o)
 .debug_ranges  0x00000000000061a8       0x20 d:/software/yuyin/qiqiyinqiluntai/riscv-nuclei-elf-gcc-9.2.0.0/gcc_fix_raissrc/bin/../lib/gcc/riscv-nuclei-elf/9.2.0/rv32imafc/ilp32f\libgcc.a(extendsfdf2.o)
 .debug_ranges  0x00000000000061c8       0x78 d:/software/yuyin/qiqiyinqiluntai/riscv-nuclei-elf-gcc-9.2.0.0/gcc_fix_raissrc/bin/../lib/gcc/riscv-nuclei-elf/9.2.0/rv32imafc/ilp32f\libgcc.a(truncdfsf2.o)
 .debug_ranges  0x0000000000006240       0x20 d:/software/yuyin/qiqiyinqiluntai/riscv-nuclei-elf-gcc-9.2.0.0/gcc_fix_raissrc/bin/../lib/gcc/riscv-nuclei-elf/9.2.0/rv32imafc/ilp32f\libgcc.a(_clzsi2.o)

.debug_line     0x0000000000000000    0x41750
 .debug_line    0x0000000000000000    0x16c33 C:\TMP\nn_denoise_rtc_sample.elf.t3mX4c.ltrans0.ltrans.o
 .debug_line    0x0000000000016c33    0x11023 C:\TMP\nn_denoise_rtc_sample.elf.t3mX4c.ltrans1.ltrans.o
 .debug_line    0x0000000000027c56      0x2c9 C:\TMP\cc4YLWqI.debug.temp.o
 .debug_line    0x0000000000027f1f      0x1ca C:\TMP\cc6QkfHa.debug.temp.o
 .debug_line    0x00000000000280e9      0x26a C:\TMP\cc4209hD.debug.temp.o
 .debug_line    0x0000000000028353      0x335 C:\TMP\ccCPWpM5.debug.temp.o
 .debug_line    0x0000000000028688      0x263 C:\TMP\ccQrCnjy.debug.temp.o
 .debug_line    0x00000000000288eb      0x1c0 C:\TMP\ccCmUm6A.debug.temp.o
 .debug_line    0x0000000000028aab      0x304 C:\TMP\ccA3nlrE.debug.temp.o
 .debug_line    0x0000000000028daf      0x2ea C:\TMP\ccyrueia.debug.temp.o
 .debug_line    0x0000000000029099      0x32a C:\TMP\ccQH9FZF.debug.temp.o
 .debug_line    0x00000000000293c3      0x330 C:\TMP\ccAkZg8b.debug.temp.o
 .debug_line    0x00000000000296f3      0x32d C:\TMP\ccIrIPbI.debug.temp.o
 .debug_line    0x0000000000029a20      0x30d C:\TMP\cc2w12vd.debug.temp.o
 .debug_line    0x0000000000029d2d      0x2ba C:\TMP\cckXRLGI.debug.temp.o
 .debug_line    0x0000000000029fe7      0x2db C:\TMP\ccWvt5de.debug.temp.o
 .debug_line    0x000000000002a2c2      0x257 C:\TMP\ccW86zPJ.debug.temp.o
 .debug_line    0x000000000002a519      0x2d3 C:\TMP\ccoG6aIe.debug.temp.o
 .debug_line    0x000000000002a7ec      0x2c3 C:\TMP\ccgOl22l.debug.temp.o
 .debug_line    0x000000000002aaaf      0x302 C:\TMP\cc6IqVfu.debug.temp.o
 .debug_line    0x000000000002adb1      0x39c C:\TMP\ccoz6Dg3.debug.temp.o
 .debug_line    0x000000000002b14d      0x24b C:\TMP\ccoOXNqB.debug.temp.o
 .debug_line    0x000000000002b398      0x2e9 C:\TMP\ccM3YNr9.debug.temp.o
 .debug_line    0x000000000002b681      0x3bc C:\TMP\ccAAQFTH.debug.temp.o
 .debug_line    0x000000000002ba3d      0x448 C:\TMP\ccCmYdcg.debug.temp.o
 .debug_line    0x000000000002be85      0x3dc C:\TMP\cc6JTJal.debug.temp.o
 .debug_line    0x000000000002c261      0x17c C:\TMP\ccwSzk46.debug.temp.o
 .debug_line    0x000000000002c3dd      0x23e C:\TMP\ccIYmIhj.debug.temp.o
 .debug_line    0x000000000002c61b      0x2dc C:\TMP\ccW0pvkU.debug.temp.o
 .debug_line    0x000000000002c8f7      0x2a0 C:\TMP\ccydWBNv.debug.temp.o
 .debug_line    0x000000000002cb97      0x2b9 C:\TMP\ccMNkB36.debug.temp.o
 .debug_line    0x000000000002ce50      0x35d C:\TMP\cc0NmanI.debug.temp.o
 .debug_line    0x000000000002d1ad      0x40a C:\TMP\ccioQYZi.debug.temp.o
 .debug_line    0x000000000002d5b7      0x3bd C:\TMP\ccWT9ltT.debug.temp.o
 .debug_line    0x000000000002d974      0x334 C:\TMP\cc2LDSnu.debug.temp.o
 .debug_line    0x000000000002dca8      0x1f2 C:\TMP\cckkAW84.debug.temp.o
 .debug_line    0x000000000002de9a      0x3e3 C:\TMP\cckLCbaP.debug.temp.o
 .debug_line    0x000000000002e27d      0x2dc C:\TMP\ccMAbIrp.debug.temp.o
 .debug_line    0x000000000002e559      0x483 C:\TMP\cc88Jun8.debug.temp.o
 .debug_line    0x000000000002e9dc      0x2de C:\TMP\ccWJ5m0H.debug.temp.o
 .debug_line    0x000000000002ecba      0x4b0 C:\TMP\ccejiF5U.debug.temp.o
 .debug_line    0x000000000002f16a      0x27c C:\TMP\ccwXVfpy.debug.temp.o
 .debug_line    0x000000000002f3e6      0x27c C:\TMP\ccKdocac.debug.temp.o
 .debug_line    0x000000000002f662      0x24f C:\TMP\ccI5TmZP.debug.temp.o
 .debug_line    0x000000000002f8b1      0x336 C:\TMP\ccUcGdFt.debug.temp.o
 .debug_line    0x000000000002fbe7      0x1b2 C:\TMP\ccG0PW1l.debug.temp.o
 .debug_line    0x000000000002fd99      0x27b C:\TMP\ccEmJP1Y.debug.temp.o
 .debug_line    0x0000000000030014      0x2b4 C:\TMP\ccMtM85B.debug.temp.o
 .debug_line    0x00000000000302c8      0x1ac C:\TMP\ccWNvWqe.debug.temp.o
 .debug_line    0x0000000000030474      0x2a2 C:\TMP\ccIDzZDQ.debug.temp.o
 .debug_line    0x0000000000030716      0x2c3 C:\TMP\ccUKdEdt.debug.temp.o
 .debug_line    0x00000000000309d9      0x202 C:\TMP\ccwfYLZj.debug.temp.o
 .debug_line    0x0000000000030bdb      0x27e C:\TMP\ccanP2vV.debug.temp.o
 .debug_line    0x0000000000030e59      0x19d C:\TMP\ccqAXBxx.debug.temp.o
 .debug_line    0x0000000000030ff6      0x3cc C:\TMP\ccYcdZEy.debug.temp.o
 .debug_line    0x00000000000313c2      0x2af C:\TMP\ccWgNIQe.debug.temp.o
 .debug_line    0x0000000000031671       0x55 C:\TMP\cc8znSOU.debug.temp.o
 .debug_line    0x00000000000316c6      0x133 C:\TMP\ccALTbRA.debug.temp.o
 .debug_line    0x00000000000317f9      0x469 C:\TMP\ccYYdI9f.debug.temp.o
 .debug_line    0x0000000000031c62      0x44c C:\TMP\cc6dXIeV.debug.temp.o
 .debug_line    0x00000000000320ae      0x57b C:\TMP\ccioCXbg.debug.temp.o
 .debug_line    0x0000000000032629      0x42d C:\TMP\ccsU93OU.debug.temp.o
 .debug_line    0x0000000000032a56      0x3c4 C:\TMP\ccqIV5wz.debug.temp.o
 .debug_line    0x0000000000032e1a      0x4de C:\TMP\ccoWiE1d.debug.temp.o
 .debug_line    0x00000000000332f8      0x3f1 C:\TMP\cc2PI6WS.debug.temp.o
 .debug_line    0x00000000000336e9      0x1de C:\TMP\ccy5RdXx.debug.temp.o
 .debug_line    0x00000000000338c7      0x298 C:\TMP\cceuJ0Nc.debug.temp.o
 .debug_line    0x0000000000033b5f       0x5a C:\TMP\ccKfNAQQ.debug.temp.o
 .debug_line    0x0000000000033bb9       0x5b C:\TMP\ccMNvvXu.debug.temp.o
 .debug_line    0x0000000000033c14       0x5b C:\TMP\cc0xd6U8.debug.temp.o
 .debug_line    0x0000000000033c6f       0x5b C:\TMP\ccUrrsjN.debug.temp.o
 .debug_line    0x0000000000033cca       0x5b C:\TMP\cceVCNyr.debug.temp.o
 .debug_line    0x0000000000033d25       0x5b C:\TMP\ccsXfBG9.debug.temp.o
 .debug_line    0x0000000000033d80      0x1de C:\TMP\ccuHuDSR.debug.temp.o
 .debug_line    0x0000000000033f5e       0x56 C:\TMP\cc4cNFVz.debug.temp.o
 .debug_line    0x0000000000033fb4       0x5a C:\TMP\ccWNzili.debug.temp.o
 .debug_line    0x000000000003400e       0x5c C:\TMP\ccIfNaP0.debug.temp.o
 .debug_line    0x000000000003406a       0x56 C:\TMP\ccChVz9I.debug.temp.o
 .debug_line    0x00000000000340c0       0x5b C:\TMP\ccKO7eGq.debug.temp.o
 .debug_line    0x000000000003411b      0x317 C:\TMP\ccMAjp37.debug.temp.o
 .debug_line    0x0000000000034432       0x59 C:\TMP\ccACoKBx.debug.temp.o
 .debug_line    0x000000000003448b      0x1eb C:\TMP\ccq2nUnf.debug.temp.o
 .debug_line    0x0000000000034676       0x59 C:\TMP\cc6OP7pW.debug.temp.o
 .debug_line    0x00000000000346cf      0x244 C:\TMP\cc82nMeD.debug.temp.o
 .debug_line    0x0000000000034913      0x308 C:\TMP\ccAqiT7j.debug.temp.o
 .debug_line    0x0000000000034c1b      0x336 C:\TMP\ccqAlhs1.debug.temp.o
 .debug_line    0x0000000000034f51      0x367 C:\TMP\ccyFlzMI.debug.temp.o
 .debug_line    0x00000000000352b8      0x250 C:\TMP\ccUv8FXp.debug.temp.o
 .debug_line    0x0000000000035508      0x352 C:\TMP\cckAzKk6.debug.temp.o
 .debug_line    0x000000000003585a      0x30c C:\TMP\ccgGctQs.debug.temp.o
 .debug_line    0x0000000000035b66      0x317 C:\TMP\ccmKSSl9.debug.temp.o
 .debug_line    0x0000000000035e7d       0x58 C:\TMP\cciwW0C9.debug.temp.o
 .debug_line    0x0000000000035ed5       0x5c C:\TMP\ccoK7juU.debug.temp.o
 .debug_line    0x0000000000035f31      0x2e6 C:\TMP\ccma17bF.debug.temp.o
 .debug_line    0x0000000000036217      0x3d3 C:\TMP\ccg8ehap.debug.temp.o
 .debug_line    0x00000000000365ea      0x365 C:\TMP\cc4soLV8.debug.temp.o
 .debug_line    0x000000000003694f      0x4bd C:\TMP\cccO4GLS.debug.temp.o
 .debug_line    0x0000000000036e0c       0x9c C:\TMP\ccOUHKOC.debug.temp.o
 .debug_line    0x0000000000036ea8      0x347 C:\TMP\ccClinWm.debug.temp.o
 .debug_line    0x00000000000371ef      0x430 C:\TMP\ccmkdlk6.debug.temp.o
 .debug_line    0x000000000003761f      0x34d C:\TMP\cc8drquP.debug.temp.o
 .debug_line    0x000000000003796c      0x2e8 C:\TMP\ccInzvm2.debug.temp.o
 .debug_line    0x0000000000037c54      0x2d4 C:\TMP\ccoXnYNt.debug.temp.o
 .debug_line    0x0000000000037f28      0x1b1 C:\TMP\ccixn6tc.debug.temp.o
 .debug_line    0x00000000000380d9      0x347 C:\TMP\cciUcNwV.debug.temp.o
 .debug_line    0x0000000000038420      0x19e C:\TMP\ccIQfJuE.debug.temp.o
 .debug_line    0x00000000000385be      0x1a2 C:\TMP\cciOiYpr.debug.temp.o
 .debug_line    0x0000000000038760      0x1b0 C:\TMP\cc0Ptl7d.debug.temp.o
 .debug_line    0x0000000000038910      0x374 C:\TMP\cceknSf1.debug.temp.o
 .debug_line    0x0000000000038c84      0x39b C:\TMP\cciBcVsO.debug.temp.o
 .debug_line    0x000000000003901f      0x1f0 build/objs/ci130x_startup.o
 .debug_line    0x000000000003920f      0xcea ../../../libs\libnewlib_port.a(sbrk.o)
 .debug_line    0x0000000000039ef9      0x2c8 ../../../libs\libfreertos_port.a(portasm.o)
 .debug_line    0x000000000003a1c1      0x19c d:/software/yuyin/qiqiyinqiluntai/riscv-nuclei-elf-gcc-9.2.0.0/gcc_fix_raissrc/bin/../lib/gcc/riscv-nuclei-elf/9.2.0/rv32imafc/ilp32f\libgcc.a(save-restore.o)
 .debug_line    0x000000000003a35d     0x1637 d:/software/yuyin/qiqiyinqiluntai/riscv-nuclei-elf-gcc-9.2.0.0/gcc_fix_raissrc/bin/../lib/gcc/riscv-nuclei-elf/9.2.0/rv32imafc/ilp32f\libgcc.a(adddf3.o)
 .debug_line    0x000000000003b994     0x1289 d:/software/yuyin/qiqiyinqiluntai/riscv-nuclei-elf-gcc-9.2.0.0/gcc_fix_raissrc/bin/../lib/gcc/riscv-nuclei-elf/9.2.0/rv32imafc/ilp32f\libgcc.a(divdf3.o)
 .debug_line    0x000000000003cc1d      0x34a d:/software/yuyin/qiqiyinqiluntai/riscv-nuclei-elf-gcc-9.2.0.0/gcc_fix_raissrc/bin/../lib/gcc/riscv-nuclei-elf/9.2.0/rv32imafc/ilp32f\libgcc.a(eqdf2.o)
 .debug_line    0x000000000003cf67      0x377 d:/software/yuyin/qiqiyinqiluntai/riscv-nuclei-elf-gcc-9.2.0.0/gcc_fix_raissrc/bin/../lib/gcc/riscv-nuclei-elf/9.2.0/rv32imafc/ilp32f\libgcc.a(gedf2.o)
 .debug_line    0x000000000003d2de      0x377 d:/software/yuyin/qiqiyinqiluntai/riscv-nuclei-elf-gcc-9.2.0.0/gcc_fix_raissrc/bin/../lib/gcc/riscv-nuclei-elf/9.2.0/rv32imafc/ilp32f\libgcc.a(ledf2.o)
 .debug_line    0x000000000003d655     0x1099 d:/software/yuyin/qiqiyinqiluntai/riscv-nuclei-elf-gcc-9.2.0.0/gcc_fix_raissrc/bin/../lib/gcc/riscv-nuclei-elf/9.2.0/rv32imafc/ilp32f\libgcc.a(muldf3.o)
 .debug_line    0x000000000003e6ee     0x1673 d:/software/yuyin/qiqiyinqiluntai/riscv-nuclei-elf-gcc-9.2.0.0/gcc_fix_raissrc/bin/../lib/gcc/riscv-nuclei-elf/9.2.0/rv32imafc/ilp32f\libgcc.a(subdf3.o)
 .debug_line    0x000000000003fd61      0x2a3 d:/software/yuyin/qiqiyinqiluntai/riscv-nuclei-elf-gcc-9.2.0.0/gcc_fix_raissrc/bin/../lib/gcc/riscv-nuclei-elf/9.2.0/rv32imafc/ilp32f\libgcc.a(unorddf2.o)
 .debug_line    0x0000000000040004      0x345 d:/software/yuyin/qiqiyinqiluntai/riscv-nuclei-elf-gcc-9.2.0.0/gcc_fix_raissrc/bin/../lib/gcc/riscv-nuclei-elf/9.2.0/rv32imafc/ilp32f\libgcc.a(fixdfsi.o)
 .debug_line    0x0000000000040349      0x2bb d:/software/yuyin/qiqiyinqiluntai/riscv-nuclei-elf-gcc-9.2.0.0/gcc_fix_raissrc/bin/../lib/gcc/riscv-nuclei-elf/9.2.0/rv32imafc/ilp32f\libgcc.a(floatsidf.o)
 .debug_line    0x0000000000040604      0x41f d:/software/yuyin/qiqiyinqiluntai/riscv-nuclei-elf-gcc-9.2.0.0/gcc_fix_raissrc/bin/../lib/gcc/riscv-nuclei-elf/9.2.0/rv32imafc/ilp32f\libgcc.a(extendsfdf2.o)
 .debug_line    0x0000000000040a23      0x701 d:/software/yuyin/qiqiyinqiluntai/riscv-nuclei-elf-gcc-9.2.0.0/gcc_fix_raissrc/bin/../lib/gcc/riscv-nuclei-elf/9.2.0/rv32imafc/ilp32f\libgcc.a(truncdfsf2.o)
 .debug_line    0x0000000000041124      0x35c d:/software/yuyin/qiqiyinqiluntai/riscv-nuclei-elf-gcc-9.2.0.0/gcc_fix_raissrc/bin/../lib/gcc/riscv-nuclei-elf/9.2.0/rv32imafc/ilp32f\libgcc.a(_clzsi2.o)
 .debug_line    0x0000000000041480      0x2d0 d:/software/yuyin/qiqiyinqiluntai/riscv-nuclei-elf-gcc-9.2.0.0/gcc_fix_raissrc/bin/../lib/gcc/riscv-nuclei-elf/9.2.0/rv32imafc/ilp32f\libgcc.a(_clz.o)

.debug_str      0x0000000000000000    0x1aff6
 .debug_str     0x0000000000000000      0x48d C:\TMP\nn_denoise_rtc_sample.elf.t3mX4c.ltrans0.ltrans.o
                                        0x593 (size before relaxing)
 .debug_str     0x000000000000048d      0x1f6 C:\TMP\nn_denoise_rtc_sample.elf.t3mX4c.ltrans1.ltrans.o
                                        0x67c (size before relaxing)
 .debug_str     0x0000000000000683      0x8cd C:\TMP\cc4YLWqI.debug.temp.o
                                        0xe60 (size before relaxing)
 .debug_str     0x0000000000000f50      0x22c C:\TMP\cc6QkfHa.debug.temp.o
                                        0x8da (size before relaxing)
 .debug_str     0x000000000000117c       0x31 C:\TMP\cc4209hD.debug.temp.o
                                        0x6cc (size before relaxing)
 .debug_str     0x00000000000011ad      0x744 C:\TMP\ccCPWpM5.debug.temp.o
                                       0x126e (size before relaxing)
 .debug_str     0x00000000000018f1      0x298 C:\TMP\ccQrCnjy.debug.temp.o
                                        0x94c (size before relaxing)
 .debug_str     0x0000000000001b89      0x300 C:\TMP\ccCmUm6A.debug.temp.o
                                        0x5c2 (size before relaxing)
 .debug_str     0x0000000000001e89      0x3cb C:\TMP\ccA3nlrE.debug.temp.o
                                        0xa6d (size before relaxing)
 .debug_str     0x0000000000002254       0xb1 C:\TMP\ccyrueia.debug.temp.o
                                        0x7bc (size before relaxing)
 .debug_str     0x0000000000002305      0x61a C:\TMP\ccQH9FZF.debug.temp.o
                                       0x124e (size before relaxing)
 .debug_str     0x000000000000291f      0x4e6 C:\TMP\ccAkZg8b.debug.temp.o
                                       0x10ca (size before relaxing)
 .debug_str     0x0000000000002e05      0xd29 C:\TMP\ccIrIPbI.debug.temp.o
                                       0x1a45 (size before relaxing)
 .debug_str     0x0000000000003b2e      0x514 C:\TMP\cc2w12vd.debug.temp.o
                                        0xce7 (size before relaxing)
 .debug_str     0x0000000000004042      0x237 C:\TMP\cckXRLGI.debug.temp.o
                                        0xd4f (size before relaxing)
 .debug_str     0x0000000000004279      0x235 C:\TMP\ccWvt5de.debug.temp.o
                                        0xd2b (size before relaxing)
 .debug_str     0x00000000000044ae       0x4b C:\TMP\ccW86zPJ.debug.temp.o
                                        0x690 (size before relaxing)
 .debug_str     0x00000000000044f9      0x3a7 C:\TMP\ccoG6aIe.debug.temp.o
                                        0xb0c (size before relaxing)
 .debug_str     0x00000000000048a0      0x214 C:\TMP\ccgOl22l.debug.temp.o
                                        0x8dc (size before relaxing)
 .debug_str     0x0000000000004ab4      0x224 C:\TMP\cc6IqVfu.debug.temp.o
                                        0x904 (size before relaxing)
 .debug_str     0x0000000000004cd8      0x545 C:\TMP\ccoz6Dg3.debug.temp.o
                                       0x18ad (size before relaxing)
 .debug_str     0x000000000000521d     0x11d3 C:\TMP\ccoOXNqB.debug.temp.o
                                       0x18a6 (size before relaxing)
 .debug_str     0x00000000000063f0      0x46f C:\TMP\ccM3YNr9.debug.temp.o
                                       0x107f (size before relaxing)
 .debug_str     0x000000000000685f      0xb90 C:\TMP\ccAAQFTH.debug.temp.o
                                       0x18e6 (size before relaxing)
 .debug_str     0x00000000000073ef      0x7af C:\TMP\ccCmYdcg.debug.temp.o
                                       0x1dfc (size before relaxing)
 .debug_str     0x0000000000007b9e      0x24c C:\TMP\cc6JTJal.debug.temp.o
                                       0x106b (size before relaxing)
 .debug_str     0x0000000000007dea      0x2a1 C:\TMP\ccwSzk46.debug.temp.o
                                        0x6fd (size before relaxing)
 .debug_str     0x000000000000808b       0x98 C:\TMP\ccIYmIhj.debug.temp.o
                                       0x1bcf (size before relaxing)
 .debug_str     0x0000000000008123      0x5fc C:\TMP\ccW0pvkU.debug.temp.o
                                       0x116c (size before relaxing)
 .debug_str     0x000000000000871f      0x16a C:\TMP\ccydWBNv.debug.temp.o
                                        0x840 (size before relaxing)
 .debug_str     0x0000000000008889      0x429 C:\TMP\ccMNkB36.debug.temp.o
                                       0x104f (size before relaxing)
 .debug_str     0x0000000000008cb2      0x63d C:\TMP\cc0NmanI.debug.temp.o
                                       0x12b6 (size before relaxing)
 .debug_str     0x00000000000092ef      0x2ca C:\TMP\ccioQYZi.debug.temp.o
                                       0x11f2 (size before relaxing)
 .debug_str     0x00000000000095b9      0x32a C:\TMP\ccWT9ltT.debug.temp.o
                                       0x1fdc (size before relaxing)
 .debug_str     0x00000000000098e3      0x32f C:\TMP\cc2LDSnu.debug.temp.o
                                        0xbb7 (size before relaxing)
 .debug_str     0x0000000000009c12       0x94 C:\TMP\cckkAW84.debug.temp.o
                                        0x6de (size before relaxing)
 .debug_str     0x0000000000009ca6     0x1373 C:\TMP\cckLCbaP.debug.temp.o
                                       0x1fd6 (size before relaxing)
 .debug_str     0x000000000000b019       0xb8 C:\TMP\ccMAbIrp.debug.temp.o
                                       0x197d (size before relaxing)
 .debug_str     0x000000000000b0d1      0xa04 C:\TMP\cc88Jun8.debug.temp.o
                                       0x1b4f (size before relaxing)
 .debug_str     0x000000000000bad5      0x160 C:\TMP\ccWJ5m0H.debug.temp.o
                                        0x8a4 (size before relaxing)
 .debug_str     0x000000000000bc35      0x736 C:\TMP\ccejiF5U.debug.temp.o
                                       0x11d0 (size before relaxing)
 .debug_str     0x000000000000c36b      0x37c C:\TMP\ccwXVfpy.debug.temp.o
                                        0xa59 (size before relaxing)
 .debug_str     0x000000000000c6e7      0x164 C:\TMP\ccKdocac.debug.temp.o
                                        0x822 (size before relaxing)
 .debug_str     0x000000000000c84b      0x82e C:\TMP\ccI5TmZP.debug.temp.o
                                       0x1291 (size before relaxing)
 .debug_str     0x000000000000d079     0x17ce C:\TMP\ccUcGdFt.debug.temp.o
                                       0x2572 (size before relaxing)
 .debug_str     0x000000000000e847      0x470 C:\TMP\ccG0PW1l.debug.temp.o
                                        0xb63 (size before relaxing)
 .debug_str     0x000000000000ecb7       0x76 C:\TMP\ccEmJP1Y.debug.temp.o
                                        0x714 (size before relaxing)
 .debug_str     0x000000000000ed2d      0x497 C:\TMP\ccMtM85B.debug.temp.o
                                       0x12bb (size before relaxing)
 .debug_str     0x000000000000f1c4      0x51b C:\TMP\ccWNvWqe.debug.temp.o
                                        0x88a (size before relaxing)
 .debug_str     0x000000000000f6df      0x344 C:\TMP\ccIDzZDQ.debug.temp.o
                                        0xaac (size before relaxing)
 .debug_str     0x000000000000fa23      0x4b6 C:\TMP\ccUKdEdt.debug.temp.o
                                        0xdb9 (size before relaxing)
 .debug_str     0x000000000000fed9      0x5c3 C:\TMP\ccwfYLZj.debug.temp.o
                                       0x11ef (size before relaxing)
 .debug_str     0x000000000001049c      0x263 C:\TMP\ccanP2vV.debug.temp.o
                                        0xbab (size before relaxing)
 .debug_str     0x00000000000106ff      0x145 C:\TMP\ccqAXBxx.debug.temp.o
                                        0x786 (size before relaxing)
 .debug_str     0x0000000000010844      0x1f4 C:\TMP\ccYcdZEy.debug.temp.o
                                       0x1469 (size before relaxing)
 .debug_str     0x0000000000010a38       0xf9 C:\TMP\ccWgNIQe.debug.temp.o
                                        0x8a5 (size before relaxing)
 .debug_str     0x0000000000010b31       0x5e C:\TMP\cc8znSOU.debug.temp.o
                                        0x21c (size before relaxing)
 .debug_str     0x0000000000010b8f       0x40 C:\TMP\ccALTbRA.debug.temp.o
                                        0x2d0 (size before relaxing)
 .debug_str     0x0000000000010bcf      0x12b C:\TMP\ccYYdI9f.debug.temp.o
                                       0x10c2 (size before relaxing)
 .debug_str     0x0000000000010cfa      0x18f C:\TMP\cc6dXIeV.debug.temp.o
                                       0x168e (size before relaxing)
 .debug_str     0x0000000000010e89      0x944 C:\TMP\ccioCXbg.debug.temp.o
                                       0x213b (size before relaxing)
 .debug_str     0x00000000000117cd      0x116 C:\TMP\ccsU93OU.debug.temp.o
                                       0x1277 (size before relaxing)
 .debug_str     0x00000000000118e3      0x292 C:\TMP\ccqIV5wz.debug.temp.o
                                        0xccd (size before relaxing)
 .debug_str     0x0000000000011b75      0x431 C:\TMP\ccoWiE1d.debug.temp.o
                                       0x122d (size before relaxing)
 .debug_str     0x0000000000011fa6      0x118 C:\TMP\cc2PI6WS.debug.temp.o
                                        0xde1 (size before relaxing)
 .debug_str     0x00000000000120be      0x240 C:\TMP\ccy5RdXx.debug.temp.o
                                        0x904 (size before relaxing)
 .debug_str     0x00000000000122fe      0x1dc C:\TMP\cceuJ0Nc.debug.temp.o
                                        0x8e9 (size before relaxing)
 .debug_str     0x00000000000124da       0x48 C:\TMP\ccKfNAQQ.debug.temp.o
                                        0x20b (size before relaxing)
 .debug_str     0x0000000000012522       0x4a C:\TMP\ccMNvvXu.debug.temp.o
                                        0x20d (size before relaxing)
 .debug_str     0x000000000001256c       0x4a C:\TMP\cc0xd6U8.debug.temp.o
                                        0x20d (size before relaxing)
 .debug_str     0x00000000000125b6       0x4a C:\TMP\ccUrrsjN.debug.temp.o
                                        0x20d (size before relaxing)
 .debug_str     0x0000000000012600       0x3a C:\TMP\cceVCNyr.debug.temp.o
                                        0x20d (size before relaxing)
 .debug_str     0x000000000001263a       0x4a C:\TMP\ccsXfBG9.debug.temp.o
                                        0x20d (size before relaxing)
 .debug_str     0x0000000000012684      0x215 C:\TMP\ccuHuDSR.debug.temp.o
                                        0x904 (size before relaxing)
 .debug_str     0x0000000000012899       0x42 C:\TMP\cc4cNFVz.debug.temp.o
                                        0x205 (size before relaxing)
 .debug_str     0x00000000000128db       0x47 C:\TMP\ccWNzili.debug.temp.o
                                        0x20a (size before relaxing)
 .debug_str     0x0000000000012922       0x4c C:\TMP\ccIfNaP0.debug.temp.o
                                        0x20f (size before relaxing)
 .debug_str     0x000000000001296e       0x40 C:\TMP\ccChVz9I.debug.temp.o
                                        0x203 (size before relaxing)
 .debug_str     0x00000000000129ae       0x57 C:\TMP\ccKO7eGq.debug.temp.o
                                        0x21a (size before relaxing)
 .debug_str     0x0000000000012a05      0x189 C:\TMP\ccMAjp37.debug.temp.o
                                        0x88b (size before relaxing)
 .debug_str     0x0000000000012b8e       0x4a C:\TMP\ccACoKBx.debug.temp.o
                                        0x2ae (size before relaxing)
 .debug_str     0x0000000000012bd8       0xd7 C:\TMP\ccq2nUnf.debug.temp.o
                                        0x7ba (size before relaxing)
 .debug_str     0x0000000000012caf       0x6e C:\TMP\cc6OP7pW.debug.temp.o
                                        0x239 (size before relaxing)
 .debug_str     0x0000000000012d1d      0x236 C:\TMP\cc82nMeD.debug.temp.o
                                        0x9fa (size before relaxing)
 .debug_str     0x0000000000012f53      0x157 C:\TMP\ccAqiT7j.debug.temp.o
                                        0xcc6 (size before relaxing)
 .debug_str     0x00000000000130aa       0xc2 C:\TMP\ccqAlhs1.debug.temp.o
                                        0xc05 (size before relaxing)
 .debug_str     0x000000000001316c      0x457 C:\TMP\ccyFlzMI.debug.temp.o
                                       0x10cc (size before relaxing)
 .debug_str     0x00000000000135c3       0xd6 C:\TMP\ccUv8FXp.debug.temp.o
                                        0x889 (size before relaxing)
 .debug_str     0x0000000000013699      0x1b6 C:\TMP\cckAzKk6.debug.temp.o
                                        0xe96 (size before relaxing)
 .debug_str     0x000000000001384f      0x145 C:\TMP\ccgGctQs.debug.temp.o
                                        0xbc7 (size before relaxing)
 .debug_str     0x0000000000013994      0x11a C:\TMP\ccmKSSl9.debug.temp.o
                                        0x973 (size before relaxing)
 .debug_str     0x0000000000013aae       0x6d C:\TMP\cciwW0C9.debug.temp.o
                                        0x2ee (size before relaxing)
 .debug_str     0x0000000000013b1b       0x31 C:\TMP\ccoK7juU.debug.temp.o
                                        0x288 (size before relaxing)
 .debug_str     0x0000000000013b4c       0x98 C:\TMP\ccma17bF.debug.temp.o
                                        0x9ca (size before relaxing)
 .debug_str     0x0000000000013be4     0x1411 C:\TMP\ccg8ehap.debug.temp.o
                                       0x2ba6 (size before relaxing)
 .debug_str     0x0000000000014ff5      0x391 C:\TMP\cc4soLV8.debug.temp.o
                                       0x1bc4 (size before relaxing)
 .debug_str     0x0000000000015386     0x14f1 C:\TMP\cccO4GLS.debug.temp.o
                                       0x3aab (size before relaxing)
 .debug_str     0x0000000000016877      0x210 C:\TMP\ccOUHKOC.debug.temp.o
                                        0x3e8 (size before relaxing)
 .debug_str     0x0000000000016a87      0x21c C:\TMP\ccClinWm.debug.temp.o
                                       0x1a20 (size before relaxing)
 .debug_str     0x0000000000016ca3      0x27e C:\TMP\ccmkdlk6.debug.temp.o
                                       0x2013 (size before relaxing)
 .debug_str     0x0000000000016f21      0x11e C:\TMP\cc8drquP.debug.temp.o
                                       0x193b (size before relaxing)
 .debug_str     0x000000000001703f      0x370 C:\TMP\ccInzvm2.debug.temp.o
                                        0xe88 (size before relaxing)
 .debug_str     0x00000000000173af      0x17b C:\TMP\ccoXnYNt.debug.temp.o
                                        0xa13 (size before relaxing)
 .debug_str     0x000000000001752a      0x119 C:\TMP\ccixn6tc.debug.temp.o
                                        0x9a5 (size before relaxing)
 .debug_str     0x0000000000017643      0x1d0 C:\TMP\cciUcNwV.debug.temp.o
                                        0xaea (size before relaxing)
 .debug_str     0x0000000000017813      0x778 C:\TMP\ccIQfJuE.debug.temp.o
                                       0x127d (size before relaxing)
 .debug_str     0x0000000000017f8b      0x212 C:\TMP\cciOiYpr.debug.temp.o
                                        0x528 (size before relaxing)
 .debug_str     0x000000000001819d      0xade C:\TMP\cc0Ptl7d.debug.temp.o
                                       0x1486 (size before relaxing)
 .debug_str     0x0000000000018c7b      0x680 C:\TMP\cceknSf1.debug.temp.o
                                        0xf18 (size before relaxing)
 .debug_str     0x00000000000192fb      0x246 C:\TMP\cciBcVsO.debug.temp.o
                                       0x1244 (size before relaxing)
 .debug_str     0x0000000000019541       0xb9 build/objs/ci130x_startup.o
 .debug_str     0x00000000000195fa      0xd05 ../../../libs\libnewlib_port.a(sbrk.o)
                                        0xe31 (size before relaxing)
 .debug_str     0x000000000001a2ff       0x7e ../../../libs\libfreertos_port.a(portasm.o)
                                         0x8a (size before relaxing)
 .debug_str     0x000000000001a37d       0xdd d:/software/yuyin/qiqiyinqiluntai/riscv-nuclei-elf-gcc-9.2.0.0/gcc_fix_raissrc/bin/../lib/gcc/riscv-nuclei-elf/9.2.0/rv32imafc/ilp32f\libgcc.a(save-restore.o)
                                         0xe9 (size before relaxing)
 .debug_str     0x000000000001a45a      0x25b d:/software/yuyin/qiqiyinqiluntai/riscv-nuclei-elf-gcc-9.2.0.0/gcc_fix_raissrc/bin/../lib/gcc/riscv-nuclei-elf/9.2.0/rv32imafc/ilp32f\libgcc.a(adddf3.o)
                                        0x371 (size before relaxing)
 .debug_str     0x000000000001a6b5      0x1fd d:/software/yuyin/qiqiyinqiluntai/riscv-nuclei-elf-gcc-9.2.0.0/gcc_fix_raissrc/bin/../lib/gcc/riscv-nuclei-elf/9.2.0/rv32imafc/ilp32f\libgcc.a(divdf3.o)
                                        0x433 (size before relaxing)
 .debug_str     0x000000000001a8b2       0x72 d:/software/yuyin/qiqiyinqiluntai/riscv-nuclei-elf-gcc-9.2.0.0/gcc_fix_raissrc/bin/../lib/gcc/riscv-nuclei-elf/9.2.0/rv32imafc/ilp32f\libgcc.a(eqdf2.o)
                                        0x28b (size before relaxing)
 .debug_str     0x000000000001a924       0x77 d:/software/yuyin/qiqiyinqiluntai/riscv-nuclei-elf-gcc-9.2.0.0/gcc_fix_raissrc/bin/../lib/gcc/riscv-nuclei-elf/9.2.0/rv32imafc/ilp32f\libgcc.a(gedf2.o)
                                        0x2af (size before relaxing)
 .debug_str     0x000000000001a99b       0x53 d:/software/yuyin/qiqiyinqiluntai/riscv-nuclei-elf-gcc-9.2.0.0/gcc_fix_raissrc/bin/../lib/gcc/riscv-nuclei-elf/9.2.0/rv32imafc/ilp32f\libgcc.a(ledf2.o)
                                        0x2af (size before relaxing)
 .debug_str     0x000000000001a9ee      0x17a d:/software/yuyin/qiqiyinqiluntai/riscv-nuclei-elf-gcc-9.2.0.0/gcc_fix_raissrc/bin/../lib/gcc/riscv-nuclei-elf/9.2.0/rv32imafc/ilp32f\libgcc.a(muldf3.o)
                                        0x48b (size before relaxing)
 .debug_str     0x000000000001ab68       0x55 d:/software/yuyin/qiqiyinqiluntai/riscv-nuclei-elf-gcc-9.2.0.0/gcc_fix_raissrc/bin/../lib/gcc/riscv-nuclei-elf/9.2.0/rv32imafc/ilp32f\libgcc.a(subdf3.o)
                                        0x371 (size before relaxing)
 .debug_str     0x000000000001abbd       0x59 d:/software/yuyin/qiqiyinqiluntai/riscv-nuclei-elf-gcc-9.2.0.0/gcc_fix_raissrc/bin/../lib/gcc/riscv-nuclei-elf/9.2.0/rv32imafc/ilp32f\libgcc.a(unorddf2.o)
                                        0x291 (size before relaxing)
 .debug_str     0x000000000001ac16       0x72 d:/software/yuyin/qiqiyinqiluntai/riscv-nuclei-elf-gcc-9.2.0.0/gcc_fix_raissrc/bin/../lib/gcc/riscv-nuclei-elf/9.2.0/rv32imafc/ilp32f\libgcc.a(fixdfsi.o)
                                        0x288 (size before relaxing)
 .debug_str     0x000000000001ac88       0x88 d:/software/yuyin/qiqiyinqiluntai/riscv-nuclei-elf-gcc-9.2.0.0/gcc_fix_raissrc/bin/../lib/gcc/riscv-nuclei-elf/9.2.0/rv32imafc/ilp32f\libgcc.a(floatsidf.o)
                                        0x31e (size before relaxing)
 .debug_str     0x000000000001ad10       0x99 d:/software/yuyin/qiqiyinqiluntai/riscv-nuclei-elf-gcc-9.2.0.0/gcc_fix_raissrc/bin/../lib/gcc/riscv-nuclei-elf/9.2.0/rv32imafc/ilp32f\libgcc.a(extendsfdf2.o)
                                        0x2ac (size before relaxing)
 .debug_str     0x000000000001ada9       0x85 d:/software/yuyin/qiqiyinqiluntai/riscv-nuclei-elf-gcc-9.2.0.0/gcc_fix_raissrc/bin/../lib/gcc/riscv-nuclei-elf/9.2.0/rv32imafc/ilp32f\libgcc.a(truncdfsf2.o)
                                        0x30a (size before relaxing)
 .debug_str     0x000000000001ae2e      0x1c8 d:/software/yuyin/qiqiyinqiluntai/riscv-nuclei-elf-gcc-9.2.0.0/gcc_fix_raissrc/bin/../lib/gcc/riscv-nuclei-elf/9.2.0/rv32imafc/ilp32f\libgcc.a(_clzsi2.o)
                                        0x80f (size before relaxing)
 .debug_str     0x000000000001aff6      0x7f2 d:/software/yuyin/qiqiyinqiluntai/riscv-nuclei-elf-gcc-9.2.0.0/gcc_fix_raissrc/bin/../lib/gcc/riscv-nuclei-elf/9.2.0/rv32imafc/ilp32f\libgcc.a(_clz.o)

.comment        0x0000000000000000       0x11
 .comment       0x0000000000000000       0x12 C:\TMP\nn_denoise_rtc_sample.elf.t3mX4c.ltrans0.ltrans.o
 .comment       0x0000000000000000       0x12 C:\TMP\nn_denoise_rtc_sample.elf.t3mX4c.ltrans1.ltrans.o
 .comment       0x0000000000000000       0x11 ../../../libs\libnewlib_port.a(sbrk.o)
                                         0x12 (size before relaxing)
 .comment       0x0000000000000011       0x12 d:/software/yuyin/qiqiyinqiluntai/riscv-nuclei-elf-gcc-9.2.0.0/gcc_fix_raissrc/bin/../lib/gcc/riscv-nuclei-elf/9.2.0/rv32imafc/ilp32f\libgcc.a(adddf3.o)
 .comment       0x0000000000000011       0x12 d:/software/yuyin/qiqiyinqiluntai/riscv-nuclei-elf-gcc-9.2.0.0/gcc_fix_raissrc/bin/../lib/gcc/riscv-nuclei-elf/9.2.0/rv32imafc/ilp32f\libgcc.a(divdf3.o)
 .comment       0x0000000000000011       0x12 d:/software/yuyin/qiqiyinqiluntai/riscv-nuclei-elf-gcc-9.2.0.0/gcc_fix_raissrc/bin/../lib/gcc/riscv-nuclei-elf/9.2.0/rv32imafc/ilp32f\libgcc.a(eqdf2.o)
 .comment       0x0000000000000011       0x12 d:/software/yuyin/qiqiyinqiluntai/riscv-nuclei-elf-gcc-9.2.0.0/gcc_fix_raissrc/bin/../lib/gcc/riscv-nuclei-elf/9.2.0/rv32imafc/ilp32f\libgcc.a(gedf2.o)
 .comment       0x0000000000000011       0x12 d:/software/yuyin/qiqiyinqiluntai/riscv-nuclei-elf-gcc-9.2.0.0/gcc_fix_raissrc/bin/../lib/gcc/riscv-nuclei-elf/9.2.0/rv32imafc/ilp32f\libgcc.a(ledf2.o)
 .comment       0x0000000000000011       0x12 d:/software/yuyin/qiqiyinqiluntai/riscv-nuclei-elf-gcc-9.2.0.0/gcc_fix_raissrc/bin/../lib/gcc/riscv-nuclei-elf/9.2.0/rv32imafc/ilp32f\libgcc.a(muldf3.o)
 .comment       0x0000000000000011       0x12 d:/software/yuyin/qiqiyinqiluntai/riscv-nuclei-elf-gcc-9.2.0.0/gcc_fix_raissrc/bin/../lib/gcc/riscv-nuclei-elf/9.2.0/rv32imafc/ilp32f\libgcc.a(subdf3.o)
 .comment       0x0000000000000011       0x12 d:/software/yuyin/qiqiyinqiluntai/riscv-nuclei-elf-gcc-9.2.0.0/gcc_fix_raissrc/bin/../lib/gcc/riscv-nuclei-elf/9.2.0/rv32imafc/ilp32f\libgcc.a(unorddf2.o)
 .comment       0x0000000000000011       0x12 d:/software/yuyin/qiqiyinqiluntai/riscv-nuclei-elf-gcc-9.2.0.0/gcc_fix_raissrc/bin/../lib/gcc/riscv-nuclei-elf/9.2.0/rv32imafc/ilp32f\libgcc.a(fixdfsi.o)
 .comment       0x0000000000000011       0x12 d:/software/yuyin/qiqiyinqiluntai/riscv-nuclei-elf-gcc-9.2.0.0/gcc_fix_raissrc/bin/../lib/gcc/riscv-nuclei-elf/9.2.0/rv32imafc/ilp32f\libgcc.a(floatsidf.o)
 .comment       0x0000000000000011       0x12 d:/software/yuyin/qiqiyinqiluntai/riscv-nuclei-elf-gcc-9.2.0.0/gcc_fix_raissrc/bin/../lib/gcc/riscv-nuclei-elf/9.2.0/rv32imafc/ilp32f\libgcc.a(extendsfdf2.o)
 .comment       0x0000000000000011       0x12 d:/software/yuyin/qiqiyinqiluntai/riscv-nuclei-elf-gcc-9.2.0.0/gcc_fix_raissrc/bin/../lib/gcc/riscv-nuclei-elf/9.2.0/rv32imafc/ilp32f\libgcc.a(truncdfsf2.o)
 .comment       0x0000000000000011       0x12 d:/software/yuyin/qiqiyinqiluntai/riscv-nuclei-elf-gcc-9.2.0.0/gcc_fix_raissrc/bin/../lib/gcc/riscv-nuclei-elf/9.2.0/rv32imafc/ilp32f\libgcc.a(_clzsi2.o)
 .comment       0x0000000000000011       0x12 d:/software/yuyin/qiqiyinqiluntai/riscv-nuclei-elf-gcc-9.2.0.0/gcc_fix_raissrc/bin/../lib/gcc/riscv-nuclei-elf/9.2.0/rv32imafc/ilp32f\libgcc.a(_clz.o)
 .comment       0x0000000000000011       0x12 d:/software/yuyin/qiqiyinqiluntai/riscv-nuclei-elf-gcc-9.2.0.0/gcc_fix_raissrc/bin/../lib/gcc/riscv-nuclei-elf/9.2.0/../../../../riscv-nuclei-elf/lib/rv32imafc/ilp32f\libg_nano.a(lib_a-atexit.o)
 .comment       0x0000000000000011       0x12 d:/software/yuyin/qiqiyinqiluntai/riscv-nuclei-elf-gcc-9.2.0.0/gcc_fix_raissrc/bin/../lib/gcc/riscv-nuclei-elf/9.2.0/../../../../riscv-nuclei-elf/lib/rv32imafc/ilp32f\libg_nano.a(lib_a-exit.o)
 .comment       0x0000000000000011       0x12 d:/software/yuyin/qiqiyinqiluntai/riscv-nuclei-elf-gcc-9.2.0.0/gcc_fix_raissrc/bin/../lib/gcc/riscv-nuclei-elf/9.2.0/../../../../riscv-nuclei-elf/lib/rv32imafc/ilp32f\libg_nano.a(lib_a-fini.o)
 .comment       0x0000000000000011       0x12 d:/software/yuyin/qiqiyinqiluntai/riscv-nuclei-elf-gcc-9.2.0.0/gcc_fix_raissrc/bin/../lib/gcc/riscv-nuclei-elf/9.2.0/../../../../riscv-nuclei-elf/lib/rv32imafc/ilp32f\libg_nano.a(lib_a-impure.o)
 .comment       0x0000000000000011       0x12 d:/software/yuyin/qiqiyinqiluntai/riscv-nuclei-elf-gcc-9.2.0.0/gcc_fix_raissrc/bin/../lib/gcc/riscv-nuclei-elf/9.2.0/../../../../riscv-nuclei-elf/lib/rv32imafc/ilp32f\libg_nano.a(lib_a-init.o)
 .comment       0x0000000000000011       0x12 d:/software/yuyin/qiqiyinqiluntai/riscv-nuclei-elf-gcc-9.2.0.0/gcc_fix_raissrc/bin/../lib/gcc/riscv-nuclei-elf/9.2.0/../../../../riscv-nuclei-elf/lib/rv32imafc/ilp32f\libg_nano.a(lib_a-__atexit.o)
 .comment       0x0000000000000011       0x12 d:/software/yuyin/qiqiyinqiluntai/riscv-nuclei-elf-gcc-9.2.0.0/gcc_fix_raissrc/bin/../lib/gcc/riscv-nuclei-elf/9.2.0/../../../../riscv-nuclei-elf/lib/rv32imafc/ilp32f\libg_nano.a(lib_a-__call_atexit.o)
 .comment       0x0000000000000011       0x12 d:/software/yuyin/qiqiyinqiluntai/riscv-nuclei-elf-gcc-9.2.0.0/gcc_fix_raissrc/bin/../lib/gcc/riscv-nuclei-elf/9.2.0/../../../../riscv-nuclei-elf/lib/rv32imafc/ilp32f\libg_nano.a(lib_a-calloc.o)
 .comment       0x0000000000000011       0x12 d:/software/yuyin/qiqiyinqiluntai/riscv-nuclei-elf-gcc-9.2.0.0/gcc_fix_raissrc/bin/../lib/gcc/riscv-nuclei-elf/9.2.0/../../../../riscv-nuclei-elf/lib/rv32imafc/ilp32f\libg_nano.a(lib_a-fprintf.o)
 .comment       0x0000000000000011       0x12 d:/software/yuyin/qiqiyinqiluntai/riscv-nuclei-elf-gcc-9.2.0.0/gcc_fix_raissrc/bin/../lib/gcc/riscv-nuclei-elf/9.2.0/../../../../riscv-nuclei-elf/lib/rv32imafc/ilp32f\libg_nano.a(lib_a-nano-callocr.o)
 .comment       0x0000000000000011       0x12 d:/software/yuyin/qiqiyinqiluntai/riscv-nuclei-elf-gcc-9.2.0.0/gcc_fix_raissrc/bin/../lib/gcc/riscv-nuclei-elf/9.2.0/../../../../riscv-nuclei-elf/lib/rv32imafc/ilp32f\libg_nano.a(lib_a-nano-mallocr.o)
 .comment       0x0000000000000011       0x12 d:/software/yuyin/qiqiyinqiluntai/riscv-nuclei-elf-gcc-9.2.0.0/gcc_fix_raissrc/bin/../lib/gcc/riscv-nuclei-elf/9.2.0/../../../../riscv-nuclei-elf/lib/rv32imafc/ilp32f\libg_nano.a(lib_a-nano-vfprintf.o)
 .comment       0x0000000000000011       0x12 d:/software/yuyin/qiqiyinqiluntai/riscv-nuclei-elf-gcc-9.2.0.0/gcc_fix_raissrc/bin/../lib/gcc/riscv-nuclei-elf/9.2.0/../../../../riscv-nuclei-elf/lib/rv32imafc/ilp32f\libg_nano.a(lib_a-realloc.o)
 .comment       0x0000000000000011       0x12 d:/software/yuyin/qiqiyinqiluntai/riscv-nuclei-elf-gcc-9.2.0.0/gcc_fix_raissrc/bin/../lib/gcc/riscv-nuclei-elf/9.2.0/../../../../riscv-nuclei-elf/lib/rv32imafc/ilp32f\libg_nano.a(lib_a-sbrkr.o)
 .comment       0x0000000000000011       0x12 d:/software/yuyin/qiqiyinqiluntai/riscv-nuclei-elf-gcc-9.2.0.0/gcc_fix_raissrc/bin/../lib/gcc/riscv-nuclei-elf/9.2.0/../../../../riscv-nuclei-elf/lib/rv32imafc/ilp32f\libg_nano.a(lib_a-wbuf.o)
 .comment       0x0000000000000011       0x12 d:/software/yuyin/qiqiyinqiluntai/riscv-nuclei-elf-gcc-9.2.0.0/gcc_fix_raissrc/bin/../lib/gcc/riscv-nuclei-elf/9.2.0/../../../../riscv-nuclei-elf/lib/rv32imafc/ilp32f\libg_nano.a(lib_a-wsetup.o)
 .comment       0x0000000000000011       0x12 d:/software/yuyin/qiqiyinqiluntai/riscv-nuclei-elf-gcc-9.2.0.0/gcc_fix_raissrc/bin/../lib/gcc/riscv-nuclei-elf/9.2.0/../../../../riscv-nuclei-elf/lib/rv32imafc/ilp32f\libg_nano.a(lib_a-fflush.o)
 .comment       0x0000000000000011       0x12 d:/software/yuyin/qiqiyinqiluntai/riscv-nuclei-elf-gcc-9.2.0.0/gcc_fix_raissrc/bin/../lib/gcc/riscv-nuclei-elf/9.2.0/../../../../riscv-nuclei-elf/lib/rv32imafc/ilp32f\libg_nano.a(lib_a-findfp.o)
 .comment       0x0000000000000011       0x12 d:/software/yuyin/qiqiyinqiluntai/riscv-nuclei-elf-gcc-9.2.0.0/gcc_fix_raissrc/bin/../lib/gcc/riscv-nuclei-elf/9.2.0/../../../../riscv-nuclei-elf/lib/rv32imafc/ilp32f\libg_nano.a(lib_a-fwalk.o)
 .comment       0x0000000000000011       0x12 d:/software/yuyin/qiqiyinqiluntai/riscv-nuclei-elf-gcc-9.2.0.0/gcc_fix_raissrc/bin/../lib/gcc/riscv-nuclei-elf/9.2.0/../../../../riscv-nuclei-elf/lib/rv32imafc/ilp32f\libg_nano.a(lib_a-makebuf.o)
 .comment       0x0000000000000011       0x12 d:/software/yuyin/qiqiyinqiluntai/riscv-nuclei-elf-gcc-9.2.0.0/gcc_fix_raissrc/bin/../lib/gcc/riscv-nuclei-elf/9.2.0/../../../../riscv-nuclei-elf/lib/rv32imafc/ilp32f\libg_nano.a(lib_a-memchr.o)
 .comment       0x0000000000000011       0x12 d:/software/yuyin/qiqiyinqiluntai/riscv-nuclei-elf-gcc-9.2.0.0/gcc_fix_raissrc/bin/../lib/gcc/riscv-nuclei-elf/9.2.0/../../../../riscv-nuclei-elf/lib/rv32imafc/ilp32f\libg_nano.a(lib_a-nano-freer.o)
 .comment       0x0000000000000011       0x12 d:/software/yuyin/qiqiyinqiluntai/riscv-nuclei-elf-gcc-9.2.0.0/gcc_fix_raissrc/bin/../lib/gcc/riscv-nuclei-elf/9.2.0/../../../../riscv-nuclei-elf/lib/rv32imafc/ilp32f\libg_nano.a(lib_a-nano-reallocr.o)
 .comment       0x0000000000000011       0x12 d:/software/yuyin/qiqiyinqiluntai/riscv-nuclei-elf-gcc-9.2.0.0/gcc_fix_raissrc/bin/../lib/gcc/riscv-nuclei-elf/9.2.0/../../../../riscv-nuclei-elf/lib/rv32imafc/ilp32f\libg_nano.a(lib_a-nano-vfprintf_i.o)
 .comment       0x0000000000000011       0x12 d:/software/yuyin/qiqiyinqiluntai/riscv-nuclei-elf-gcc-9.2.0.0/gcc_fix_raissrc/bin/../lib/gcc/riscv-nuclei-elf/9.2.0/../../../../riscv-nuclei-elf/lib/rv32imafc/ilp32f\libg_nano.a(lib_a-reent.o)
 .comment       0x0000000000000011       0x12 d:/software/yuyin/qiqiyinqiluntai/riscv-nuclei-elf-gcc-9.2.0.0/gcc_fix_raissrc/bin/../lib/gcc/riscv-nuclei-elf/9.2.0/../../../../riscv-nuclei-elf/lib/rv32imafc/ilp32f\libg_nano.a(lib_a-stdio.o)
 .comment       0x0000000000000011       0x12 d:/software/yuyin/qiqiyinqiluntai/riscv-nuclei-elf-gcc-9.2.0.0/gcc_fix_raissrc/bin/../lib/gcc/riscv-nuclei-elf/9.2.0/../../../../riscv-nuclei-elf/lib/rv32imafc/ilp32f\libg_nano.a(lib_a-writer.o)
 .comment       0x0000000000000011       0x12 d:/software/yuyin/qiqiyinqiluntai/riscv-nuclei-elf-gcc-9.2.0.0/gcc_fix_raissrc/bin/../lib/gcc/riscv-nuclei-elf/9.2.0/../../../../riscv-nuclei-elf/lib/rv32imafc/ilp32f\libg_nano.a(lib_a-closer.o)
 .comment       0x0000000000000011       0x12 d:/software/yuyin/qiqiyinqiluntai/riscv-nuclei-elf-gcc-9.2.0.0/gcc_fix_raissrc/bin/../lib/gcc/riscv-nuclei-elf/9.2.0/../../../../riscv-nuclei-elf/lib/rv32imafc/ilp32f\libg_nano.a(lib_a-fstatr.o)
 .comment       0x0000000000000011       0x12 d:/software/yuyin/qiqiyinqiluntai/riscv-nuclei-elf-gcc-9.2.0.0/gcc_fix_raissrc/bin/../lib/gcc/riscv-nuclei-elf/9.2.0/../../../../riscv-nuclei-elf/lib/rv32imafc/ilp32f\libg_nano.a(lib_a-isattyr.o)
 .comment       0x0000000000000011       0x12 d:/software/yuyin/qiqiyinqiluntai/riscv-nuclei-elf-gcc-9.2.0.0/gcc_fix_raissrc/bin/../lib/gcc/riscv-nuclei-elf/9.2.0/../../../../riscv-nuclei-elf/lib/rv32imafc/ilp32f\libg_nano.a(lib_a-lseekr.o)
 .comment       0x0000000000000011       0x12 d:/software/yuyin/qiqiyinqiluntai/riscv-nuclei-elf-gcc-9.2.0.0/gcc_fix_raissrc/bin/../lib/gcc/riscv-nuclei-elf/9.2.0/../../../../riscv-nuclei-elf/lib/rv32imafc/ilp32f\libg_nano.a(lib_a-nano-msizer.o)
 .comment       0x0000000000000011       0x12 d:/software/yuyin/qiqiyinqiluntai/riscv-nuclei-elf-gcc-9.2.0.0/gcc_fix_raissrc/bin/../lib/gcc/riscv-nuclei-elf/9.2.0/../../../../riscv-nuclei-elf/lib/rv32imafc/ilp32f\libg_nano.a(lib_a-readr.o)
 .comment       0x0000000000000011       0x12 d:/software/yuyin/qiqiyinqiluntai/riscv-nuclei-elf-gcc-9.2.0.0/gcc_fix_raissrc/bin/../lib/gcc/riscv-nuclei-elf/9.2.0/../../../../riscv-nuclei-elf/lib/rv32imafc/ilp32f\libgloss_nano.a(sys_exit.o)
 .comment       0x0000000000000011       0x12 d:/software/yuyin/qiqiyinqiluntai/riscv-nuclei-elf-gcc-9.2.0.0/gcc_fix_raissrc/bin/../lib/gcc/riscv-nuclei-elf/9.2.0/../../../../riscv-nuclei-elf/lib/rv32imafc/ilp32f\libgloss_nano.a(sys_close.o)
 .comment       0x0000000000000011       0x12 d:/software/yuyin/qiqiyinqiluntai/riscv-nuclei-elf-gcc-9.2.0.0/gcc_fix_raissrc/bin/../lib/gcc/riscv-nuclei-elf/9.2.0/../../../../riscv-nuclei-elf/lib/rv32imafc/ilp32f\libgloss_nano.a(sys_fstat.o)
 .comment       0x0000000000000011       0x12 d:/software/yuyin/qiqiyinqiluntai/riscv-nuclei-elf-gcc-9.2.0.0/gcc_fix_raissrc/bin/../lib/gcc/riscv-nuclei-elf/9.2.0/../../../../riscv-nuclei-elf/lib/rv32imafc/ilp32f\libgloss_nano.a(sys_isatty.o)
 .comment       0x0000000000000011       0x12 d:/software/yuyin/qiqiyinqiluntai/riscv-nuclei-elf-gcc-9.2.0.0/gcc_fix_raissrc/bin/../lib/gcc/riscv-nuclei-elf/9.2.0/../../../../riscv-nuclei-elf/lib/rv32imafc/ilp32f\libgloss_nano.a(sys_lseek.o)
 .comment       0x0000000000000011       0x12 d:/software/yuyin/qiqiyinqiluntai/riscv-nuclei-elf-gcc-9.2.0.0/gcc_fix_raissrc/bin/../lib/gcc/riscv-nuclei-elf/9.2.0/../../../../riscv-nuclei-elf/lib/rv32imafc/ilp32f\libgloss_nano.a(sys_read.o)
 .comment       0x0000000000000011       0x12 d:/software/yuyin/qiqiyinqiluntai/riscv-nuclei-elf-gcc-9.2.0.0/gcc_fix_raissrc/bin/../lib/gcc/riscv-nuclei-elf/9.2.0/../../../../riscv-nuclei-elf/lib/rv32imafc/ilp32f\libgloss_nano.a(sys_write.o)
 .comment       0x0000000000000011       0x12 d:/software/yuyin/qiqiyinqiluntai/riscv-nuclei-elf-gcc-9.2.0.0/gcc_fix_raissrc/bin/../lib/gcc/riscv-nuclei-elf/9.2.0/../../../../riscv-nuclei-elf/lib/rv32imafc/ilp32f\libgloss_nano.a(sys_conv_stat.o)
 .comment       0x0000000000000011       0x12 d:/software/yuyin/qiqiyinqiluntai/riscv-nuclei-elf-gcc-9.2.0.0/gcc_fix_raissrc/bin/../lib/gcc/riscv-nuclei-elf/9.2.0/../../../../riscv-nuclei-elf/lib/rv32imafc/ilp32f\libc_nano.a(lib_a-errno.o)
 .comment       0x0000000000000011       0x12 d:/software/yuyin/qiqiyinqiluntai/riscv-nuclei-elf-gcc-9.2.0.0/gcc_fix_raissrc/bin/../lib/gcc/riscv-nuclei-elf/9.2.0/../../../../riscv-nuclei-elf/lib/rv32imafc/ilp32f\libm.a(lib_a-s_floor.o)
 .comment       0x0000000000000011       0x12 d:/software/yuyin/qiqiyinqiluntai/riscv-nuclei-elf-gcc-9.2.0.0/gcc_fix_raissrc/bin/../lib/gcc/riscv-nuclei-elf/9.2.0/../../../../riscv-nuclei-elf/lib/rv32imafc/ilp32f\libm.a(lib_a-w_acos.o)
 .comment       0x0000000000000011       0x12 d:/software/yuyin/qiqiyinqiluntai/riscv-nuclei-elf-gcc-9.2.0.0/gcc_fix_raissrc/bin/../lib/gcc/riscv-nuclei-elf/9.2.0/../../../../riscv-nuclei-elf/lib/rv32imafc/ilp32f\libm.a(lib_a-w_exp.o)
 .comment       0x0000000000000011       0x12 d:/software/yuyin/qiqiyinqiluntai/riscv-nuclei-elf-gcc-9.2.0.0/gcc_fix_raissrc/bin/../lib/gcc/riscv-nuclei-elf/9.2.0/../../../../riscv-nuclei-elf/lib/rv32imafc/ilp32f\libm.a(lib_a-wf_pow.o)
 .comment       0x0000000000000011       0x12 d:/software/yuyin/qiqiyinqiluntai/riscv-nuclei-elf-gcc-9.2.0.0/gcc_fix_raissrc/bin/../lib/gcc/riscv-nuclei-elf/9.2.0/../../../../riscv-nuclei-elf/lib/rv32imafc/ilp32f\libm.a(lib_a-w_log.o)
 .comment       0x0000000000000011       0x12 d:/software/yuyin/qiqiyinqiluntai/riscv-nuclei-elf-gcc-9.2.0.0/gcc_fix_raissrc/bin/../lib/gcc/riscv-nuclei-elf/9.2.0/../../../../riscv-nuclei-elf/lib/rv32imafc/ilp32f\libm.a(lib_a-w_sqrt.o)
 .comment       0x0000000000000011       0x12 d:/software/yuyin/qiqiyinqiluntai/riscv-nuclei-elf-gcc-9.2.0.0/gcc_fix_raissrc/bin/../lib/gcc/riscv-nuclei-elf/9.2.0/../../../../riscv-nuclei-elf/lib/rv32imafc/ilp32f\libm.a(lib_a-e_acos.o)
 .comment       0x0000000000000011       0x12 d:/software/yuyin/qiqiyinqiluntai/riscv-nuclei-elf-gcc-9.2.0.0/gcc_fix_raissrc/bin/../lib/gcc/riscv-nuclei-elf/9.2.0/../../../../riscv-nuclei-elf/lib/rv32imafc/ilp32f\libm.a(lib_a-e_exp.o)
 .comment       0x0000000000000011       0x12 d:/software/yuyin/qiqiyinqiluntai/riscv-nuclei-elf-gcc-9.2.0.0/gcc_fix_raissrc/bin/../lib/gcc/riscv-nuclei-elf/9.2.0/../../../../riscv-nuclei-elf/lib/rv32imafc/ilp32f\libm.a(lib_a-ef_pow.o)
 .comment       0x0000000000000011       0x12 d:/software/yuyin/qiqiyinqiluntai/riscv-nuclei-elf-gcc-9.2.0.0/gcc_fix_raissrc/bin/../lib/gcc/riscv-nuclei-elf/9.2.0/../../../../riscv-nuclei-elf/lib/rv32imafc/ilp32f\libm.a(lib_a-ef_sqrt.o)
 .comment       0x0000000000000011       0x12 d:/software/yuyin/qiqiyinqiluntai/riscv-nuclei-elf-gcc-9.2.0.0/gcc_fix_raissrc/bin/../lib/gcc/riscv-nuclei-elf/9.2.0/../../../../riscv-nuclei-elf/lib/rv32imafc/ilp32f\libm.a(lib_a-e_log.o)
 .comment       0x0000000000000011       0x12 d:/software/yuyin/qiqiyinqiluntai/riscv-nuclei-elf-gcc-9.2.0.0/gcc_fix_raissrc/bin/../lib/gcc/riscv-nuclei-elf/9.2.0/../../../../riscv-nuclei-elf/lib/rv32imafc/ilp32f\libm.a(lib_a-e_sqrt.o)
 .comment       0x0000000000000011       0x12 d:/software/yuyin/qiqiyinqiluntai/riscv-nuclei-elf-gcc-9.2.0.0/gcc_fix_raissrc/bin/../lib/gcc/riscv-nuclei-elf/9.2.0/../../../../riscv-nuclei-elf/lib/rv32imafc/ilp32f\libm.a(lib_a-s_fabs.o)
 .comment       0x0000000000000011       0x12 d:/software/yuyin/qiqiyinqiluntai/riscv-nuclei-elf-gcc-9.2.0.0/gcc_fix_raissrc/bin/../lib/gcc/riscv-nuclei-elf/9.2.0/../../../../riscv-nuclei-elf/lib/rv32imafc/ilp32f\libm.a(lib_a-sf_finite.o)
 .comment       0x0000000000000011       0x12 d:/software/yuyin/qiqiyinqiluntai/riscv-nuclei-elf-gcc-9.2.0.0/gcc_fix_raissrc/bin/../lib/gcc/riscv-nuclei-elf/9.2.0/../../../../riscv-nuclei-elf/lib/rv32imafc/ilp32f\libm.a(lib_a-s_finite.o)
 .comment       0x0000000000000011       0x12 d:/software/yuyin/qiqiyinqiluntai/riscv-nuclei-elf-gcc-9.2.0.0/gcc_fix_raissrc/bin/../lib/gcc/riscv-nuclei-elf/9.2.0/../../../../riscv-nuclei-elf/lib/rv32imafc/ilp32f\libm.a(lib_a-sf_nan.o)
 .comment       0x0000000000000011       0x12 d:/software/yuyin/qiqiyinqiluntai/riscv-nuclei-elf-gcc-9.2.0.0/gcc_fix_raissrc/bin/../lib/gcc/riscv-nuclei-elf/9.2.0/../../../../riscv-nuclei-elf/lib/rv32imafc/ilp32f\libm.a(lib_a-sf_rint.o)
 .comment       0x0000000000000011       0x12 d:/software/yuyin/qiqiyinqiluntai/riscv-nuclei-elf-gcc-9.2.0.0/gcc_fix_raissrc/bin/../lib/gcc/riscv-nuclei-elf/9.2.0/../../../../riscv-nuclei-elf/lib/rv32imafc/ilp32f\libm.a(lib_a-sf_scalbn.o)
 .comment       0x0000000000000011       0x12 d:/software/yuyin/qiqiyinqiluntai/riscv-nuclei-elf-gcc-9.2.0.0/gcc_fix_raissrc/bin/../lib/gcc/riscv-nuclei-elf/9.2.0/../../../../riscv-nuclei-elf/lib/rv32imafc/ilp32f\libm.a(lib_a-s_lib_ver.o)
 .comment       0x0000000000000011       0x12 d:/software/yuyin/qiqiyinqiluntai/riscv-nuclei-elf-gcc-9.2.0.0/gcc_fix_raissrc/bin/../lib/gcc/riscv-nuclei-elf/9.2.0/../../../../riscv-nuclei-elf/lib/rv32imafc/ilp32f\libm.a(lib_a-s_matherr.o)
 .comment       0x0000000000000011       0x12 d:/software/yuyin/qiqiyinqiluntai/riscv-nuclei-elf-gcc-9.2.0.0/gcc_fix_raissrc/bin/../lib/gcc/riscv-nuclei-elf/9.2.0/../../../../riscv-nuclei-elf/lib/rv32imafc/ilp32f\libm.a(lib_a-s_nan.o)
 .comment       0x0000000000000011       0x12 d:/software/yuyin/qiqiyinqiluntai/riscv-nuclei-elf-gcc-9.2.0.0/gcc_fix_raissrc/bin/../lib/gcc/riscv-nuclei-elf/9.2.0/../../../../riscv-nuclei-elf/lib/rv32imafc/ilp32f\libm.a(lib_a-sf_copysign.o)

.riscv.attributes
                0x0000000000000000       0x30
 .riscv.attributes
                0x0000000000000000       0x30 C:\TMP\nn_denoise_rtc_sample.elf.t3mX4c.ltrans0.ltrans.o
 .riscv.attributes
                0x0000000000000030       0x30 C:\TMP\nn_denoise_rtc_sample.elf.t3mX4c.ltrans1.ltrans.o
 .riscv.attributes
                0x0000000000000060       0x2e build/objs/ci130x_startup.o
 .riscv.attributes
                0x000000000000008e       0x30 ../../../libs\libnewlib_port.a(sbrk.o)
 .riscv.attributes
                0x00000000000000be       0x2e ../../../libs\libfreertos_port.a(portasm.o)
 .riscv.attributes
                0x00000000000000ec       0x2e d:/software/yuyin/qiqiyinqiluntai/riscv-nuclei-elf-gcc-9.2.0.0/gcc_fix_raissrc/bin/../lib/gcc/riscv-nuclei-elf/9.2.0/rv32imafc/ilp32f\libgcc.a(save-restore.o)
 .riscv.attributes
                0x000000000000011a       0x30 d:/software/yuyin/qiqiyinqiluntai/riscv-nuclei-elf-gcc-9.2.0.0/gcc_fix_raissrc/bin/../lib/gcc/riscv-nuclei-elf/9.2.0/rv32imafc/ilp32f\libgcc.a(adddf3.o)
 .riscv.attributes
                0x000000000000014a       0x30 d:/software/yuyin/qiqiyinqiluntai/riscv-nuclei-elf-gcc-9.2.0.0/gcc_fix_raissrc/bin/../lib/gcc/riscv-nuclei-elf/9.2.0/rv32imafc/ilp32f\libgcc.a(divdf3.o)
 .riscv.attributes
                0x000000000000017a       0x30 d:/software/yuyin/qiqiyinqiluntai/riscv-nuclei-elf-gcc-9.2.0.0/gcc_fix_raissrc/bin/../lib/gcc/riscv-nuclei-elf/9.2.0/rv32imafc/ilp32f\libgcc.a(eqdf2.o)
 .riscv.attributes
                0x00000000000001aa       0x30 d:/software/yuyin/qiqiyinqiluntai/riscv-nuclei-elf-gcc-9.2.0.0/gcc_fix_raissrc/bin/../lib/gcc/riscv-nuclei-elf/9.2.0/rv32imafc/ilp32f\libgcc.a(gedf2.o)
 .riscv.attributes
                0x00000000000001da       0x30 d:/software/yuyin/qiqiyinqiluntai/riscv-nuclei-elf-gcc-9.2.0.0/gcc_fix_raissrc/bin/../lib/gcc/riscv-nuclei-elf/9.2.0/rv32imafc/ilp32f\libgcc.a(ledf2.o)
 .riscv.attributes
                0x000000000000020a       0x30 d:/software/yuyin/qiqiyinqiluntai/riscv-nuclei-elf-gcc-9.2.0.0/gcc_fix_raissrc/bin/../lib/gcc/riscv-nuclei-elf/9.2.0/rv32imafc/ilp32f\libgcc.a(muldf3.o)
 .riscv.attributes
                0x000000000000023a       0x30 d:/software/yuyin/qiqiyinqiluntai/riscv-nuclei-elf-gcc-9.2.0.0/gcc_fix_raissrc/bin/../lib/gcc/riscv-nuclei-elf/9.2.0/rv32imafc/ilp32f\libgcc.a(subdf3.o)
 .riscv.attributes
                0x000000000000026a       0x30 d:/software/yuyin/qiqiyinqiluntai/riscv-nuclei-elf-gcc-9.2.0.0/gcc_fix_raissrc/bin/../lib/gcc/riscv-nuclei-elf/9.2.0/rv32imafc/ilp32f\libgcc.a(unorddf2.o)
 .riscv.attributes
                0x000000000000029a       0x30 d:/software/yuyin/qiqiyinqiluntai/riscv-nuclei-elf-gcc-9.2.0.0/gcc_fix_raissrc/bin/../lib/gcc/riscv-nuclei-elf/9.2.0/rv32imafc/ilp32f\libgcc.a(fixdfsi.o)
 .riscv.attributes
                0x00000000000002ca       0x30 d:/software/yuyin/qiqiyinqiluntai/riscv-nuclei-elf-gcc-9.2.0.0/gcc_fix_raissrc/bin/../lib/gcc/riscv-nuclei-elf/9.2.0/rv32imafc/ilp32f\libgcc.a(floatsidf.o)
 .riscv.attributes
                0x00000000000002fa       0x30 d:/software/yuyin/qiqiyinqiluntai/riscv-nuclei-elf-gcc-9.2.0.0/gcc_fix_raissrc/bin/../lib/gcc/riscv-nuclei-elf/9.2.0/rv32imafc/ilp32f\libgcc.a(extendsfdf2.o)
 .riscv.attributes
                0x000000000000032a       0x30 d:/software/yuyin/qiqiyinqiluntai/riscv-nuclei-elf-gcc-9.2.0.0/gcc_fix_raissrc/bin/../lib/gcc/riscv-nuclei-elf/9.2.0/rv32imafc/ilp32f\libgcc.a(truncdfsf2.o)
 .riscv.attributes
                0x000000000000035a       0x30 d:/software/yuyin/qiqiyinqiluntai/riscv-nuclei-elf-gcc-9.2.0.0/gcc_fix_raissrc/bin/../lib/gcc/riscv-nuclei-elf/9.2.0/rv32imafc/ilp32f\libgcc.a(_clzsi2.o)
 .riscv.attributes
                0x000000000000038a       0x30 d:/software/yuyin/qiqiyinqiluntai/riscv-nuclei-elf-gcc-9.2.0.0/gcc_fix_raissrc/bin/../lib/gcc/riscv-nuclei-elf/9.2.0/rv32imafc/ilp32f\libgcc.a(_clz.o)
 .riscv.attributes
                0x00000000000003ba       0x30 d:/software/yuyin/qiqiyinqiluntai/riscv-nuclei-elf-gcc-9.2.0.0/gcc_fix_raissrc/bin/../lib/gcc/riscv-nuclei-elf/9.2.0/../../../../riscv-nuclei-elf/lib/rv32imafc/ilp32f\libg_nano.a(lib_a-atexit.o)
 .riscv.attributes
                0x00000000000003ea       0x30 d:/software/yuyin/qiqiyinqiluntai/riscv-nuclei-elf-gcc-9.2.0.0/gcc_fix_raissrc/bin/../lib/gcc/riscv-nuclei-elf/9.2.0/../../../../riscv-nuclei-elf/lib/rv32imafc/ilp32f\libg_nano.a(lib_a-exit.o)
 .riscv.attributes
                0x000000000000041a       0x30 d:/software/yuyin/qiqiyinqiluntai/riscv-nuclei-elf-gcc-9.2.0.0/gcc_fix_raissrc/bin/../lib/gcc/riscv-nuclei-elf/9.2.0/../../../../riscv-nuclei-elf/lib/rv32imafc/ilp32f\libg_nano.a(lib_a-fini.o)
 .riscv.attributes
                0x000000000000044a       0x30 d:/software/yuyin/qiqiyinqiluntai/riscv-nuclei-elf-gcc-9.2.0.0/gcc_fix_raissrc/bin/../lib/gcc/riscv-nuclei-elf/9.2.0/../../../../riscv-nuclei-elf/lib/rv32imafc/ilp32f\libg_nano.a(lib_a-impure.o)
 .riscv.attributes
                0x000000000000047a       0x30 d:/software/yuyin/qiqiyinqiluntai/riscv-nuclei-elf-gcc-9.2.0.0/gcc_fix_raissrc/bin/../lib/gcc/riscv-nuclei-elf/9.2.0/../../../../riscv-nuclei-elf/lib/rv32imafc/ilp32f\libg_nano.a(lib_a-init.o)
 .riscv.attributes
                0x00000000000004aa       0x30 d:/software/yuyin/qiqiyinqiluntai/riscv-nuclei-elf-gcc-9.2.0.0/gcc_fix_raissrc/bin/../lib/gcc/riscv-nuclei-elf/9.2.0/../../../../riscv-nuclei-elf/lib/rv32imafc/ilp32f\libg_nano.a(lib_a-__atexit.o)
 .riscv.attributes
                0x00000000000004da       0x30 d:/software/yuyin/qiqiyinqiluntai/riscv-nuclei-elf-gcc-9.2.0.0/gcc_fix_raissrc/bin/../lib/gcc/riscv-nuclei-elf/9.2.0/../../../../riscv-nuclei-elf/lib/rv32imafc/ilp32f\libg_nano.a(lib_a-__call_atexit.o)
 .riscv.attributes
                0x000000000000050a       0x30 d:/software/yuyin/qiqiyinqiluntai/riscv-nuclei-elf-gcc-9.2.0.0/gcc_fix_raissrc/bin/../lib/gcc/riscv-nuclei-elf/9.2.0/../../../../riscv-nuclei-elf/lib/rv32imafc/ilp32f\libg_nano.a(lib_a-calloc.o)
 .riscv.attributes
                0x000000000000053a       0x30 d:/software/yuyin/qiqiyinqiluntai/riscv-nuclei-elf-gcc-9.2.0.0/gcc_fix_raissrc/bin/../lib/gcc/riscv-nuclei-elf/9.2.0/../../../../riscv-nuclei-elf/lib/rv32imafc/ilp32f\libg_nano.a(lib_a-fprintf.o)
 .riscv.attributes
                0x000000000000056a       0x30 d:/software/yuyin/qiqiyinqiluntai/riscv-nuclei-elf-gcc-9.2.0.0/gcc_fix_raissrc/bin/../lib/gcc/riscv-nuclei-elf/9.2.0/../../../../riscv-nuclei-elf/lib/rv32imafc/ilp32f\libg_nano.a(lib_a-nano-callocr.o)
 .riscv.attributes
                0x000000000000059a       0x30 d:/software/yuyin/qiqiyinqiluntai/riscv-nuclei-elf-gcc-9.2.0.0/gcc_fix_raissrc/bin/../lib/gcc/riscv-nuclei-elf/9.2.0/../../../../riscv-nuclei-elf/lib/rv32imafc/ilp32f\libg_nano.a(lib_a-nano-mallocr.o)
 .riscv.attributes
                0x00000000000005ca       0x30 d:/software/yuyin/qiqiyinqiluntai/riscv-nuclei-elf-gcc-9.2.0.0/gcc_fix_raissrc/bin/../lib/gcc/riscv-nuclei-elf/9.2.0/../../../../riscv-nuclei-elf/lib/rv32imafc/ilp32f\libg_nano.a(lib_a-nano-vfprintf.o)
 .riscv.attributes
                0x00000000000005fa       0x30 d:/software/yuyin/qiqiyinqiluntai/riscv-nuclei-elf-gcc-9.2.0.0/gcc_fix_raissrc/bin/../lib/gcc/riscv-nuclei-elf/9.2.0/../../../../riscv-nuclei-elf/lib/rv32imafc/ilp32f\libg_nano.a(lib_a-realloc.o)
 .riscv.attributes
                0x000000000000062a       0x30 d:/software/yuyin/qiqiyinqiluntai/riscv-nuclei-elf-gcc-9.2.0.0/gcc_fix_raissrc/bin/../lib/gcc/riscv-nuclei-elf/9.2.0/../../../../riscv-nuclei-elf/lib/rv32imafc/ilp32f\libg_nano.a(lib_a-sbrkr.o)
 .riscv.attributes
                0x000000000000065a       0x30 d:/software/yuyin/qiqiyinqiluntai/riscv-nuclei-elf-gcc-9.2.0.0/gcc_fix_raissrc/bin/../lib/gcc/riscv-nuclei-elf/9.2.0/../../../../riscv-nuclei-elf/lib/rv32imafc/ilp32f\libg_nano.a(lib_a-wbuf.o)
 .riscv.attributes
                0x000000000000068a       0x30 d:/software/yuyin/qiqiyinqiluntai/riscv-nuclei-elf-gcc-9.2.0.0/gcc_fix_raissrc/bin/../lib/gcc/riscv-nuclei-elf/9.2.0/../../../../riscv-nuclei-elf/lib/rv32imafc/ilp32f\libg_nano.a(lib_a-wsetup.o)
 .riscv.attributes
                0x00000000000006ba       0x30 d:/software/yuyin/qiqiyinqiluntai/riscv-nuclei-elf-gcc-9.2.0.0/gcc_fix_raissrc/bin/../lib/gcc/riscv-nuclei-elf/9.2.0/../../../../riscv-nuclei-elf/lib/rv32imafc/ilp32f\libg_nano.a(lib_a-fflush.o)
 .riscv.attributes
                0x00000000000006ea       0x30 d:/software/yuyin/qiqiyinqiluntai/riscv-nuclei-elf-gcc-9.2.0.0/gcc_fix_raissrc/bin/../lib/gcc/riscv-nuclei-elf/9.2.0/../../../../riscv-nuclei-elf/lib/rv32imafc/ilp32f\libg_nano.a(lib_a-findfp.o)
 .riscv.attributes
                0x000000000000071a       0x30 d:/software/yuyin/qiqiyinqiluntai/riscv-nuclei-elf-gcc-9.2.0.0/gcc_fix_raissrc/bin/../lib/gcc/riscv-nuclei-elf/9.2.0/../../../../riscv-nuclei-elf/lib/rv32imafc/ilp32f\libg_nano.a(lib_a-fwalk.o)
 .riscv.attributes
                0x000000000000074a       0x30 d:/software/yuyin/qiqiyinqiluntai/riscv-nuclei-elf-gcc-9.2.0.0/gcc_fix_raissrc/bin/../lib/gcc/riscv-nuclei-elf/9.2.0/../../../../riscv-nuclei-elf/lib/rv32imafc/ilp32f\libg_nano.a(lib_a-makebuf.o)
 .riscv.attributes
                0x000000000000077a       0x30 d:/software/yuyin/qiqiyinqiluntai/riscv-nuclei-elf-gcc-9.2.0.0/gcc_fix_raissrc/bin/../lib/gcc/riscv-nuclei-elf/9.2.0/../../../../riscv-nuclei-elf/lib/rv32imafc/ilp32f\libg_nano.a(lib_a-memchr.o)
 .riscv.attributes
                0x00000000000007aa       0x30 d:/software/yuyin/qiqiyinqiluntai/riscv-nuclei-elf-gcc-9.2.0.0/gcc_fix_raissrc/bin/../lib/gcc/riscv-nuclei-elf/9.2.0/../../../../riscv-nuclei-elf/lib/rv32imafc/ilp32f\libg_nano.a(lib_a-nano-freer.o)
 .riscv.attributes
                0x00000000000007da       0x30 d:/software/yuyin/qiqiyinqiluntai/riscv-nuclei-elf-gcc-9.2.0.0/gcc_fix_raissrc/bin/../lib/gcc/riscv-nuclei-elf/9.2.0/../../../../riscv-nuclei-elf/lib/rv32imafc/ilp32f\libg_nano.a(lib_a-nano-reallocr.o)
 .riscv.attributes
                0x000000000000080a       0x30 d:/software/yuyin/qiqiyinqiluntai/riscv-nuclei-elf-gcc-9.2.0.0/gcc_fix_raissrc/bin/../lib/gcc/riscv-nuclei-elf/9.2.0/../../../../riscv-nuclei-elf/lib/rv32imafc/ilp32f\libg_nano.a(lib_a-nano-vfprintf_i.o)
 .riscv.attributes
                0x000000000000083a       0x30 d:/software/yuyin/qiqiyinqiluntai/riscv-nuclei-elf-gcc-9.2.0.0/gcc_fix_raissrc/bin/../lib/gcc/riscv-nuclei-elf/9.2.0/../../../../riscv-nuclei-elf/lib/rv32imafc/ilp32f\libg_nano.a(lib_a-reent.o)
 .riscv.attributes
                0x000000000000086a       0x30 d:/software/yuyin/qiqiyinqiluntai/riscv-nuclei-elf-gcc-9.2.0.0/gcc_fix_raissrc/bin/../lib/gcc/riscv-nuclei-elf/9.2.0/../../../../riscv-nuclei-elf/lib/rv32imafc/ilp32f\libg_nano.a(lib_a-stdio.o)
 .riscv.attributes
                0x000000000000089a       0x30 d:/software/yuyin/qiqiyinqiluntai/riscv-nuclei-elf-gcc-9.2.0.0/gcc_fix_raissrc/bin/../lib/gcc/riscv-nuclei-elf/9.2.0/../../../../riscv-nuclei-elf/lib/rv32imafc/ilp32f\libg_nano.a(lib_a-writer.o)
 .riscv.attributes
                0x00000000000008ca       0x30 d:/software/yuyin/qiqiyinqiluntai/riscv-nuclei-elf-gcc-9.2.0.0/gcc_fix_raissrc/bin/../lib/gcc/riscv-nuclei-elf/9.2.0/../../../../riscv-nuclei-elf/lib/rv32imafc/ilp32f\libg_nano.a(lib_a-closer.o)
 .riscv.attributes
                0x00000000000008fa       0x30 d:/software/yuyin/qiqiyinqiluntai/riscv-nuclei-elf-gcc-9.2.0.0/gcc_fix_raissrc/bin/../lib/gcc/riscv-nuclei-elf/9.2.0/../../../../riscv-nuclei-elf/lib/rv32imafc/ilp32f\libg_nano.a(lib_a-fstatr.o)
 .riscv.attributes
                0x000000000000092a       0x30 d:/software/yuyin/qiqiyinqiluntai/riscv-nuclei-elf-gcc-9.2.0.0/gcc_fix_raissrc/bin/../lib/gcc/riscv-nuclei-elf/9.2.0/../../../../riscv-nuclei-elf/lib/rv32imafc/ilp32f\libg_nano.a(lib_a-isattyr.o)
 .riscv.attributes
                0x000000000000095a       0x30 d:/software/yuyin/qiqiyinqiluntai/riscv-nuclei-elf-gcc-9.2.0.0/gcc_fix_raissrc/bin/../lib/gcc/riscv-nuclei-elf/9.2.0/../../../../riscv-nuclei-elf/lib/rv32imafc/ilp32f\libg_nano.a(lib_a-lseekr.o)
 .riscv.attributes
                0x000000000000098a       0x30 d:/software/yuyin/qiqiyinqiluntai/riscv-nuclei-elf-gcc-9.2.0.0/gcc_fix_raissrc/bin/../lib/gcc/riscv-nuclei-elf/9.2.0/../../../../riscv-nuclei-elf/lib/rv32imafc/ilp32f\libg_nano.a(lib_a-nano-msizer.o)
 .riscv.attributes
                0x00000000000009ba       0x30 d:/software/yuyin/qiqiyinqiluntai/riscv-nuclei-elf-gcc-9.2.0.0/gcc_fix_raissrc/bin/../lib/gcc/riscv-nuclei-elf/9.2.0/../../../../riscv-nuclei-elf/lib/rv32imafc/ilp32f\libg_nano.a(lib_a-readr.o)
 .riscv.attributes
                0x00000000000009ea       0x30 d:/software/yuyin/qiqiyinqiluntai/riscv-nuclei-elf-gcc-9.2.0.0/gcc_fix_raissrc/bin/../lib/gcc/riscv-nuclei-elf/9.2.0/../../../../riscv-nuclei-elf/lib/rv32imafc/ilp32f\libgloss_nano.a(sys_exit.o)
 .riscv.attributes
                0x0000000000000a1a       0x30 d:/software/yuyin/qiqiyinqiluntai/riscv-nuclei-elf-gcc-9.2.0.0/gcc_fix_raissrc/bin/../lib/gcc/riscv-nuclei-elf/9.2.0/../../../../riscv-nuclei-elf/lib/rv32imafc/ilp32f\libgloss_nano.a(sys_close.o)
 .riscv.attributes
                0x0000000000000a4a       0x30 d:/software/yuyin/qiqiyinqiluntai/riscv-nuclei-elf-gcc-9.2.0.0/gcc_fix_raissrc/bin/../lib/gcc/riscv-nuclei-elf/9.2.0/../../../../riscv-nuclei-elf/lib/rv32imafc/ilp32f\libgloss_nano.a(sys_fstat.o)
 .riscv.attributes
                0x0000000000000a7a       0x30 d:/software/yuyin/qiqiyinqiluntai/riscv-nuclei-elf-gcc-9.2.0.0/gcc_fix_raissrc/bin/../lib/gcc/riscv-nuclei-elf/9.2.0/../../../../riscv-nuclei-elf/lib/rv32imafc/ilp32f\libgloss_nano.a(sys_isatty.o)
 .riscv.attributes
                0x0000000000000aaa       0x30 d:/software/yuyin/qiqiyinqiluntai/riscv-nuclei-elf-gcc-9.2.0.0/gcc_fix_raissrc/bin/../lib/gcc/riscv-nuclei-elf/9.2.0/../../../../riscv-nuclei-elf/lib/rv32imafc/ilp32f\libgloss_nano.a(sys_lseek.o)
 .riscv.attributes
                0x0000000000000ada       0x30 d:/software/yuyin/qiqiyinqiluntai/riscv-nuclei-elf-gcc-9.2.0.0/gcc_fix_raissrc/bin/../lib/gcc/riscv-nuclei-elf/9.2.0/../../../../riscv-nuclei-elf/lib/rv32imafc/ilp32f\libgloss_nano.a(sys_read.o)
 .riscv.attributes
                0x0000000000000b0a       0x30 d:/software/yuyin/qiqiyinqiluntai/riscv-nuclei-elf-gcc-9.2.0.0/gcc_fix_raissrc/bin/../lib/gcc/riscv-nuclei-elf/9.2.0/../../../../riscv-nuclei-elf/lib/rv32imafc/ilp32f\libgloss_nano.a(sys_write.o)
 .riscv.attributes
                0x0000000000000b3a       0x30 d:/software/yuyin/qiqiyinqiluntai/riscv-nuclei-elf-gcc-9.2.0.0/gcc_fix_raissrc/bin/../lib/gcc/riscv-nuclei-elf/9.2.0/../../../../riscv-nuclei-elf/lib/rv32imafc/ilp32f\libgloss_nano.a(sys_conv_stat.o)
 .riscv.attributes
                0x0000000000000b6a       0x30 d:/software/yuyin/qiqiyinqiluntai/riscv-nuclei-elf-gcc-9.2.0.0/gcc_fix_raissrc/bin/../lib/gcc/riscv-nuclei-elf/9.2.0/../../../../riscv-nuclei-elf/lib/rv32imafc/ilp32f\libc_nano.a(lib_a-errno.o)
 .riscv.attributes
                0x0000000000000b9a       0x30 d:/software/yuyin/qiqiyinqiluntai/riscv-nuclei-elf-gcc-9.2.0.0/gcc_fix_raissrc/bin/../lib/gcc/riscv-nuclei-elf/9.2.0/../../../../riscv-nuclei-elf/lib/rv32imafc/ilp32f\libm.a(lib_a-s_floor.o)
 .riscv.attributes
                0x0000000000000bca       0x30 d:/software/yuyin/qiqiyinqiluntai/riscv-nuclei-elf-gcc-9.2.0.0/gcc_fix_raissrc/bin/../lib/gcc/riscv-nuclei-elf/9.2.0/../../../../riscv-nuclei-elf/lib/rv32imafc/ilp32f\libm.a(lib_a-w_acos.o)
 .riscv.attributes
                0x0000000000000bfa       0x30 d:/software/yuyin/qiqiyinqiluntai/riscv-nuclei-elf-gcc-9.2.0.0/gcc_fix_raissrc/bin/../lib/gcc/riscv-nuclei-elf/9.2.0/../../../../riscv-nuclei-elf/lib/rv32imafc/ilp32f\libm.a(lib_a-w_exp.o)
 .riscv.attributes
                0x0000000000000c2a       0x30 d:/software/yuyin/qiqiyinqiluntai/riscv-nuclei-elf-gcc-9.2.0.0/gcc_fix_raissrc/bin/../lib/gcc/riscv-nuclei-elf/9.2.0/../../../../riscv-nuclei-elf/lib/rv32imafc/ilp32f\libm.a(lib_a-wf_pow.o)
 .riscv.attributes
                0x0000000000000c5a       0x30 d:/software/yuyin/qiqiyinqiluntai/riscv-nuclei-elf-gcc-9.2.0.0/gcc_fix_raissrc/bin/../lib/gcc/riscv-nuclei-elf/9.2.0/../../../../riscv-nuclei-elf/lib/rv32imafc/ilp32f\libm.a(lib_a-w_log.o)
 .riscv.attributes
                0x0000000000000c8a       0x30 d:/software/yuyin/qiqiyinqiluntai/riscv-nuclei-elf-gcc-9.2.0.0/gcc_fix_raissrc/bin/../lib/gcc/riscv-nuclei-elf/9.2.0/../../../../riscv-nuclei-elf/lib/rv32imafc/ilp32f\libm.a(lib_a-w_sqrt.o)
 .riscv.attributes
                0x0000000000000cba       0x30 d:/software/yuyin/qiqiyinqiluntai/riscv-nuclei-elf-gcc-9.2.0.0/gcc_fix_raissrc/bin/../lib/gcc/riscv-nuclei-elf/9.2.0/../../../../riscv-nuclei-elf/lib/rv32imafc/ilp32f\libm.a(lib_a-e_acos.o)
 .riscv.attributes
                0x0000000000000cea       0x30 d:/software/yuyin/qiqiyinqiluntai/riscv-nuclei-elf-gcc-9.2.0.0/gcc_fix_raissrc/bin/../lib/gcc/riscv-nuclei-elf/9.2.0/../../../../riscv-nuclei-elf/lib/rv32imafc/ilp32f\libm.a(lib_a-e_exp.o)
 .riscv.attributes
                0x0000000000000d1a       0x30 d:/software/yuyin/qiqiyinqiluntai/riscv-nuclei-elf-gcc-9.2.0.0/gcc_fix_raissrc/bin/../lib/gcc/riscv-nuclei-elf/9.2.0/../../../../riscv-nuclei-elf/lib/rv32imafc/ilp32f\libm.a(lib_a-ef_pow.o)
 .riscv.attributes
                0x0000000000000d4a       0x30 d:/software/yuyin/qiqiyinqiluntai/riscv-nuclei-elf-gcc-9.2.0.0/gcc_fix_raissrc/bin/../lib/gcc/riscv-nuclei-elf/9.2.0/../../../../riscv-nuclei-elf/lib/rv32imafc/ilp32f\libm.a(lib_a-ef_sqrt.o)
 .riscv.attributes
                0x0000000000000d7a       0x30 d:/software/yuyin/qiqiyinqiluntai/riscv-nuclei-elf-gcc-9.2.0.0/gcc_fix_raissrc/bin/../lib/gcc/riscv-nuclei-elf/9.2.0/../../../../riscv-nuclei-elf/lib/rv32imafc/ilp32f\libm.a(lib_a-e_log.o)
 .riscv.attributes
                0x0000000000000daa       0x30 d:/software/yuyin/qiqiyinqiluntai/riscv-nuclei-elf-gcc-9.2.0.0/gcc_fix_raissrc/bin/../lib/gcc/riscv-nuclei-elf/9.2.0/../../../../riscv-nuclei-elf/lib/rv32imafc/ilp32f\libm.a(lib_a-e_sqrt.o)
 .riscv.attributes
                0x0000000000000dda       0x30 d:/software/yuyin/qiqiyinqiluntai/riscv-nuclei-elf-gcc-9.2.0.0/gcc_fix_raissrc/bin/../lib/gcc/riscv-nuclei-elf/9.2.0/../../../../riscv-nuclei-elf/lib/rv32imafc/ilp32f\libm.a(lib_a-s_fabs.o)
 .riscv.attributes
                0x0000000000000e0a       0x30 d:/software/yuyin/qiqiyinqiluntai/riscv-nuclei-elf-gcc-9.2.0.0/gcc_fix_raissrc/bin/../lib/gcc/riscv-nuclei-elf/9.2.0/../../../../riscv-nuclei-elf/lib/rv32imafc/ilp32f\libm.a(lib_a-sf_finite.o)
 .riscv.attributes
                0x0000000000000e3a       0x30 d:/software/yuyin/qiqiyinqiluntai/riscv-nuclei-elf-gcc-9.2.0.0/gcc_fix_raissrc/bin/../lib/gcc/riscv-nuclei-elf/9.2.0/../../../../riscv-nuclei-elf/lib/rv32imafc/ilp32f\libm.a(lib_a-s_finite.o)
 .riscv.attributes
                0x0000000000000e6a       0x30 d:/software/yuyin/qiqiyinqiluntai/riscv-nuclei-elf-gcc-9.2.0.0/gcc_fix_raissrc/bin/../lib/gcc/riscv-nuclei-elf/9.2.0/../../../../riscv-nuclei-elf/lib/rv32imafc/ilp32f\libm.a(lib_a-sf_nan.o)
 .riscv.attributes
                0x0000000000000e9a       0x30 d:/software/yuyin/qiqiyinqiluntai/riscv-nuclei-elf-gcc-9.2.0.0/gcc_fix_raissrc/bin/../lib/gcc/riscv-nuclei-elf/9.2.0/../../../../riscv-nuclei-elf/lib/rv32imafc/ilp32f\libm.a(lib_a-sf_rint.o)
 .riscv.attributes
                0x0000000000000eca       0x30 d:/software/yuyin/qiqiyinqiluntai/riscv-nuclei-elf-gcc-9.2.0.0/gcc_fix_raissrc/bin/../lib/gcc/riscv-nuclei-elf/9.2.0/../../../../riscv-nuclei-elf/lib/rv32imafc/ilp32f\libm.a(lib_a-sf_scalbn.o)
 .riscv.attributes
                0x0000000000000efa       0x30 d:/software/yuyin/qiqiyinqiluntai/riscv-nuclei-elf-gcc-9.2.0.0/gcc_fix_raissrc/bin/../lib/gcc/riscv-nuclei-elf/9.2.0/../../../../riscv-nuclei-elf/lib/rv32imafc/ilp32f\libm.a(lib_a-s_lib_ver.o)
 .riscv.attributes
                0x0000000000000f2a       0x30 d:/software/yuyin/qiqiyinqiluntai/riscv-nuclei-elf-gcc-9.2.0.0/gcc_fix_raissrc/bin/../lib/gcc/riscv-nuclei-elf/9.2.0/../../../../riscv-nuclei-elf/lib/rv32imafc/ilp32f\libm.a(lib_a-s_matherr.o)
 .riscv.attributes
                0x0000000000000f5a       0x30 d:/software/yuyin/qiqiyinqiluntai/riscv-nuclei-elf-gcc-9.2.0.0/gcc_fix_raissrc/bin/../lib/gcc/riscv-nuclei-elf/9.2.0/../../../../riscv-nuclei-elf/lib/rv32imafc/ilp32f\libm.a(lib_a-s_nan.o)
 .riscv.attributes
                0x0000000000000f8a       0x30 d:/software/yuyin/qiqiyinqiluntai/riscv-nuclei-elf-gcc-9.2.0.0/gcc_fix_raissrc/bin/../lib/gcc/riscv-nuclei-elf/9.2.0/../../../../riscv-nuclei-elf/lib/rv32imafc/ilp32f\libm.a(lib_a-sf_copysign.o)

.debug_frame    0x0000000000000000     0x31a8
 .debug_frame   0x0000000000000000     0x1940 C:\TMP\nn_denoise_rtc_sample.elf.t3mX4c.ltrans0.ltrans.o
 .debug_frame   0x0000000000001940     0x1118 C:\TMP\nn_denoise_rtc_sample.elf.t3mX4c.ltrans1.ltrans.o
 .debug_frame   0x0000000000002a58      0x4c4 ../../../libs\libnewlib_port.a(sbrk.o)
 .debug_frame   0x0000000000002f1c       0x44 d:/software/yuyin/qiqiyinqiluntai/riscv-nuclei-elf-gcc-9.2.0.0/gcc_fix_raissrc/bin/../lib/gcc/riscv-nuclei-elf/9.2.0/rv32imafc/ilp32f\libgcc.a(adddf3.o)
 .debug_frame   0x0000000000002f60       0x58 d:/software/yuyin/qiqiyinqiluntai/riscv-nuclei-elf-gcc-9.2.0.0/gcc_fix_raissrc/bin/../lib/gcc/riscv-nuclei-elf/9.2.0/rv32imafc/ilp32f\libgcc.a(divdf3.o)
 .debug_frame   0x0000000000002fb8       0x20 d:/software/yuyin/qiqiyinqiluntai/riscv-nuclei-elf-gcc-9.2.0.0/gcc_fix_raissrc/bin/../lib/gcc/riscv-nuclei-elf/9.2.0/rv32imafc/ilp32f\libgcc.a(eqdf2.o)
 .debug_frame   0x0000000000002fd8       0x20 d:/software/yuyin/qiqiyinqiluntai/riscv-nuclei-elf-gcc-9.2.0.0/gcc_fix_raissrc/bin/../lib/gcc/riscv-nuclei-elf/9.2.0/rv32imafc/ilp32f\libgcc.a(gedf2.o)
 .debug_frame   0x0000000000002ff8       0x20 d:/software/yuyin/qiqiyinqiluntai/riscv-nuclei-elf-gcc-9.2.0.0/gcc_fix_raissrc/bin/../lib/gcc/riscv-nuclei-elf/9.2.0/rv32imafc/ilp32f\libgcc.a(ledf2.o)
 .debug_frame   0x0000000000003018       0x58 d:/software/yuyin/qiqiyinqiluntai/riscv-nuclei-elf-gcc-9.2.0.0/gcc_fix_raissrc/bin/../lib/gcc/riscv-nuclei-elf/9.2.0/rv32imafc/ilp32f\libgcc.a(muldf3.o)
 .debug_frame   0x0000000000003070       0x44 d:/software/yuyin/qiqiyinqiluntai/riscv-nuclei-elf-gcc-9.2.0.0/gcc_fix_raissrc/bin/../lib/gcc/riscv-nuclei-elf/9.2.0/rv32imafc/ilp32f\libgcc.a(subdf3.o)
 .debug_frame   0x00000000000030b4       0x20 d:/software/yuyin/qiqiyinqiluntai/riscv-nuclei-elf-gcc-9.2.0.0/gcc_fix_raissrc/bin/../lib/gcc/riscv-nuclei-elf/9.2.0/rv32imafc/ilp32f\libgcc.a(unorddf2.o)
 .debug_frame   0x00000000000030d4       0x20 d:/software/yuyin/qiqiyinqiluntai/riscv-nuclei-elf-gcc-9.2.0.0/gcc_fix_raissrc/bin/../lib/gcc/riscv-nuclei-elf/9.2.0/rv32imafc/ilp32f\libgcc.a(fixdfsi.o)
 .debug_frame   0x00000000000030f4       0x38 d:/software/yuyin/qiqiyinqiluntai/riscv-nuclei-elf-gcc-9.2.0.0/gcc_fix_raissrc/bin/../lib/gcc/riscv-nuclei-elf/9.2.0/rv32imafc/ilp32f\libgcc.a(floatsidf.o)
 .debug_frame   0x000000000000312c       0x3c d:/software/yuyin/qiqiyinqiluntai/riscv-nuclei-elf-gcc-9.2.0.0/gcc_fix_raissrc/bin/../lib/gcc/riscv-nuclei-elf/9.2.0/rv32imafc/ilp32f\libgcc.a(extendsfdf2.o)
 .debug_frame   0x0000000000003168       0x20 d:/software/yuyin/qiqiyinqiluntai/riscv-nuclei-elf-gcc-9.2.0.0/gcc_fix_raissrc/bin/../lib/gcc/riscv-nuclei-elf/9.2.0/rv32imafc/ilp32f\libgcc.a(truncdfsf2.o)
 .debug_frame   0x0000000000003188       0x20 d:/software/yuyin/qiqiyinqiluntai/riscv-nuclei-elf-gcc-9.2.0.0/gcc_fix_raissrc/bin/../lib/gcc/riscv-nuclei-elf/9.2.0/rv32imafc/ilp32f\libgcc.a(_clzsi2.o)
