Archive member included to satisfy reference by file (symbol)

../../../libs\libasr.a(asr_top_outside_port.o)
                              build/objs/command_info.o (symbol from plugin) (asrtop_asr_system_create_model)
../../../libs\libasr.a(decoder_inner_port_rpmsg.o)
                              build/objs/main.o (symbol from plugin) (decoder_port_inner_rpmsg_init)
../../../libs\libasr.a(decoder_manage.o)
                              decoder_inner_port_rpmsg.o (symbol from plugin) (model_parameter_info_clear)
../../../libs\libasr.a(dynmic_confidence.o)
                              build/objs/system_msg_deal.o (symbol from plugin) (dynmic_confidence_config)
../../../libs\libasr.a(dnn_outside_port.o)
                              decoder_manage.o (symbol from plugin) (get_dnn_version)
../../../libs\libasr.a(flash_manage_outside_port.o)
                              build/objs/ci_flash_data_info.o (symbol from plugin) (is_flash_power_off)
../../../libs\libasr.a(vad_fe_outside_port.o)
                              decoder_manage.o (symbol from plugin) (cmvn_update_mean_var_config)
../../../libs\libasr.a(asr_dealwith_result.o)
                              decoder_manage.o (symbol from plugin) (app_deal_asr_reuslt_callback)
../../../libs\libasr.a(asrbest_result.o)
                              decoder_manage.o (symbol from plugin) (asrbest_result_init)
../../../libs\libasr.a(cmp_twice_confidence.o)
                              decoder_manage.o (symbol from plugin) (cmp_twice_init)
../../../libs\libasr.a(decide_result.o)
                              decoder_manage.o (symbol from plugin) (decide_init)
../../../libs\libeq.a(ci_eq.o)
                              build/objs/system_msg_deal.o (symbol from plugin) (ci_eq_deal)
../../../libs\libeq.a(ci_eq_coef.o)
                              ci_eq.o (symbol from plugin) (eq_coef_highfreq)
../../../libs\libnewlib_port.a(sbrk.o)
                              build/objs/platform_config.o (symbol from plugin) (sbrk)
../../../libs\libfreertos_port.a(port.o)
                              build/objs/event_groups.o (symbol from plugin) (vPortSetMSIPInt)
../../../libs\libfreertos_port.a(portasm.o)
                              port.o (symbol from plugin) (vPortYield)
../../../libs\libdsu.a(ci130x_dsu.o)
                              build/objs/main.o (symbol from plugin) (dsu_init)
../../../libs\libdsu.a(ci130x_mailbox.o)
                              build/objs/platform_config.o (symbol from plugin) (mailbox_preinit)
../../../libs\libdsu.a(ci130x_scu.o)
                              build/objs/ci130x_init.o (symbol from plugin) (scu_unlock_system_config)
../../../libs\libdsu.a(ci130x_efuse.o)
                              ci130x_dsu.o (symbol from plugin) (efuse_unlock)
../../../libs\libdsu.a(ci130x_dpmu.o)
                              build/objs/ci130x_init.o (symbol from plugin) (dpmu_unlock_cfg_config)
../../../libs\libdsu.a(ci130x_nuclear_com.o)
                              build/objs/flash_control_inner_port.o (symbol from plugin) (nuclear_com_registe_serve)
../../../libs\libdsu.a(remote_api_for_host.o)
                              build/objs/main.o (symbol from plugin) (rc_caller_set_ssp_registe)
d:/software/yuyin/qiqiyinqiluntai/riscv-nuclei-elf-gcc-9.2.0.0/gcc_fix_raissrc/bin/../lib/gcc/riscv-nuclei-elf/9.2.0/rv32imafc/ilp32f\libgcc.a(save-restore.o)
                              ../../../libs\libnewlib_port.a(sbrk.o) (__riscv_save_4)
d:/software/yuyin/qiqiyinqiluntai/riscv-nuclei-elf-gcc-9.2.0.0/gcc_fix_raissrc/bin/../lib/gcc/riscv-nuclei-elf/9.2.0/../../../../riscv-nuclei-elf/lib/rv32imafc/ilp32f\libg_nano.a(lib_a-atexit.o)
                              build/objs/ci130x_startup.o (atexit)
d:/software/yuyin/qiqiyinqiluntai/riscv-nuclei-elf-gcc-9.2.0.0/gcc_fix_raissrc/bin/../lib/gcc/riscv-nuclei-elf/9.2.0/../../../../riscv-nuclei-elf/lib/rv32imafc/ilp32f\libg_nano.a(lib_a-exit.o)
                              build/objs/ci130x_startup.o (exit)
d:/software/yuyin/qiqiyinqiluntai/riscv-nuclei-elf-gcc-9.2.0.0/gcc_fix_raissrc/bin/../lib/gcc/riscv-nuclei-elf/9.2.0/../../../../riscv-nuclei-elf/lib/rv32imafc/ilp32f\libg_nano.a(lib_a-fini.o)
                              build/objs/ci130x_startup.o (__libc_fini_array)
d:/software/yuyin/qiqiyinqiluntai/riscv-nuclei-elf-gcc-9.2.0.0/gcc_fix_raissrc/bin/../lib/gcc/riscv-nuclei-elf/9.2.0/../../../../riscv-nuclei-elf/lib/rv32imafc/ilp32f\libg_nano.a(lib_a-impure.o)
                              d:/software/yuyin/qiqiyinqiluntai/riscv-nuclei-elf-gcc-9.2.0.0/gcc_fix_raissrc/bin/../lib/gcc/riscv-nuclei-elf/9.2.0/../../../../riscv-nuclei-elf/lib/rv32imafc/ilp32f\libg_nano.a(lib_a-exit.o) (_global_impure_ptr)
d:/software/yuyin/qiqiyinqiluntai/riscv-nuclei-elf-gcc-9.2.0.0/gcc_fix_raissrc/bin/../lib/gcc/riscv-nuclei-elf/9.2.0/../../../../riscv-nuclei-elf/lib/rv32imafc/ilp32f\libg_nano.a(lib_a-init.o)
                              build/objs/ci130x_startup.o (__libc_init_array)
d:/software/yuyin/qiqiyinqiluntai/riscv-nuclei-elf-gcc-9.2.0.0/gcc_fix_raissrc/bin/../lib/gcc/riscv-nuclei-elf/9.2.0/../../../../riscv-nuclei-elf/lib/rv32imafc/ilp32f\libg_nano.a(lib_a-rand.o)
                              build/objs/command_info.o (symbol from plugin) (rand)
d:/software/yuyin/qiqiyinqiluntai/riscv-nuclei-elf-gcc-9.2.0.0/gcc_fix_raissrc/bin/../lib/gcc/riscv-nuclei-elf/9.2.0/../../../../riscv-nuclei-elf/lib/rv32imafc/ilp32f\libg_nano.a(lib_a-__atexit.o)
                              d:/software/yuyin/qiqiyinqiluntai/riscv-nuclei-elf-gcc-9.2.0.0/gcc_fix_raissrc/bin/../lib/gcc/riscv-nuclei-elf/9.2.0/../../../../riscv-nuclei-elf/lib/rv32imafc/ilp32f\libg_nano.a(lib_a-atexit.o) (__register_exitproc)
d:/software/yuyin/qiqiyinqiluntai/riscv-nuclei-elf-gcc-9.2.0.0/gcc_fix_raissrc/bin/../lib/gcc/riscv-nuclei-elf/9.2.0/../../../../riscv-nuclei-elf/lib/rv32imafc/ilp32f\libg_nano.a(lib_a-__call_atexit.o)
                              d:/software/yuyin/qiqiyinqiluntai/riscv-nuclei-elf-gcc-9.2.0.0/gcc_fix_raissrc/bin/../lib/gcc/riscv-nuclei-elf/9.2.0/../../../../riscv-nuclei-elf/lib/rv32imafc/ilp32f\libg_nano.a(lib_a-__atexit.o) (__call_exitprocs)
d:/software/yuyin/qiqiyinqiluntai/riscv-nuclei-elf-gcc-9.2.0.0/gcc_fix_raissrc/bin/../lib/gcc/riscv-nuclei-elf/9.2.0/../../../../riscv-nuclei-elf/lib/rv32imafc/ilp32f\libgloss_nano.a(sys_exit.o)
                              d:/software/yuyin/qiqiyinqiluntai/riscv-nuclei-elf-gcc-9.2.0.0/gcc_fix_raissrc/bin/../lib/gcc/riscv-nuclei-elf/9.2.0/../../../../riscv-nuclei-elf/lib/rv32imafc/ilp32f\libg_nano.a(lib_a-exit.o) (_exit)
d:/software/yuyin/qiqiyinqiluntai/riscv-nuclei-elf-gcc-9.2.0.0/gcc_fix_raissrc/bin/../lib/gcc/riscv-nuclei-elf/9.2.0/../../../../riscv-nuclei-elf/lib/rv32imafc/ilp32f\libc_nano.a(lib_a-errno.o)
                              d:/software/yuyin/qiqiyinqiluntai/riscv-nuclei-elf-gcc-9.2.0.0/gcc_fix_raissrc/bin/../lib/gcc/riscv-nuclei-elf/9.2.0/../../../../riscv-nuclei-elf/lib/rv32imafc/ilp32f\libgloss_nano.a(sys_exit.o) (__errno)
d:/software/yuyin/qiqiyinqiluntai/riscv-nuclei-elf-gcc-9.2.0.0/gcc_fix_raissrc/bin/../lib/gcc/riscv-nuclei-elf/9.2.0/../../../../riscv-nuclei-elf/lib/rv32imafc/ilp32f\libm.a(lib_a-s_floor.o)
                              C:\TMP\nn_denoise_rtc_sample.elf.ItDyV2.ltrans0.ltrans.o (floor)
d:/software/yuyin/qiqiyinqiluntai/riscv-nuclei-elf-gcc-9.2.0.0/gcc_fix_raissrc/bin/../lib/gcc/riscv-nuclei-elf/9.2.0/../../../../riscv-nuclei-elf/lib/rv32imafc/ilp32f\libm.a(lib_a-w_acos.o)
                              C:\TMP\nn_denoise_rtc_sample.elf.ItDyV2.ltrans0.ltrans.o (acos)
d:/software/yuyin/qiqiyinqiluntai/riscv-nuclei-elf-gcc-9.2.0.0/gcc_fix_raissrc/bin/../lib/gcc/riscv-nuclei-elf/9.2.0/../../../../riscv-nuclei-elf/lib/rv32imafc/ilp32f\libm.a(lib_a-w_exp.o)
                              C:\TMP\nn_denoise_rtc_sample.elf.ItDyV2.ltrans0.ltrans.o (exp)
d:/software/yuyin/qiqiyinqiluntai/riscv-nuclei-elf-gcc-9.2.0.0/gcc_fix_raissrc/bin/../lib/gcc/riscv-nuclei-elf/9.2.0/../../../../riscv-nuclei-elf/lib/rv32imafc/ilp32f\libm.a(lib_a-wf_pow.o)
                              C:\TMP\nn_denoise_rtc_sample.elf.ItDyV2.ltrans0.ltrans.o (powf)
d:/software/yuyin/qiqiyinqiluntai/riscv-nuclei-elf-gcc-9.2.0.0/gcc_fix_raissrc/bin/../lib/gcc/riscv-nuclei-elf/9.2.0/../../../../riscv-nuclei-elf/lib/rv32imafc/ilp32f\libm.a(lib_a-w_log.o)
                              C:\TMP\nn_denoise_rtc_sample.elf.ItDyV2.ltrans0.ltrans.o (log)
d:/software/yuyin/qiqiyinqiluntai/riscv-nuclei-elf-gcc-9.2.0.0/gcc_fix_raissrc/bin/../lib/gcc/riscv-nuclei-elf/9.2.0/../../../../riscv-nuclei-elf/lib/rv32imafc/ilp32f\libm.a(lib_a-w_sqrt.o)
                              C:\TMP\nn_denoise_rtc_sample.elf.ItDyV2.ltrans0.ltrans.o (sqrt)
d:/software/yuyin/qiqiyinqiluntai/riscv-nuclei-elf-gcc-9.2.0.0/gcc_fix_raissrc/bin/../lib/gcc/riscv-nuclei-elf/9.2.0/../../../../riscv-nuclei-elf/lib/rv32imafc/ilp32f\libm.a(lib_a-e_acos.o)
                              d:/software/yuyin/qiqiyinqiluntai/riscv-nuclei-elf-gcc-9.2.0.0/gcc_fix_raissrc/bin/../lib/gcc/riscv-nuclei-elf/9.2.0/../../../../riscv-nuclei-elf/lib/rv32imafc/ilp32f\libm.a(lib_a-w_acos.o) (__ieee754_acos)
d:/software/yuyin/qiqiyinqiluntai/riscv-nuclei-elf-gcc-9.2.0.0/gcc_fix_raissrc/bin/../lib/gcc/riscv-nuclei-elf/9.2.0/../../../../riscv-nuclei-elf/lib/rv32imafc/ilp32f\libm.a(lib_a-e_exp.o)
                              d:/software/yuyin/qiqiyinqiluntai/riscv-nuclei-elf-gcc-9.2.0.0/gcc_fix_raissrc/bin/../lib/gcc/riscv-nuclei-elf/9.2.0/../../../../riscv-nuclei-elf/lib/rv32imafc/ilp32f\libm.a(lib_a-w_exp.o) (__ieee754_exp)
d:/software/yuyin/qiqiyinqiluntai/riscv-nuclei-elf-gcc-9.2.0.0/gcc_fix_raissrc/bin/../lib/gcc/riscv-nuclei-elf/9.2.0/../../../../riscv-nuclei-elf/lib/rv32imafc/ilp32f\libm.a(lib_a-ef_pow.o)
                              d:/software/yuyin/qiqiyinqiluntai/riscv-nuclei-elf-gcc-9.2.0.0/gcc_fix_raissrc/bin/../lib/gcc/riscv-nuclei-elf/9.2.0/../../../../riscv-nuclei-elf/lib/rv32imafc/ilp32f\libm.a(lib_a-wf_pow.o) (__ieee754_powf)
d:/software/yuyin/qiqiyinqiluntai/riscv-nuclei-elf-gcc-9.2.0.0/gcc_fix_raissrc/bin/../lib/gcc/riscv-nuclei-elf/9.2.0/../../../../riscv-nuclei-elf/lib/rv32imafc/ilp32f\libm.a(lib_a-ef_sqrt.o)
                              d:/software/yuyin/qiqiyinqiluntai/riscv-nuclei-elf-gcc-9.2.0.0/gcc_fix_raissrc/bin/../lib/gcc/riscv-nuclei-elf/9.2.0/../../../../riscv-nuclei-elf/lib/rv32imafc/ilp32f\libm.a(lib_a-ef_pow.o) (__ieee754_sqrtf)
d:/software/yuyin/qiqiyinqiluntai/riscv-nuclei-elf-gcc-9.2.0.0/gcc_fix_raissrc/bin/../lib/gcc/riscv-nuclei-elf/9.2.0/../../../../riscv-nuclei-elf/lib/rv32imafc/ilp32f\libm.a(lib_a-e_log.o)
                              d:/software/yuyin/qiqiyinqiluntai/riscv-nuclei-elf-gcc-9.2.0.0/gcc_fix_raissrc/bin/../lib/gcc/riscv-nuclei-elf/9.2.0/../../../../riscv-nuclei-elf/lib/rv32imafc/ilp32f\libm.a(lib_a-w_log.o) (__ieee754_log)
d:/software/yuyin/qiqiyinqiluntai/riscv-nuclei-elf-gcc-9.2.0.0/gcc_fix_raissrc/bin/../lib/gcc/riscv-nuclei-elf/9.2.0/../../../../riscv-nuclei-elf/lib/rv32imafc/ilp32f\libm.a(lib_a-e_sqrt.o)
                              d:/software/yuyin/qiqiyinqiluntai/riscv-nuclei-elf-gcc-9.2.0.0/gcc_fix_raissrc/bin/../lib/gcc/riscv-nuclei-elf/9.2.0/../../../../riscv-nuclei-elf/lib/rv32imafc/ilp32f\libm.a(lib_a-w_sqrt.o) (__ieee754_sqrt)
d:/software/yuyin/qiqiyinqiluntai/riscv-nuclei-elf-gcc-9.2.0.0/gcc_fix_raissrc/bin/../lib/gcc/riscv-nuclei-elf/9.2.0/../../../../riscv-nuclei-elf/lib/rv32imafc/ilp32f\libm.a(lib_a-s_fabs.o)
                              d:/software/yuyin/qiqiyinqiluntai/riscv-nuclei-elf-gcc-9.2.0.0/gcc_fix_raissrc/bin/../lib/gcc/riscv-nuclei-elf/9.2.0/../../../../riscv-nuclei-elf/lib/rv32imafc/ilp32f\libm.a(lib_a-w_acos.o) (fabs)
d:/software/yuyin/qiqiyinqiluntai/riscv-nuclei-elf-gcc-9.2.0.0/gcc_fix_raissrc/bin/../lib/gcc/riscv-nuclei-elf/9.2.0/../../../../riscv-nuclei-elf/lib/rv32imafc/ilp32f\libm.a(lib_a-sf_finite.o)
                              d:/software/yuyin/qiqiyinqiluntai/riscv-nuclei-elf-gcc-9.2.0.0/gcc_fix_raissrc/bin/../lib/gcc/riscv-nuclei-elf/9.2.0/../../../../riscv-nuclei-elf/lib/rv32imafc/ilp32f\libm.a(lib_a-wf_pow.o) (finitef)
d:/software/yuyin/qiqiyinqiluntai/riscv-nuclei-elf-gcc-9.2.0.0/gcc_fix_raissrc/bin/../lib/gcc/riscv-nuclei-elf/9.2.0/../../../../riscv-nuclei-elf/lib/rv32imafc/ilp32f\libm.a(lib_a-s_finite.o)
                              d:/software/yuyin/qiqiyinqiluntai/riscv-nuclei-elf-gcc-9.2.0.0/gcc_fix_raissrc/bin/../lib/gcc/riscv-nuclei-elf/9.2.0/../../../../riscv-nuclei-elf/lib/rv32imafc/ilp32f\libm.a(lib_a-w_exp.o) (finite)
d:/software/yuyin/qiqiyinqiluntai/riscv-nuclei-elf-gcc-9.2.0.0/gcc_fix_raissrc/bin/../lib/gcc/riscv-nuclei-elf/9.2.0/../../../../riscv-nuclei-elf/lib/rv32imafc/ilp32f\libm.a(lib_a-sf_nan.o)
                              d:/software/yuyin/qiqiyinqiluntai/riscv-nuclei-elf-gcc-9.2.0.0/gcc_fix_raissrc/bin/../lib/gcc/riscv-nuclei-elf/9.2.0/../../../../riscv-nuclei-elf/lib/rv32imafc/ilp32f\libm.a(lib_a-ef_pow.o) (nanf)
d:/software/yuyin/qiqiyinqiluntai/riscv-nuclei-elf-gcc-9.2.0.0/gcc_fix_raissrc/bin/../lib/gcc/riscv-nuclei-elf/9.2.0/../../../../riscv-nuclei-elf/lib/rv32imafc/ilp32f\libm.a(lib_a-sf_rint.o)
                              d:/software/yuyin/qiqiyinqiluntai/riscv-nuclei-elf-gcc-9.2.0.0/gcc_fix_raissrc/bin/../lib/gcc/riscv-nuclei-elf/9.2.0/../../../../riscv-nuclei-elf/lib/rv32imafc/ilp32f\libm.a(lib_a-wf_pow.o) (rintf)
d:/software/yuyin/qiqiyinqiluntai/riscv-nuclei-elf-gcc-9.2.0.0/gcc_fix_raissrc/bin/../lib/gcc/riscv-nuclei-elf/9.2.0/../../../../riscv-nuclei-elf/lib/rv32imafc/ilp32f\libm.a(lib_a-sf_scalbn.o)
                              d:/software/yuyin/qiqiyinqiluntai/riscv-nuclei-elf-gcc-9.2.0.0/gcc_fix_raissrc/bin/../lib/gcc/riscv-nuclei-elf/9.2.0/../../../../riscv-nuclei-elf/lib/rv32imafc/ilp32f\libm.a(lib_a-ef_pow.o) (scalbnf)
d:/software/yuyin/qiqiyinqiluntai/riscv-nuclei-elf-gcc-9.2.0.0/gcc_fix_raissrc/bin/../lib/gcc/riscv-nuclei-elf/9.2.0/../../../../riscv-nuclei-elf/lib/rv32imafc/ilp32f\libm.a(lib_a-s_lib_ver.o)
                              d:/software/yuyin/qiqiyinqiluntai/riscv-nuclei-elf-gcc-9.2.0.0/gcc_fix_raissrc/bin/../lib/gcc/riscv-nuclei-elf/9.2.0/../../../../riscv-nuclei-elf/lib/rv32imafc/ilp32f\libm.a(lib_a-w_acos.o) (__fdlib_version)
d:/software/yuyin/qiqiyinqiluntai/riscv-nuclei-elf-gcc-9.2.0.0/gcc_fix_raissrc/bin/../lib/gcc/riscv-nuclei-elf/9.2.0/../../../../riscv-nuclei-elf/lib/rv32imafc/ilp32f\libm.a(lib_a-s_matherr.o)
                              d:/software/yuyin/qiqiyinqiluntai/riscv-nuclei-elf-gcc-9.2.0.0/gcc_fix_raissrc/bin/../lib/gcc/riscv-nuclei-elf/9.2.0/../../../../riscv-nuclei-elf/lib/rv32imafc/ilp32f\libm.a(lib_a-w_acos.o) (matherr)
d:/software/yuyin/qiqiyinqiluntai/riscv-nuclei-elf-gcc-9.2.0.0/gcc_fix_raissrc/bin/../lib/gcc/riscv-nuclei-elf/9.2.0/../../../../riscv-nuclei-elf/lib/rv32imafc/ilp32f\libm.a(lib_a-s_nan.o)
                              d:/software/yuyin/qiqiyinqiluntai/riscv-nuclei-elf-gcc-9.2.0.0/gcc_fix_raissrc/bin/../lib/gcc/riscv-nuclei-elf/9.2.0/../../../../riscv-nuclei-elf/lib/rv32imafc/ilp32f\libm.a(lib_a-w_acos.o) (nan)
d:/software/yuyin/qiqiyinqiluntai/riscv-nuclei-elf-gcc-9.2.0.0/gcc_fix_raissrc/bin/../lib/gcc/riscv-nuclei-elf/9.2.0/../../../../riscv-nuclei-elf/lib/rv32imafc/ilp32f\libm.a(lib_a-sf_copysign.o)
                              d:/software/yuyin/qiqiyinqiluntai/riscv-nuclei-elf-gcc-9.2.0.0/gcc_fix_raissrc/bin/../lib/gcc/riscv-nuclei-elf/9.2.0/../../../../riscv-nuclei-elf/lib/rv32imafc/ilp32f\libm.a(lib_a-sf_scalbn.o) (copysignf)
d:/software/yuyin/qiqiyinqiluntai/riscv-nuclei-elf-gcc-9.2.0.0/gcc_fix_raissrc/bin/../lib/gcc/riscv-nuclei-elf/9.2.0/rv32imafc/ilp32f\libgcc.a(adddf3.o)
                              C:\TMP\nn_denoise_rtc_sample.elf.ItDyV2.ltrans0.ltrans.o (__adddf3)
d:/software/yuyin/qiqiyinqiluntai/riscv-nuclei-elf-gcc-9.2.0.0/gcc_fix_raissrc/bin/../lib/gcc/riscv-nuclei-elf/9.2.0/rv32imafc/ilp32f\libgcc.a(divdf3.o)
                              C:\TMP\nn_denoise_rtc_sample.elf.ItDyV2.ltrans0.ltrans.o (__divdf3)
d:/software/yuyin/qiqiyinqiluntai/riscv-nuclei-elf-gcc-9.2.0.0/gcc_fix_raissrc/bin/../lib/gcc/riscv-nuclei-elf/9.2.0/rv32imafc/ilp32f\libgcc.a(eqdf2.o)
                              d:/software/yuyin/qiqiyinqiluntai/riscv-nuclei-elf-gcc-9.2.0.0/gcc_fix_raissrc/bin/../lib/gcc/riscv-nuclei-elf/9.2.0/../../../../riscv-nuclei-elf/lib/rv32imafc/ilp32f\libm.a(lib_a-w_log.o) (__eqdf2)
d:/software/yuyin/qiqiyinqiluntai/riscv-nuclei-elf-gcc-9.2.0.0/gcc_fix_raissrc/bin/../lib/gcc/riscv-nuclei-elf/9.2.0/rv32imafc/ilp32f\libgcc.a(gedf2.o)
                              C:\TMP\nn_denoise_rtc_sample.elf.ItDyV2.ltrans0.ltrans.o (__gtdf2)
d:/software/yuyin/qiqiyinqiluntai/riscv-nuclei-elf-gcc-9.2.0.0/gcc_fix_raissrc/bin/../lib/gcc/riscv-nuclei-elf/9.2.0/rv32imafc/ilp32f\libgcc.a(ledf2.o)
                              C:\TMP\nn_denoise_rtc_sample.elf.ItDyV2.ltrans0.ltrans.o (__ltdf2)
d:/software/yuyin/qiqiyinqiluntai/riscv-nuclei-elf-gcc-9.2.0.0/gcc_fix_raissrc/bin/../lib/gcc/riscv-nuclei-elf/9.2.0/rv32imafc/ilp32f\libgcc.a(muldf3.o)
                              C:\TMP\nn_denoise_rtc_sample.elf.ItDyV2.ltrans0.ltrans.o (__muldf3)
d:/software/yuyin/qiqiyinqiluntai/riscv-nuclei-elf-gcc-9.2.0.0/gcc_fix_raissrc/bin/../lib/gcc/riscv-nuclei-elf/9.2.0/rv32imafc/ilp32f\libgcc.a(subdf3.o)
                              C:\TMP\nn_denoise_rtc_sample.elf.ItDyV2.ltrans0.ltrans.o (__subdf3)
d:/software/yuyin/qiqiyinqiluntai/riscv-nuclei-elf-gcc-9.2.0.0/gcc_fix_raissrc/bin/../lib/gcc/riscv-nuclei-elf/9.2.0/rv32imafc/ilp32f\libgcc.a(unorddf2.o)
                              d:/software/yuyin/qiqiyinqiluntai/riscv-nuclei-elf-gcc-9.2.0.0/gcc_fix_raissrc/bin/../lib/gcc/riscv-nuclei-elf/9.2.0/../../../../riscv-nuclei-elf/lib/rv32imafc/ilp32f\libm.a(lib_a-w_acos.o) (__unorddf2)
d:/software/yuyin/qiqiyinqiluntai/riscv-nuclei-elf-gcc-9.2.0.0/gcc_fix_raissrc/bin/../lib/gcc/riscv-nuclei-elf/9.2.0/rv32imafc/ilp32f\libgcc.a(fixdfsi.o)
                              C:\TMP\nn_denoise_rtc_sample.elf.ItDyV2.ltrans0.ltrans.o (__fixdfsi)
d:/software/yuyin/qiqiyinqiluntai/riscv-nuclei-elf-gcc-9.2.0.0/gcc_fix_raissrc/bin/../lib/gcc/riscv-nuclei-elf/9.2.0/rv32imafc/ilp32f\libgcc.a(floatsidf.o)
                              C:\TMP\nn_denoise_rtc_sample.elf.ItDyV2.ltrans0.ltrans.o (__floatsidf)
d:/software/yuyin/qiqiyinqiluntai/riscv-nuclei-elf-gcc-9.2.0.0/gcc_fix_raissrc/bin/../lib/gcc/riscv-nuclei-elf/9.2.0/rv32imafc/ilp32f\libgcc.a(extendsfdf2.o)
                              C:\TMP\nn_denoise_rtc_sample.elf.ItDyV2.ltrans0.ltrans.o (__extendsfdf2)
d:/software/yuyin/qiqiyinqiluntai/riscv-nuclei-elf-gcc-9.2.0.0/gcc_fix_raissrc/bin/../lib/gcc/riscv-nuclei-elf/9.2.0/rv32imafc/ilp32f\libgcc.a(truncdfsf2.o)
                              C:\TMP\nn_denoise_rtc_sample.elf.ItDyV2.ltrans0.ltrans.o (__truncdfsf2)
d:/software/yuyin/qiqiyinqiluntai/riscv-nuclei-elf-gcc-9.2.0.0/gcc_fix_raissrc/bin/../lib/gcc/riscv-nuclei-elf/9.2.0/rv32imafc/ilp32f\libgcc.a(_clzsi2.o)
                              d:/software/yuyin/qiqiyinqiluntai/riscv-nuclei-elf-gcc-9.2.0.0/gcc_fix_raissrc/bin/../lib/gcc/riscv-nuclei-elf/9.2.0/rv32imafc/ilp32f\libgcc.a(adddf3.o) (__clzsi2)
d:/software/yuyin/qiqiyinqiluntai/riscv-nuclei-elf-gcc-9.2.0.0/gcc_fix_raissrc/bin/../lib/gcc/riscv-nuclei-elf/9.2.0/rv32imafc/ilp32f\libgcc.a(_clz.o)
                              d:/software/yuyin/qiqiyinqiluntai/riscv-nuclei-elf-gcc-9.2.0.0/gcc_fix_raissrc/bin/../lib/gcc/riscv-nuclei-elf/9.2.0/rv32imafc/ilp32f\libgcc.a(_clzsi2.o) (__clz_tab)
d:/software/yuyin/qiqiyinqiluntai/riscv-nuclei-elf-gcc-9.2.0.0/gcc_fix_raissrc/bin/../lib/gcc/riscv-nuclei-elf/9.2.0/../../../../riscv-nuclei-elf/lib/rv32imafc/ilp32f\libg_nano.a(lib_a-calloc.o)
                              C:\TMP\nn_denoise_rtc_sample.elf.ItDyV2.ltrans0.ltrans.o (calloc)
d:/software/yuyin/qiqiyinqiluntai/riscv-nuclei-elf-gcc-9.2.0.0/gcc_fix_raissrc/bin/../lib/gcc/riscv-nuclei-elf/9.2.0/../../../../riscv-nuclei-elf/lib/rv32imafc/ilp32f\libg_nano.a(lib_a-fprintf.o)
                              C:\TMP\nn_denoise_rtc_sample.elf.ItDyV2.ltrans0.ltrans.o (fprintf)
d:/software/yuyin/qiqiyinqiluntai/riscv-nuclei-elf-gcc-9.2.0.0/gcc_fix_raissrc/bin/../lib/gcc/riscv-nuclei-elf/9.2.0/../../../../riscv-nuclei-elf/lib/rv32imafc/ilp32f\libg_nano.a(lib_a-nano-callocr.o)
                              d:/software/yuyin/qiqiyinqiluntai/riscv-nuclei-elf-gcc-9.2.0.0/gcc_fix_raissrc/bin/../lib/gcc/riscv-nuclei-elf/9.2.0/../../../../riscv-nuclei-elf/lib/rv32imafc/ilp32f\libg_nano.a(lib_a-calloc.o) (_calloc_r)
d:/software/yuyin/qiqiyinqiluntai/riscv-nuclei-elf-gcc-9.2.0.0/gcc_fix_raissrc/bin/../lib/gcc/riscv-nuclei-elf/9.2.0/../../../../riscv-nuclei-elf/lib/rv32imafc/ilp32f\libg_nano.a(lib_a-nano-mallocr.o)
                              d:/software/yuyin/qiqiyinqiluntai/riscv-nuclei-elf-gcc-9.2.0.0/gcc_fix_raissrc/bin/../lib/gcc/riscv-nuclei-elf/9.2.0/../../../../riscv-nuclei-elf/lib/rv32imafc/ilp32f\libg_nano.a(lib_a-nano-callocr.o) (_malloc_r)
d:/software/yuyin/qiqiyinqiluntai/riscv-nuclei-elf-gcc-9.2.0.0/gcc_fix_raissrc/bin/../lib/gcc/riscv-nuclei-elf/9.2.0/../../../../riscv-nuclei-elf/lib/rv32imafc/ilp32f\libg_nano.a(lib_a-nano-vfprintf.o)
                              d:/software/yuyin/qiqiyinqiluntai/riscv-nuclei-elf-gcc-9.2.0.0/gcc_fix_raissrc/bin/../lib/gcc/riscv-nuclei-elf/9.2.0/../../../../riscv-nuclei-elf/lib/rv32imafc/ilp32f\libg_nano.a(lib_a-fprintf.o) (_vfprintf_r)
d:/software/yuyin/qiqiyinqiluntai/riscv-nuclei-elf-gcc-9.2.0.0/gcc_fix_raissrc/bin/../lib/gcc/riscv-nuclei-elf/9.2.0/../../../../riscv-nuclei-elf/lib/rv32imafc/ilp32f\libg_nano.a(lib_a-realloc.o)
                              C:\TMP\nn_denoise_rtc_sample.elf.ItDyV2.ltrans1.ltrans.o (realloc)
d:/software/yuyin/qiqiyinqiluntai/riscv-nuclei-elf-gcc-9.2.0.0/gcc_fix_raissrc/bin/../lib/gcc/riscv-nuclei-elf/9.2.0/../../../../riscv-nuclei-elf/lib/rv32imafc/ilp32f\libg_nano.a(lib_a-sbrkr.o)
                              d:/software/yuyin/qiqiyinqiluntai/riscv-nuclei-elf-gcc-9.2.0.0/gcc_fix_raissrc/bin/../lib/gcc/riscv-nuclei-elf/9.2.0/../../../../riscv-nuclei-elf/lib/rv32imafc/ilp32f\libg_nano.a(lib_a-nano-mallocr.o) (_sbrk_r)
d:/software/yuyin/qiqiyinqiluntai/riscv-nuclei-elf-gcc-9.2.0.0/gcc_fix_raissrc/bin/../lib/gcc/riscv-nuclei-elf/9.2.0/../../../../riscv-nuclei-elf/lib/rv32imafc/ilp32f\libg_nano.a(lib_a-wbuf.o)
                              d:/software/yuyin/qiqiyinqiluntai/riscv-nuclei-elf-gcc-9.2.0.0/gcc_fix_raissrc/bin/../lib/gcc/riscv-nuclei-elf/9.2.0/../../../../riscv-nuclei-elf/lib/rv32imafc/ilp32f\libg_nano.a(lib_a-nano-vfprintf.o) (__swbuf_r)
d:/software/yuyin/qiqiyinqiluntai/riscv-nuclei-elf-gcc-9.2.0.0/gcc_fix_raissrc/bin/../lib/gcc/riscv-nuclei-elf/9.2.0/../../../../riscv-nuclei-elf/lib/rv32imafc/ilp32f\libg_nano.a(lib_a-wsetup.o)
                              d:/software/yuyin/qiqiyinqiluntai/riscv-nuclei-elf-gcc-9.2.0.0/gcc_fix_raissrc/bin/../lib/gcc/riscv-nuclei-elf/9.2.0/../../../../riscv-nuclei-elf/lib/rv32imafc/ilp32f\libg_nano.a(lib_a-nano-vfprintf.o) (__swsetup_r)
d:/software/yuyin/qiqiyinqiluntai/riscv-nuclei-elf-gcc-9.2.0.0/gcc_fix_raissrc/bin/../lib/gcc/riscv-nuclei-elf/9.2.0/../../../../riscv-nuclei-elf/lib/rv32imafc/ilp32f\libg_nano.a(lib_a-fflush.o)
                              d:/software/yuyin/qiqiyinqiluntai/riscv-nuclei-elf-gcc-9.2.0.0/gcc_fix_raissrc/bin/../lib/gcc/riscv-nuclei-elf/9.2.0/../../../../riscv-nuclei-elf/lib/rv32imafc/ilp32f\libg_nano.a(lib_a-wbuf.o) (_fflush_r)
d:/software/yuyin/qiqiyinqiluntai/riscv-nuclei-elf-gcc-9.2.0.0/gcc_fix_raissrc/bin/../lib/gcc/riscv-nuclei-elf/9.2.0/../../../../riscv-nuclei-elf/lib/rv32imafc/ilp32f\libg_nano.a(lib_a-findfp.o)
                              d:/software/yuyin/qiqiyinqiluntai/riscv-nuclei-elf-gcc-9.2.0.0/gcc_fix_raissrc/bin/../lib/gcc/riscv-nuclei-elf/9.2.0/../../../../riscv-nuclei-elf/lib/rv32imafc/ilp32f\libg_nano.a(lib_a-nano-vfprintf.o) (__sinit)
d:/software/yuyin/qiqiyinqiluntai/riscv-nuclei-elf-gcc-9.2.0.0/gcc_fix_raissrc/bin/../lib/gcc/riscv-nuclei-elf/9.2.0/../../../../riscv-nuclei-elf/lib/rv32imafc/ilp32f\libg_nano.a(lib_a-fvwrite.o)
                              d:/software/yuyin/qiqiyinqiluntai/riscv-nuclei-elf-gcc-9.2.0.0/gcc_fix_raissrc/bin/../lib/gcc/riscv-nuclei-elf/9.2.0/../../../../riscv-nuclei-elf/lib/rv32imafc/ilp32f\libg_nano.a(lib_a-nano-vfprintf.o) (__sfvwrite_r)
d:/software/yuyin/qiqiyinqiluntai/riscv-nuclei-elf-gcc-9.2.0.0/gcc_fix_raissrc/bin/../lib/gcc/riscv-nuclei-elf/9.2.0/../../../../riscv-nuclei-elf/lib/rv32imafc/ilp32f\libg_nano.a(lib_a-fwalk.o)
                              d:/software/yuyin/qiqiyinqiluntai/riscv-nuclei-elf-gcc-9.2.0.0/gcc_fix_raissrc/bin/../lib/gcc/riscv-nuclei-elf/9.2.0/../../../../riscv-nuclei-elf/lib/rv32imafc/ilp32f\libg_nano.a(lib_a-findfp.o) (_fwalk)
d:/software/yuyin/qiqiyinqiluntai/riscv-nuclei-elf-gcc-9.2.0.0/gcc_fix_raissrc/bin/../lib/gcc/riscv-nuclei-elf/9.2.0/../../../../riscv-nuclei-elf/lib/rv32imafc/ilp32f\libg_nano.a(lib_a-makebuf.o)
                              d:/software/yuyin/qiqiyinqiluntai/riscv-nuclei-elf-gcc-9.2.0.0/gcc_fix_raissrc/bin/../lib/gcc/riscv-nuclei-elf/9.2.0/../../../../riscv-nuclei-elf/lib/rv32imafc/ilp32f\libg_nano.a(lib_a-wsetup.o) (__smakebuf_r)
d:/software/yuyin/qiqiyinqiluntai/riscv-nuclei-elf-gcc-9.2.0.0/gcc_fix_raissrc/bin/../lib/gcc/riscv-nuclei-elf/9.2.0/../../../../riscv-nuclei-elf/lib/rv32imafc/ilp32f\libg_nano.a(lib_a-memchr.o)
                              d:/software/yuyin/qiqiyinqiluntai/riscv-nuclei-elf-gcc-9.2.0.0/gcc_fix_raissrc/bin/../lib/gcc/riscv-nuclei-elf/9.2.0/../../../../riscv-nuclei-elf/lib/rv32imafc/ilp32f\libg_nano.a(lib_a-nano-vfprintf.o) (memchr)
d:/software/yuyin/qiqiyinqiluntai/riscv-nuclei-elf-gcc-9.2.0.0/gcc_fix_raissrc/bin/../lib/gcc/riscv-nuclei-elf/9.2.0/../../../../riscv-nuclei-elf/lib/rv32imafc/ilp32f\libg_nano.a(lib_a-nano-freer.o)
                              d:/software/yuyin/qiqiyinqiluntai/riscv-nuclei-elf-gcc-9.2.0.0/gcc_fix_raissrc/bin/../lib/gcc/riscv-nuclei-elf/9.2.0/../../../../riscv-nuclei-elf/lib/rv32imafc/ilp32f\libg_nano.a(lib_a-wsetup.o) (_free_r)
d:/software/yuyin/qiqiyinqiluntai/riscv-nuclei-elf-gcc-9.2.0.0/gcc_fix_raissrc/bin/../lib/gcc/riscv-nuclei-elf/9.2.0/../../../../riscv-nuclei-elf/lib/rv32imafc/ilp32f\libg_nano.a(lib_a-nano-reallocr.o)
                              d:/software/yuyin/qiqiyinqiluntai/riscv-nuclei-elf-gcc-9.2.0.0/gcc_fix_raissrc/bin/../lib/gcc/riscv-nuclei-elf/9.2.0/../../../../riscv-nuclei-elf/lib/rv32imafc/ilp32f\libg_nano.a(lib_a-realloc.o) (_realloc_r)
d:/software/yuyin/qiqiyinqiluntai/riscv-nuclei-elf-gcc-9.2.0.0/gcc_fix_raissrc/bin/../lib/gcc/riscv-nuclei-elf/9.2.0/../../../../riscv-nuclei-elf/lib/rv32imafc/ilp32f\libg_nano.a(lib_a-nano-vfprintf_i.o)
                              d:/software/yuyin/qiqiyinqiluntai/riscv-nuclei-elf-gcc-9.2.0.0/gcc_fix_raissrc/bin/../lib/gcc/riscv-nuclei-elf/9.2.0/../../../../riscv-nuclei-elf/lib/rv32imafc/ilp32f\libg_nano.a(lib_a-nano-vfprintf.o) (_printf_i)
d:/software/yuyin/qiqiyinqiluntai/riscv-nuclei-elf-gcc-9.2.0.0/gcc_fix_raissrc/bin/../lib/gcc/riscv-nuclei-elf/9.2.0/../../../../riscv-nuclei-elf/lib/rv32imafc/ilp32f\libg_nano.a(lib_a-reent.o)
                              d:/software/yuyin/qiqiyinqiluntai/riscv-nuclei-elf-gcc-9.2.0.0/gcc_fix_raissrc/bin/../lib/gcc/riscv-nuclei-elf/9.2.0/../../../../riscv-nuclei-elf/lib/rv32imafc/ilp32f\libg_nano.a(lib_a-sbrkr.o) (errno)
d:/software/yuyin/qiqiyinqiluntai/riscv-nuclei-elf-gcc-9.2.0.0/gcc_fix_raissrc/bin/../lib/gcc/riscv-nuclei-elf/9.2.0/../../../../riscv-nuclei-elf/lib/rv32imafc/ilp32f\libg_nano.a(lib_a-stdio.o)
                              d:/software/yuyin/qiqiyinqiluntai/riscv-nuclei-elf-gcc-9.2.0.0/gcc_fix_raissrc/bin/../lib/gcc/riscv-nuclei-elf/9.2.0/../../../../riscv-nuclei-elf/lib/rv32imafc/ilp32f\libg_nano.a(lib_a-findfp.o) (__sread)
d:/software/yuyin/qiqiyinqiluntai/riscv-nuclei-elf-gcc-9.2.0.0/gcc_fix_raissrc/bin/../lib/gcc/riscv-nuclei-elf/9.2.0/../../../../riscv-nuclei-elf/lib/rv32imafc/ilp32f\libg_nano.a(lib_a-writer.o)
                              d:/software/yuyin/qiqiyinqiluntai/riscv-nuclei-elf-gcc-9.2.0.0/gcc_fix_raissrc/bin/../lib/gcc/riscv-nuclei-elf/9.2.0/../../../../riscv-nuclei-elf/lib/rv32imafc/ilp32f\libg_nano.a(lib_a-stdio.o) (_write_r)
d:/software/yuyin/qiqiyinqiluntai/riscv-nuclei-elf-gcc-9.2.0.0/gcc_fix_raissrc/bin/../lib/gcc/riscv-nuclei-elf/9.2.0/../../../../riscv-nuclei-elf/lib/rv32imafc/ilp32f\libg_nano.a(lib_a-closer.o)
                              d:/software/yuyin/qiqiyinqiluntai/riscv-nuclei-elf-gcc-9.2.0.0/gcc_fix_raissrc/bin/../lib/gcc/riscv-nuclei-elf/9.2.0/../../../../riscv-nuclei-elf/lib/rv32imafc/ilp32f\libg_nano.a(lib_a-stdio.o) (_close_r)
d:/software/yuyin/qiqiyinqiluntai/riscv-nuclei-elf-gcc-9.2.0.0/gcc_fix_raissrc/bin/../lib/gcc/riscv-nuclei-elf/9.2.0/../../../../riscv-nuclei-elf/lib/rv32imafc/ilp32f\libg_nano.a(lib_a-fstatr.o)
                              d:/software/yuyin/qiqiyinqiluntai/riscv-nuclei-elf-gcc-9.2.0.0/gcc_fix_raissrc/bin/../lib/gcc/riscv-nuclei-elf/9.2.0/../../../../riscv-nuclei-elf/lib/rv32imafc/ilp32f\libg_nano.a(lib_a-makebuf.o) (_fstat_r)
d:/software/yuyin/qiqiyinqiluntai/riscv-nuclei-elf-gcc-9.2.0.0/gcc_fix_raissrc/bin/../lib/gcc/riscv-nuclei-elf/9.2.0/../../../../riscv-nuclei-elf/lib/rv32imafc/ilp32f\libg_nano.a(lib_a-isattyr.o)
                              d:/software/yuyin/qiqiyinqiluntai/riscv-nuclei-elf-gcc-9.2.0.0/gcc_fix_raissrc/bin/../lib/gcc/riscv-nuclei-elf/9.2.0/../../../../riscv-nuclei-elf/lib/rv32imafc/ilp32f\libg_nano.a(lib_a-makebuf.o) (_isatty_r)
d:/software/yuyin/qiqiyinqiluntai/riscv-nuclei-elf-gcc-9.2.0.0/gcc_fix_raissrc/bin/../lib/gcc/riscv-nuclei-elf/9.2.0/../../../../riscv-nuclei-elf/lib/rv32imafc/ilp32f\libg_nano.a(lib_a-lseekr.o)
                              d:/software/yuyin/qiqiyinqiluntai/riscv-nuclei-elf-gcc-9.2.0.0/gcc_fix_raissrc/bin/../lib/gcc/riscv-nuclei-elf/9.2.0/../../../../riscv-nuclei-elf/lib/rv32imafc/ilp32f\libg_nano.a(lib_a-stdio.o) (_lseek_r)
d:/software/yuyin/qiqiyinqiluntai/riscv-nuclei-elf-gcc-9.2.0.0/gcc_fix_raissrc/bin/../lib/gcc/riscv-nuclei-elf/9.2.0/../../../../riscv-nuclei-elf/lib/rv32imafc/ilp32f\libg_nano.a(lib_a-nano-msizer.o)
                              d:/software/yuyin/qiqiyinqiluntai/riscv-nuclei-elf-gcc-9.2.0.0/gcc_fix_raissrc/bin/../lib/gcc/riscv-nuclei-elf/9.2.0/../../../../riscv-nuclei-elf/lib/rv32imafc/ilp32f\libg_nano.a(lib_a-nano-reallocr.o) (_malloc_usable_size_r)
d:/software/yuyin/qiqiyinqiluntai/riscv-nuclei-elf-gcc-9.2.0.0/gcc_fix_raissrc/bin/../lib/gcc/riscv-nuclei-elf/9.2.0/../../../../riscv-nuclei-elf/lib/rv32imafc/ilp32f\libg_nano.a(lib_a-readr.o)
                              d:/software/yuyin/qiqiyinqiluntai/riscv-nuclei-elf-gcc-9.2.0.0/gcc_fix_raissrc/bin/../lib/gcc/riscv-nuclei-elf/9.2.0/../../../../riscv-nuclei-elf/lib/rv32imafc/ilp32f\libg_nano.a(lib_a-stdio.o) (_read_r)
d:/software/yuyin/qiqiyinqiluntai/riscv-nuclei-elf-gcc-9.2.0.0/gcc_fix_raissrc/bin/../lib/gcc/riscv-nuclei-elf/9.2.0/../../../../riscv-nuclei-elf/lib/rv32imafc/ilp32f\libgloss_nano.a(sys_close.o)
                              d:/software/yuyin/qiqiyinqiluntai/riscv-nuclei-elf-gcc-9.2.0.0/gcc_fix_raissrc/bin/../lib/gcc/riscv-nuclei-elf/9.2.0/../../../../riscv-nuclei-elf/lib/rv32imafc/ilp32f\libg_nano.a(lib_a-closer.o) (_close)
d:/software/yuyin/qiqiyinqiluntai/riscv-nuclei-elf-gcc-9.2.0.0/gcc_fix_raissrc/bin/../lib/gcc/riscv-nuclei-elf/9.2.0/../../../../riscv-nuclei-elf/lib/rv32imafc/ilp32f\libgloss_nano.a(sys_fstat.o)
                              d:/software/yuyin/qiqiyinqiluntai/riscv-nuclei-elf-gcc-9.2.0.0/gcc_fix_raissrc/bin/../lib/gcc/riscv-nuclei-elf/9.2.0/../../../../riscv-nuclei-elf/lib/rv32imafc/ilp32f\libg_nano.a(lib_a-fstatr.o) (_fstat)
d:/software/yuyin/qiqiyinqiluntai/riscv-nuclei-elf-gcc-9.2.0.0/gcc_fix_raissrc/bin/../lib/gcc/riscv-nuclei-elf/9.2.0/../../../../riscv-nuclei-elf/lib/rv32imafc/ilp32f\libgloss_nano.a(sys_isatty.o)
                              d:/software/yuyin/qiqiyinqiluntai/riscv-nuclei-elf-gcc-9.2.0.0/gcc_fix_raissrc/bin/../lib/gcc/riscv-nuclei-elf/9.2.0/../../../../riscv-nuclei-elf/lib/rv32imafc/ilp32f\libg_nano.a(lib_a-isattyr.o) (_isatty)
d:/software/yuyin/qiqiyinqiluntai/riscv-nuclei-elf-gcc-9.2.0.0/gcc_fix_raissrc/bin/../lib/gcc/riscv-nuclei-elf/9.2.0/../../../../riscv-nuclei-elf/lib/rv32imafc/ilp32f\libgloss_nano.a(sys_lseek.o)
                              d:/software/yuyin/qiqiyinqiluntai/riscv-nuclei-elf-gcc-9.2.0.0/gcc_fix_raissrc/bin/../lib/gcc/riscv-nuclei-elf/9.2.0/../../../../riscv-nuclei-elf/lib/rv32imafc/ilp32f\libg_nano.a(lib_a-lseekr.o) (_lseek)
d:/software/yuyin/qiqiyinqiluntai/riscv-nuclei-elf-gcc-9.2.0.0/gcc_fix_raissrc/bin/../lib/gcc/riscv-nuclei-elf/9.2.0/../../../../riscv-nuclei-elf/lib/rv32imafc/ilp32f\libgloss_nano.a(sys_read.o)
                              d:/software/yuyin/qiqiyinqiluntai/riscv-nuclei-elf-gcc-9.2.0.0/gcc_fix_raissrc/bin/../lib/gcc/riscv-nuclei-elf/9.2.0/../../../../riscv-nuclei-elf/lib/rv32imafc/ilp32f\libg_nano.a(lib_a-readr.o) (_read)
d:/software/yuyin/qiqiyinqiluntai/riscv-nuclei-elf-gcc-9.2.0.0/gcc_fix_raissrc/bin/../lib/gcc/riscv-nuclei-elf/9.2.0/../../../../riscv-nuclei-elf/lib/rv32imafc/ilp32f\libgloss_nano.a(sys_write.o)
                              d:/software/yuyin/qiqiyinqiluntai/riscv-nuclei-elf-gcc-9.2.0.0/gcc_fix_raissrc/bin/../lib/gcc/riscv-nuclei-elf/9.2.0/../../../../riscv-nuclei-elf/lib/rv32imafc/ilp32f\libg_nano.a(lib_a-writer.o) (_write)
d:/software/yuyin/qiqiyinqiluntai/riscv-nuclei-elf-gcc-9.2.0.0/gcc_fix_raissrc/bin/../lib/gcc/riscv-nuclei-elf/9.2.0/../../../../riscv-nuclei-elf/lib/rv32imafc/ilp32f\libgloss_nano.a(sys_conv_stat.o)
                              d:/software/yuyin/qiqiyinqiluntai/riscv-nuclei-elf-gcc-9.2.0.0/gcc_fix_raissrc/bin/../lib/gcc/riscv-nuclei-elf/9.2.0/../../../../riscv-nuclei-elf/lib/rv32imafc/ilp32f\libgloss_nano.a(sys_fstat.o) (_conv_stat)

Allocating common symbols
Common symbol       size              file

errno               0x4               d:/software/yuyin/qiqiyinqiluntai/riscv-nuclei-elf-gcc-9.2.0.0/gcc_fix_raissrc/bin/../lib/gcc/riscv-nuclei-elf/9.2.0/../../../../riscv-nuclei-elf/lib/rv32imafc/ilp32f\libg_nano.a(lib_a-reent.o)

Discarded input sections

 .text          0x0000000000000000        0x0 C:\TMP\nn_denoise_rtc_sample.elf.ItDyV2.ltrans0.ltrans.o
 .data          0x0000000000000000        0x0 C:\TMP\nn_denoise_rtc_sample.elf.ItDyV2.ltrans0.ltrans.o
 .bss           0x0000000000000000        0x0 C:\TMP\nn_denoise_rtc_sample.elf.ItDyV2.ltrans0.ltrans.o
 .sdata2.EFUSE.lto_priv.0
                0x0000000000000000        0x4 C:\TMP\nn_denoise_rtc_sample.elf.ItDyV2.ltrans0.ltrans.o
 .text          0x0000000000000000        0x0 C:\TMP\nn_denoise_rtc_sample.elf.ItDyV2.ltrans1.ltrans.o
 .data          0x0000000000000000        0x0 C:\TMP\nn_denoise_rtc_sample.elf.ItDyV2.ltrans1.ltrans.o
 .bss           0x0000000000000000        0x0 C:\TMP\nn_denoise_rtc_sample.elf.ItDyV2.ltrans1.ltrans.o
 .text.IISxDMA_TADDR1.part.0
                0x0000000000000000       0x38 C:\TMP\nn_denoise_rtc_sample.elf.ItDyV2.ltrans1.ltrans.o
 .rodata._exit.str1.4
                0x0000000000000000       0x12 C:\TMP\nn_denoise_rtc_sample.elf.ItDyV2.ltrans1.ltrans.o
 .text._exit    0x0000000000000000       0x3e C:\TMP\nn_denoise_rtc_sample.elf.ItDyV2.ltrans1.ltrans.o
 .bss.tmp       0x0000000000000000       0x20 C:\TMP\nn_denoise_rtc_sample.elf.ItDyV2.ltrans1.ltrans.o
 .sbss.adc_cha0_int_flag
                0x0000000000000000        0x1 C:\TMP\nn_denoise_rtc_sample.elf.ItDyV2.ltrans1.ltrans.o
 .sbss.adc_cha1_int_flag
                0x0000000000000000        0x1 C:\TMP\nn_denoise_rtc_sample.elf.ItDyV2.ltrans1.ltrans.o
 .sbss.adc_cha2_int_flag
                0x0000000000000000        0x1 C:\TMP\nn_denoise_rtc_sample.elf.ItDyV2.ltrans1.ltrans.o
 .sbss.adc_cha3_int_flag
                0x0000000000000000        0x1 C:\TMP\nn_denoise_rtc_sample.elf.ItDyV2.ltrans1.ltrans.o
 .sbss.adc_cha4_int_flag
                0x0000000000000000        0x1 C:\TMP\nn_denoise_rtc_sample.elf.ItDyV2.ltrans1.ltrans.o
 .sbss.adc_cha5_int_flag
                0x0000000000000000        0x1 C:\TMP\nn_denoise_rtc_sample.elf.ItDyV2.ltrans1.ltrans.o
 .sbss.audio_block_size
                0x0000000000000000        0x2 C:\TMP\nn_denoise_rtc_sample.elf.ItDyV2.ltrans1.ltrans.o
 .sbss.audio_play_status
                0x0000000000000000        0x1 C:\TMP\nn_denoise_rtc_sample.elf.ItDyV2.ltrans1.ltrans.o
 .sbss.d1_max   0x0000000000000000        0x4 C:\TMP\nn_denoise_rtc_sample.elf.ItDyV2.ltrans1.ltrans.o
 .sbss.d2_max   0x0000000000000000        0x4 C:\TMP\nn_denoise_rtc_sample.elf.ItDyV2.ltrans1.ltrans.o
 .sbss.g_scu_int
                0x0000000000000000        0x1 C:\TMP\nn_denoise_rtc_sample.elf.ItDyV2.ltrans1.ltrans.o
 .sbss.sg_cmp_twice_en
                0x0000000000000000        0x1 C:\TMP\nn_denoise_rtc_sample.elf.ItDyV2.ltrans1.ltrans.o
 .sbss.sg_dnn_psram_transfer_sram_done
                0x0000000000000000        0x1 C:\TMP\nn_denoise_rtc_sample.elf.ItDyV2.ltrans1.ltrans.o
 .sbss.src_from_right_mic
                0x0000000000000000        0x1 C:\TMP\nn_denoise_rtc_sample.elf.ItDyV2.ltrans1.ltrans.o
 .sbss.vad_fe_rpmsg_wait_state
                0x0000000000000000        0x4 C:\TMP\nn_denoise_rtc_sample.elf.ItDyV2.ltrans1.ltrans.o
 .sdata.sg_adpt_skpdecode_flag
                0x0000000000000000        0x1 C:\TMP\nn_denoise_rtc_sample.elf.ItDyV2.ltrans1.ltrans.o
 .sdata2.__FUNCTION__.3941
                0x0000000000000000        0x6 C:\TMP\nn_denoise_rtc_sample.elf.ItDyV2.ltrans1.ltrans.o
 .comment       0x0000000000000000       0x12 C:\TMP\cc3X3S1m.debug.temp.o
 .comment       0x0000000000000000       0x12 C:\TMP\ccK9AiDN.debug.temp.o
 .comment       0x0000000000000000       0x12 C:\TMP\ccFAoo5d.debug.temp.o
 .comment       0x0000000000000000       0x12 C:\TMP\ccSA9VTE.debug.temp.o
 .comment       0x0000000000000000       0x12 C:\TMP\cchNT9y5.debug.temp.o
 .debug_info    0x0000000000000000      0x99a C:\TMP\ccUU5Wpv.debug.temp.o
 .debug_abbrev  0x0000000000000000      0x1e4 C:\TMP\ccUU5Wpv.debug.temp.o
 .debug_line    0x0000000000000000      0x1cf C:\TMP\ccUU5Wpv.debug.temp.o
 .debug_str     0x0000000000000000      0x6d8 C:\TMP\ccUU5Wpv.debug.temp.o
 .comment       0x0000000000000000       0x12 C:\TMP\ccUU5Wpv.debug.temp.o
 .comment       0x0000000000000000       0x12 C:\TMP\ccJQIalV.debug.temp.o
 .debug_info    0x0000000000000000      0x91a C:\TMP\cc2bNxHl.debug.temp.o
 .debug_abbrev  0x0000000000000000      0x1b1 C:\TMP\cc2bNxHl.debug.temp.o
 .debug_line    0x0000000000000000      0x151 C:\TMP\cc2bNxHl.debug.temp.o
 .debug_str     0x0000000000000000      0x663 C:\TMP\cc2bNxHl.debug.temp.o
 .comment       0x0000000000000000       0x12 C:\TMP\cc2bNxHl.debug.temp.o
 .comment       0x0000000000000000       0x12 C:\TMP\cczM7AUL.debug.temp.o
 .comment       0x0000000000000000       0x12 C:\TMP\cc4xew4f.debug.temp.o
 .comment       0x0000000000000000       0x12 C:\TMP\ccDNrH0J.debug.temp.o
 .comment       0x0000000000000000       0x12 C:\TMP\ccGs61ne.debug.temp.o
 .comment       0x0000000000000000       0x12 C:\TMP\ccVNdUBI.debug.temp.o
 .comment       0x0000000000000000       0x12 C:\TMP\ccmvJWWb.debug.temp.o
 .comment       0x0000000000000000       0x12 C:\TMP\cc57r9lF.debug.temp.o
 .comment       0x0000000000000000       0x12 C:\TMP\ccgBOmc9.debug.temp.o
 .comment       0x0000000000000000       0x12 C:\TMP\ccx74YOC.debug.temp.o
 .comment       0x0000000000000000       0x12 C:\TMP\ccQmIlX4.debug.temp.o
 .debug_info    0x0000000000000000      0xcde C:\TMP\ccBsZIwx.debug.temp.o
 .debug_abbrev  0x0000000000000000      0x25a C:\TMP\ccBsZIwx.debug.temp.o
 .debug_line    0x0000000000000000      0x263 C:\TMP\ccBsZIwx.debug.temp.o
 .debug_str     0x0000000000000000      0x9ec C:\TMP\ccBsZIwx.debug.temp.o
 .comment       0x0000000000000000       0x12 C:\TMP\ccBsZIwx.debug.temp.o
 .comment       0x0000000000000000       0x12 C:\TMP\ccAjjb1Z.debug.temp.o
 .debug_info    0x0000000000000000      0xdd8 C:\TMP\ccJVM3zs.debug.temp.o
 .debug_abbrev  0x0000000000000000      0x254 C:\TMP\ccJVM3zs.debug.temp.o
 .debug_line    0x0000000000000000      0x2d7 C:\TMP\ccJVM3zs.debug.temp.o
 .debug_str     0x0000000000000000      0xc0d C:\TMP\ccJVM3zs.debug.temp.o
 .comment       0x0000000000000000       0x12 C:\TMP\ccJVM3zs.debug.temp.o
 .comment       0x0000000000000000       0x12 C:\TMP\ccWTU55Y.debug.temp.o
 .comment       0x0000000000000000       0x12 C:\TMP\ccjveFsv.debug.temp.o
 .comment       0x0000000000000000       0x12 C:\TMP\cca0sfg2.debug.temp.o
 .comment       0x0000000000000000       0x12 C:\TMP\cc9ASeQy.debug.temp.o
 .comment       0x0000000000000000       0x12 C:\TMP\ccgq56w4.debug.temp.o
 .comment       0x0000000000000000       0x12 C:\TMP\ccREJ8EA.debug.temp.o
 .debug_info    0x0000000000000000      0xfc7 C:\TMP\ccE5mQD6.debug.temp.o
 .debug_abbrev  0x0000000000000000      0x29a C:\TMP\ccE5mQD6.debug.temp.o
 .debug_line    0x0000000000000000      0x2b0 C:\TMP\ccE5mQD6.debug.temp.o
 .debug_str     0x0000000000000000      0xd3f C:\TMP\ccE5mQD6.debug.temp.o
 .comment       0x0000000000000000       0x12 C:\TMP\ccE5mQD6.debug.temp.o
 .comment       0x0000000000000000       0x12 C:\TMP\cczImPGC.debug.temp.o
 .debug_info    0x0000000000000000     0x1f12 C:\TMP\ccqRnCV7.debug.temp.o
 .debug_abbrev  0x0000000000000000      0x310 C:\TMP\ccqRnCV7.debug.temp.o
 .debug_line    0x0000000000000000      0x378 C:\TMP\ccqRnCV7.debug.temp.o
 .debug_str     0x0000000000000000     0x15ac C:\TMP\ccqRnCV7.debug.temp.o
 .comment       0x0000000000000000       0x12 C:\TMP\ccqRnCV7.debug.temp.o
 .debug_info    0x0000000000000000      0x9ea C:\TMP\cctkmYeD.debug.temp.o
 .debug_abbrev  0x0000000000000000      0x203 C:\TMP\cctkmYeD.debug.temp.o
 .debug_line    0x0000000000000000      0x15c C:\TMP\cctkmYeD.debug.temp.o
 .debug_str     0x0000000000000000      0x6a3 C:\TMP\cctkmYeD.debug.temp.o
 .comment       0x0000000000000000       0x12 C:\TMP\cctkmYeD.debug.temp.o
 .debug_info    0x0000000000000000      0xb34 C:\TMP\ccAhrAk8.debug.temp.o
 .debug_abbrev  0x0000000000000000      0x261 C:\TMP\ccAhrAk8.debug.temp.o
 .debug_line    0x0000000000000000      0x268 C:\TMP\ccAhrAk8.debug.temp.o
 .debug_str     0x0000000000000000      0x812 C:\TMP\ccAhrAk8.debug.temp.o
 .comment       0x0000000000000000       0x12 C:\TMP\ccAhrAk8.debug.temp.o
 .debug_info    0x0000000000000000     0x138f C:\TMP\cc7vm4QD.debug.temp.o
 .debug_abbrev  0x0000000000000000      0x250 C:\TMP\cc7vm4QD.debug.temp.o
 .debug_line    0x0000000000000000      0x2e7 C:\TMP\cc7vm4QD.debug.temp.o
 .debug_str     0x0000000000000000      0xbd9 C:\TMP\cc7vm4QD.debug.temp.o
 .comment       0x0000000000000000       0x12 C:\TMP\cc7vm4QD.debug.temp.o
 .debug_info    0x0000000000000000     0x181e C:\TMP\ccSZxee9.debug.temp.o
 .debug_abbrev  0x0000000000000000      0x2c8 C:\TMP\ccSZxee9.debug.temp.o
 .debug_line    0x0000000000000000      0x300 C:\TMP\ccSZxee9.debug.temp.o
 .debug_str     0x0000000000000000      0xf79 C:\TMP\ccSZxee9.debug.temp.o
 .comment       0x0000000000000000       0x12 C:\TMP\ccSZxee9.debug.temp.o
 .debug_info    0x0000000000000000      0xba7 C:\TMP\ccTTeYFE.debug.temp.o
 .debug_abbrev  0x0000000000000000      0x263 C:\TMP\ccTTeYFE.debug.temp.o
 .debug_line    0x0000000000000000      0x275 C:\TMP\ccTTeYFE.debug.temp.o
 .debug_str     0x0000000000000000      0x75d C:\TMP\ccTTeYFE.debug.temp.o
 .comment       0x0000000000000000       0x12 C:\TMP\ccTTeYFE.debug.temp.o
 .comment       0x0000000000000000       0x12 C:\TMP\cc0YrAe9.debug.temp.o
 .debug_info    0x0000000000000000       0xa2 C:\TMP\ccBt6leE.debug.temp.o
 .debug_abbrev  0x0000000000000000       0x5f C:\TMP\ccBt6leE.debug.temp.o
 .debug_line    0x0000000000000000      0x14a C:\TMP\ccBt6leE.debug.temp.o
 .debug_str     0x0000000000000000      0x278 C:\TMP\ccBt6leE.debug.temp.o
 .comment       0x0000000000000000       0x12 C:\TMP\ccBt6leE.debug.temp.o
 .comment       0x0000000000000000       0x12 C:\TMP\ccgsRn08.debug.temp.o
 .comment       0x0000000000000000       0x12 C:\TMP\cc5pPHNH.debug.temp.o
 .comment       0x0000000000000000       0x12 C:\TMP\ccaeaowg.debug.temp.o
 .comment       0x0000000000000000       0x12 C:\TMP\ccLsaXFP.debug.temp.o
 .comment       0x0000000000000000       0x12 C:\TMP\ccm5ILBo.debug.temp.o
 .comment       0x0000000000000000       0x12 C:\TMP\ccViTVNW.debug.temp.o
 .comment       0x0000000000000000       0x12 C:\TMP\ccIhQUQu.debug.temp.o
 .comment       0x0000000000000000       0x12 C:\TMP\ccVxDLk3.debug.temp.o
 .comment       0x0000000000000000       0x12 C:\TMP\cckCR2SB.debug.temp.o
 .debug_info    0x0000000000000000     0x1049 C:\TMP\ccXrS8ha.debug.temp.o
 .debug_abbrev  0x0000000000000000      0x280 C:\TMP\ccXrS8ha.debug.temp.o
 .debug_line    0x0000000000000000      0x3b7 C:\TMP\ccXrS8ha.debug.temp.o
 .debug_str     0x0000000000000000     0x114e C:\TMP\ccXrS8ha.debug.temp.o
 .comment       0x0000000000000000       0x12 C:\TMP\ccXrS8ha.debug.temp.o
 .debug_info    0x0000000000000000      0xba7 C:\TMP\cco7kaTH.debug.temp.o
 .debug_abbrev  0x0000000000000000      0x21b C:\TMP\cco7kaTH.debug.temp.o
 .debug_line    0x0000000000000000      0x206 C:\TMP\cco7kaTH.debug.temp.o
 .debug_str     0x0000000000000000      0xb21 C:\TMP\cco7kaTH.debug.temp.o
 .comment       0x0000000000000000       0x12 C:\TMP\cco7kaTH.debug.temp.o
 .comment       0x0000000000000000       0x12 C:\TMP\ccZxXByf.debug.temp.o
 .comment       0x0000000000000000       0x12 C:\TMP\ccKBLA4M.debug.temp.o
 .debug_info    0x0000000000000000      0x99a C:\TMP\cc17hJ1k.debug.temp.o
 .debug_abbrev  0x0000000000000000      0x1e4 C:\TMP\cc17hJ1k.debug.temp.o
 .debug_line    0x0000000000000000      0x1cf C:\TMP\cc17hJ1k.debug.temp.o
 .debug_str     0x0000000000000000      0x6ef C:\TMP\cc17hJ1k.debug.temp.o
 .comment       0x0000000000000000       0x12 C:\TMP\cc17hJ1k.debug.temp.o
 .debug_info    0x0000000000000000      0x99a C:\TMP\ccsnFKYS.debug.temp.o
 .debug_abbrev  0x0000000000000000      0x1e4 C:\TMP\ccsnFKYS.debug.temp.o
 .debug_line    0x0000000000000000      0x1cf C:\TMP\ccsnFKYS.debug.temp.o
 .debug_str     0x0000000000000000      0x6e5 C:\TMP\ccsnFKYS.debug.temp.o
 .comment       0x0000000000000000       0x12 C:\TMP\ccsnFKYS.debug.temp.o
 .comment       0x0000000000000000       0x12 C:\TMP\cc5ivjMq.debug.temp.o
 .comment       0x0000000000000000       0x12 C:\TMP\ccGPWdQX.debug.temp.o
 .debug_info    0x0000000000000000      0xb5d C:\TMP\ccv7aXKu.debug.temp.o
 .debug_abbrev  0x0000000000000000      0x272 C:\TMP\ccv7aXKu.debug.temp.o
 .debug_line    0x0000000000000000      0x34b C:\TMP\ccv7aXKu.debug.temp.o
 .debug_str     0x0000000000000000      0x88a C:\TMP\ccv7aXKu.debug.temp.o
 .comment       0x0000000000000000       0x12 C:\TMP\ccv7aXKu.debug.temp.o
 .comment       0x0000000000000000       0x12 C:\TMP\ccMJwy61.debug.temp.o
 .comment       0x0000000000000000       0x12 C:\TMP\cc5MHpez.debug.temp.o
 .comment       0x0000000000000000       0x12 C:\TMP\ccq9fqja.debug.temp.o
 .comment       0x0000000000000000       0x12 C:\TMP\ccVgYQsL.debug.temp.o
 .comment       0x0000000000000000       0x12 C:\TMP\ccE7pPsm.debug.temp.o
 .comment       0x0000000000000000       0x12 C:\TMP\ccPOvOTX.debug.temp.o
 .debug_info    0x0000000000000000      0xe7a C:\TMP\cc4vec7y.debug.temp.o
 .debug_abbrev  0x0000000000000000      0x201 C:\TMP\cc4vec7y.debug.temp.o
 .debug_line    0x0000000000000000      0x24f C:\TMP\cc4vec7y.debug.temp.o
 .debug_str     0x0000000000000000      0xbef C:\TMP\cc4vec7y.debug.temp.o
 .comment       0x0000000000000000       0x12 C:\TMP\cc4vec7y.debug.temp.o
 .comment       0x0000000000000000       0x12 C:\TMP\cchQRsF9.debug.temp.o
 .comment       0x0000000000000000       0x12 C:\TMP\ccITeh4J.debug.temp.o
 .comment       0x0000000000000000       0x12 C:\TMP\ccjILvxk.debug.temp.o
 .comment       0x0000000000000000       0x12 C:\TMP\ccoWJTrV.debug.temp.o
 .comment       0x0000000000000000       0x12 C:\TMP\ccxEOx8v.debug.temp.o
 .comment       0x0000000000000000       0x12 C:\TMP\ccAlqo55.debug.temp.o
 .debug_info    0x0000000000000000      0xb3b C:\TMP\ccPQsF6F.debug.temp.o
 .debug_abbrev  0x0000000000000000      0x212 C:\TMP\ccPQsF6F.debug.temp.o
 .debug_line    0x0000000000000000      0x22c C:\TMP\ccPQsF6F.debug.temp.o
 .debug_str     0x0000000000000000      0x764 C:\TMP\ccPQsF6F.debug.temp.o
 .comment       0x0000000000000000       0x12 C:\TMP\ccPQsF6F.debug.temp.o
 .debug_info    0x0000000000000000      0xd34 C:\TMP\ccmdQLYf.debug.temp.o
 .debug_abbrev  0x0000000000000000      0x221 C:\TMP\ccmdQLYf.debug.temp.o
 .debug_line    0x0000000000000000      0x1c2 C:\TMP\ccmdQLYf.debug.temp.o
 .debug_str     0x0000000000000000      0xa3f C:\TMP\ccmdQLYf.debug.temp.o
 .comment       0x0000000000000000       0x12 C:\TMP\ccmdQLYf.debug.temp.o
 .comment       0x0000000000000000       0x12 C:\TMP\ccbFHsdQ.debug.temp.o
 .comment       0x0000000000000000       0x12 C:\TMP\ccaKKGiq.debug.temp.o
 .comment       0x0000000000000000       0x12 C:\TMP\cclDels0.debug.temp.o
 .debug_info    0x0000000000000000     0x2009 C:\TMP\ccuDQtSz.debug.temp.o
 .debug_abbrev  0x0000000000000000      0x314 C:\TMP\ccuDQtSz.debug.temp.o
 .debug_line    0x0000000000000000      0x31c C:\TMP\ccuDQtSz.debug.temp.o
 .debug_str     0x0000000000000000     0x17c5 C:\TMP\ccuDQtSz.debug.temp.o
 .comment       0x0000000000000000       0x12 C:\TMP\ccuDQtSz.debug.temp.o
 .debug_info    0x0000000000000000     0x1e56 C:\TMP\ccNelC48.debug.temp.o
 .debug_abbrev  0x0000000000000000      0x333 C:\TMP\ccNelC48.debug.temp.o
 .debug_line    0x0000000000000000      0x307 C:\TMP\ccNelC48.debug.temp.o
 .debug_str     0x0000000000000000     0x1433 C:\TMP\ccNelC48.debug.temp.o
 .comment       0x0000000000000000       0x12 C:\TMP\ccNelC48.debug.temp.o
 .comment       0x0000000000000000       0x12 C:\TMP\ccyGtLHI.debug.temp.o
 .comment       0x0000000000000000       0x12 C:\TMP\ccxToJbi.debug.temp.o
 .comment       0x0000000000000000       0x12 C:\TMP\ccIUK7JR.debug.temp.o
 .comment       0x0000000000000000       0x12 C:\TMP\ccHlJXav.debug.temp.o
 .comment       0x0000000000000000       0x12 C:\TMP\ccW4eus8.debug.temp.o
 .comment       0x0000000000000000       0x12 C:\TMP\ccFdcabM.debug.temp.o
 .debug_info    0x0000000000000000      0x982 C:\TMP\ccy7igYp.debug.temp.o
 .debug_abbrev  0x0000000000000000      0x1e4 C:\TMP\ccy7igYp.debug.temp.o
 .debug_line    0x0000000000000000      0x2a1 C:\TMP\ccy7igYp.debug.temp.o
 .debug_str     0x0000000000000000      0x6ea C:\TMP\ccy7igYp.debug.temp.o
 .comment       0x0000000000000000       0x12 C:\TMP\ccy7igYp.debug.temp.o
 .comment       0x0000000000000000       0x12 C:\TMP\ccDHSTB3.debug.temp.o
 .comment       0x0000000000000000       0x12 C:\TMP\ccu4CsrG.debug.temp.o
 .comment       0x0000000000000000       0x12 C:\TMP\ccBfrQ7i.debug.temp.o
 .comment       0x0000000000000000       0x12 C:\TMP\cc8H55eW.debug.temp.o
 .comment       0x0000000000000000       0x12 C:\TMP\ccR0tjvz.debug.temp.o
 .comment       0x0000000000000000       0x12 C:\TMP\ccQ7VlCc.debug.temp.o
 .comment       0x0000000000000000       0x12 C:\TMP\ccB1yjVO.debug.temp.o
 .comment       0x0000000000000000       0x12 C:\TMP\ccAEVO4q.debug.temp.o
 .comment       0x0000000000000000       0x12 C:\TMP\cc17VkF3.debug.temp.o
 .comment       0x0000000000000000       0x12 C:\TMP\ccEVTpkG.debug.temp.o
 .comment       0x0000000000000000       0x12 C:\TMP\ccRB2MMi.debug.temp.o
 .comment       0x0000000000000000       0x12 C:\TMP\cc2U52zU.debug.temp.o
 .comment       0x0000000000000000       0x12 C:\TMP\ccNaYIAw.debug.temp.o
 .comment       0x0000000000000000       0x12 C:\TMP\ccEjLGq8.debug.temp.o
 .comment       0x0000000000000000       0x12 C:\TMP\cc5y6UmK.debug.temp.o
 .comment       0x0000000000000000       0x12 C:\TMP\ccEeB2fq.debug.temp.o
 .comment       0x0000000000000000       0x12 C:\TMP\ccp64PZ5.debug.temp.o
 .comment       0x0000000000000000       0x12 C:\TMP\ccuCQm6L.debug.temp.o
 .comment       0x0000000000000000       0x12 C:\TMP\ccLW2jhs.debug.temp.o
 .comment       0x0000000000000000       0x12 C:\TMP\cceXHOi8.debug.temp.o
 .debug_info    0x0000000000000000      0xdd4 C:\TMP\cctKxewN.debug.temp.o
 .debug_abbrev  0x0000000000000000      0x2d9 C:\TMP\cctKxewN.debug.temp.o
 .debug_line    0x0000000000000000      0x25f C:\TMP\cctKxewN.debug.temp.o
 .debug_str     0x0000000000000000      0x84e C:\TMP\cctKxewN.debug.temp.o
 .comment       0x0000000000000000       0x12 C:\TMP\cctKxewN.debug.temp.o
 .comment       0x0000000000000000       0x12 C:\TMP\ccYlrtAs.debug.temp.o
 .comment       0x0000000000000000       0x12 C:\TMP\ccZTwJ57.debug.temp.o
 .comment       0x0000000000000000       0x12 C:\TMP\cc8DYgFN.debug.temp.o
 .comment       0x0000000000000000       0x12 C:\TMP\ccpsyW0s.debug.temp.o
 .comment       0x0000000000000000       0x12 C:\TMP\ccItO6C7.debug.temp.o
 .comment       0x0000000000000000       0x12 C:\TMP\cc9cXGjM.debug.temp.o
 .comment       0x0000000000000000       0x12 C:\TMP\ccMCyOQq.debug.temp.o
 .comment       0x0000000000000000       0x12 C:\TMP\ccH7DwK5.debug.temp.o
 .comment       0x0000000000000000       0x12 C:\TMP\ccQZXNIK.debug.temp.o
 .debug_info    0x0000000000000000     0x1966 C:\TMP\ccb4gLxp.debug.temp.o
 .debug_abbrev  0x0000000000000000      0x2d4 C:\TMP\ccb4gLxp.debug.temp.o
 .debug_line    0x0000000000000000      0x223 C:\TMP\ccb4gLxp.debug.temp.o
 .debug_str     0x0000000000000000      0x86a C:\TMP\ccb4gLxp.debug.temp.o
 .comment       0x0000000000000000       0x12 C:\TMP\ccb4gLxp.debug.temp.o
 .comment       0x0000000000000000       0x12 C:\TMP\ccipevy3.debug.temp.o
 .comment       0x0000000000000000       0x12 C:\TMP\ccBWaVpH.debug.temp.o
 .debug_info    0x0000000000000000     0x1149 C:\TMP\ccsZ6uIl.debug.temp.o
 .debug_abbrev  0x0000000000000000      0x2dd C:\TMP\ccsZ6uIl.debug.temp.o
 .debug_line    0x0000000000000000      0x322 C:\TMP\ccsZ6uIl.debug.temp.o
 .debug_str     0x0000000000000000      0xaa5 C:\TMP\ccsZ6uIl.debug.temp.o
 .comment       0x0000000000000000       0x12 C:\TMP\ccsZ6uIl.debug.temp.o
 .debug_info    0x0000000000000000      0x9cf C:\TMP\ccvIvCRZ.debug.temp.o
 .debug_abbrev  0x0000000000000000      0x1d8 C:\TMP\ccvIvCRZ.debug.temp.o
 .debug_line    0x0000000000000000      0x1d0 C:\TMP\ccvIvCRZ.debug.temp.o
 .debug_str     0x0000000000000000      0x6e8 C:\TMP\ccvIvCRZ.debug.temp.o
 .comment       0x0000000000000000       0x12 C:\TMP\ccvIvCRZ.debug.temp.o
 .debug_info    0x0000000000000000       0x1d C:\TMP\ccybuKXH.debug.temp.o
 .debug_abbrev  0x0000000000000000       0x10 C:\TMP\ccybuKXH.debug.temp.o
 .debug_line    0x0000000000000000       0x1e C:\TMP\ccybuKXH.debug.temp.o
 .debug_str     0x0000000000000000      0x1df C:\TMP\ccybuKXH.debug.temp.o
 .comment       0x0000000000000000       0x12 C:\TMP\ccybuKXH.debug.temp.o
 .comment       0x0000000000000000       0x12 C:\TMP\ccNYpr8p.debug.temp.o
 .comment       0x0000000000000000       0x12 C:\TMP\ccg3Ule8.debug.temp.o
 .comment       0x0000000000000000       0x12 C:\TMP\cc1GnIGQ.debug.temp.o
 .comment       0x0000000000000000       0x12 C:\TMP\ccYwPKZy.debug.temp.o
 .comment       0x0000000000000000       0x12 C:\TMP\ccVwGhzg.debug.temp.o
 .comment       0x0000000000000000       0x12 C:\TMP\cc2hHedY.debug.temp.o
 .comment       0x0000000000000000       0x12 C:\TMP\cclJaJHF.debug.temp.o
 .comment       0x0000000000000000       0x12 C:\TMP\cccGDnDn.debug.temp.o
 .comment       0x0000000000000000       0x12 C:\TMP\cc53Vhl5.debug.temp.o
 .comment       0x0000000000000000       0x12 C:\TMP\ccWwjpjM.debug.temp.o
 .debug_info    0x0000000000000000     0x1e75 C:\TMP\ccX8oc8s.debug.temp.o
 .debug_abbrev  0x0000000000000000      0x359 C:\TMP\ccX8oc8s.debug.temp.o
 .debug_line    0x0000000000000000      0x487 C:\TMP\ccX8oc8s.debug.temp.o
 .debug_str     0x0000000000000000     0x14d9 C:\TMP\ccX8oc8s.debug.temp.o
 .comment       0x0000000000000000       0x12 C:\TMP\ccX8oc8s.debug.temp.o
 .debug_info    0x0000000000000000     0x1357 C:\TMP\ccudd9na.debug.temp.o
 .debug_abbrev  0x0000000000000000      0x265 C:\TMP\ccudd9na.debug.temp.o
 .debug_line    0x0000000000000000      0x2a4 C:\TMP\ccudd9na.debug.temp.o
 .debug_str     0x0000000000000000      0xc84 C:\TMP\ccudd9na.debug.temp.o
 .comment       0x0000000000000000       0x12 C:\TMP\ccudd9na.debug.temp.o
 .comment       0x0000000000000000       0x12 C:\TMP\cc9XAYDR.debug.temp.o
 .debug_info    0x0000000000000000     0x13d7 C:\TMP\ccYlalKy.debug.temp.o
 .debug_abbrev  0x0000000000000000      0x26f C:\TMP\ccYlalKy.debug.temp.o
 .debug_line    0x0000000000000000      0x32f C:\TMP\ccYlalKy.debug.temp.o
 .debug_str     0x0000000000000000      0xd45 C:\TMP\ccYlalKy.debug.temp.o
 .comment       0x0000000000000000       0x12 C:\TMP\ccYlalKy.debug.temp.o
 .comment       0x0000000000000000       0x12 C:\TMP\ccZxa8Uf.debug.temp.o
 .comment       0x0000000000000000       0x12 C:\TMP\ccYQipmW.debug.temp.o
 .comment       0x0000000000000000       0x12 C:\TMP\cc1DxWzC.debug.temp.o
 .comment       0x0000000000000000       0x12 C:\TMP\ccIzkMij.debug.temp.o
 .comment       0x0000000000000000       0x12 C:\TMP\ccFjbrSZ.debug.temp.o
 .comment       0x0000000000000000       0x12 C:\TMP\ccybxXoK.debug.temp.o
 .comment       0x0000000000000000       0x12 C:\TMP\ccvxZJHu.debug.temp.o
 .comment       0x0000000000000000       0x12 C:\TMP\ccWiTFrf.debug.temp.o
 .text          0x0000000000000000        0x0 build/objs/ci130x_vtable.o
 .data          0x0000000000000000        0x0 build/objs/ci130x_vtable.o
 .bss           0x0000000000000000        0x0 build/objs/ci130x_vtable.o
 .debug_line    0x0000000000000000       0x51 build/objs/ci130x_vtable.o
 .debug_info    0x0000000000000000       0x26 build/objs/ci130x_vtable.o
 .debug_abbrev  0x0000000000000000       0x14 build/objs/ci130x_vtable.o
 .debug_aranges
                0x0000000000000000       0x20 build/objs/ci130x_vtable.o
 .debug_str     0x0000000000000000       0xb8 build/objs/ci130x_vtable.o
 .riscv.attributes
                0x0000000000000000       0x2e build/objs/ci130x_vtable.o
 .text          0x0000000000000000        0x0 build/objs/ci130x_startup.o
 .data          0x0000000000000000        0x0 build/objs/ci130x_startup.o
 .bss           0x0000000000000000        0x0 build/objs/ci130x_startup.o
 .text          0x0000000000000000        0x0 ../../../libs\libnewlib_port.a(sbrk.o)
 .data          0x0000000000000000        0x0 ../../../libs\libnewlib_port.a(sbrk.o)
 .bss           0x0000000000000000        0x0 ../../../libs\libnewlib_port.a(sbrk.o)
 .text.__env_lock
                0x0000000000000000       0x18 ../../../libs\libnewlib_port.a(sbrk.o)
 .text.__env_unlock
                0x0000000000000000       0x18 ../../../libs\libnewlib_port.a(sbrk.o)
 .text.__wrap__malloc_r
                0x0000000000000000       0x1c ../../../libs\libnewlib_port.a(sbrk.o)
 .text.__wrap__free_r
                0x0000000000000000       0x1c ../../../libs\libnewlib_port.a(sbrk.o)
 .text.__wrap_strcat
                0x0000000000000000       0x18 ../../../libs\libnewlib_port.a(sbrk.o)
 .text.__wrap_strcpy
                0x0000000000000000       0x18 ../../../libs\libnewlib_port.a(sbrk.o)
 .text.__wrap_strlen
                0x0000000000000000       0x18 ../../../libs\libnewlib_port.a(sbrk.o)
 .text.__wrap_strncat
                0x0000000000000000       0x18 ../../../libs\libnewlib_port.a(sbrk.o)
 .text.__wrap_strncmp
                0x0000000000000000       0x18 ../../../libs\libnewlib_port.a(sbrk.o)
 .text.__wrap_strncpy
                0x0000000000000000       0x18 ../../../libs\libnewlib_port.a(sbrk.o)
 .text.__wrap_strstr
                0x0000000000000000       0x18 ../../../libs\libnewlib_port.a(sbrk.o)
 .text.__wrap_stpcpy
                0x0000000000000000       0x18 ../../../libs\libnewlib_port.a(sbrk.o)
 .text.__wrap_stpncpy
                0x0000000000000000       0x18 ../../../libs\libnewlib_port.a(sbrk.o)
 .text.__wrap_strnlen
                0x0000000000000000       0x18 ../../../libs\libnewlib_port.a(sbrk.o)
 .text.__wrap_strtoul
                0x0000000000000000       0x1a ../../../libs\libnewlib_port.a(sbrk.o)
 .text.__wrap_atol
                0x0000000000000000       0x1a ../../../libs\libnewlib_port.a(sbrk.o)
 .text.__wrap_qsort
                0x0000000000000000       0x1a ../../../libs\libnewlib_port.a(sbrk.o)
 .text.__wrap_vsnprintf
                0x0000000000000000       0x1a ../../../libs\libnewlib_port.a(sbrk.o)
 .text.__wrap_sprintf
                0x0000000000000000       0x1a ../../../libs\libnewlib_port.a(sbrk.o)
 .text.__wrap_abs
                0x0000000000000000       0x1a ../../../libs\libnewlib_port.a(sbrk.o)
 .text.__wrap_isnan
                0x0000000000000000       0x1a ../../../libs\libnewlib_port.a(sbrk.o)
 .text.__wrap_isinf
                0x0000000000000000       0x1a ../../../libs\libnewlib_port.a(sbrk.o)
 .text.__wrap_cosf
                0x0000000000000000       0x1a ../../../libs\libnewlib_port.a(sbrk.o)
 .text.__wrap_sinf
                0x0000000000000000       0x1a ../../../libs\libnewlib_port.a(sbrk.o)
 .text.__wrap_tanf
                0x0000000000000000       0x1a ../../../libs\libnewlib_port.a(sbrk.o)
 .text.__wrap_expf
                0x0000000000000000       0x1a ../../../libs\libnewlib_port.a(sbrk.o)
 .text.__wrap_sqrtf
                0x0000000000000000       0x1a ../../../libs\libnewlib_port.a(sbrk.o)
 .text.__wrap_logf
                0x0000000000000000       0x1a ../../../libs\libnewlib_port.a(sbrk.o)
 .text.__wrap_log10f
                0x0000000000000000       0x1a ../../../libs\libnewlib_port.a(sbrk.o)
 .text.__wrap_atoi
                0x0000000000000000       0x38 ../../../libs\libnewlib_port.a(sbrk.o)
 .text          0x0000000000000000        0x0 ../../../libs\libfreertos_port.a(portasm.o)
 .data          0x0000000000000000        0x0 ../../../libs\libfreertos_port.a(portasm.o)
 .bss           0x0000000000000000        0x0 ../../../libs\libfreertos_port.a(portasm.o)
 .data          0x0000000000000000        0x0 d:/software/yuyin/qiqiyinqiluntai/riscv-nuclei-elf-gcc-9.2.0.0/gcc_fix_raissrc/bin/../lib/gcc/riscv-nuclei-elf/9.2.0/rv32imafc/ilp32f\libgcc.a(save-restore.o)
 .bss           0x0000000000000000        0x0 d:/software/yuyin/qiqiyinqiluntai/riscv-nuclei-elf-gcc-9.2.0.0/gcc_fix_raissrc/bin/../lib/gcc/riscv-nuclei-elf/9.2.0/rv32imafc/ilp32f\libgcc.a(save-restore.o)
 .eh_frame      0x0000000000000000       0xf8 d:/software/yuyin/qiqiyinqiluntai/riscv-nuclei-elf-gcc-9.2.0.0/gcc_fix_raissrc/bin/../lib/gcc/riscv-nuclei-elf/9.2.0/rv32imafc/ilp32f\libgcc.a(save-restore.o)
 .data          0x0000000000000000        0x0 d:/software/yuyin/qiqiyinqiluntai/riscv-nuclei-elf-gcc-9.2.0.0/gcc_fix_raissrc/bin/../lib/gcc/riscv-nuclei-elf/9.2.0/rv32imafc/ilp32f\libgcc.a(adddf3.o)
 .bss           0x0000000000000000        0x0 d:/software/yuyin/qiqiyinqiluntai/riscv-nuclei-elf-gcc-9.2.0.0/gcc_fix_raissrc/bin/../lib/gcc/riscv-nuclei-elf/9.2.0/rv32imafc/ilp32f\libgcc.a(adddf3.o)
 .data          0x0000000000000000        0x0 d:/software/yuyin/qiqiyinqiluntai/riscv-nuclei-elf-gcc-9.2.0.0/gcc_fix_raissrc/bin/../lib/gcc/riscv-nuclei-elf/9.2.0/rv32imafc/ilp32f\libgcc.a(divdf3.o)
 .bss           0x0000000000000000        0x0 d:/software/yuyin/qiqiyinqiluntai/riscv-nuclei-elf-gcc-9.2.0.0/gcc_fix_raissrc/bin/../lib/gcc/riscv-nuclei-elf/9.2.0/rv32imafc/ilp32f\libgcc.a(divdf3.o)
 .data          0x0000000000000000        0x0 d:/software/yuyin/qiqiyinqiluntai/riscv-nuclei-elf-gcc-9.2.0.0/gcc_fix_raissrc/bin/../lib/gcc/riscv-nuclei-elf/9.2.0/rv32imafc/ilp32f\libgcc.a(eqdf2.o)
 .bss           0x0000000000000000        0x0 d:/software/yuyin/qiqiyinqiluntai/riscv-nuclei-elf-gcc-9.2.0.0/gcc_fix_raissrc/bin/../lib/gcc/riscv-nuclei-elf/9.2.0/rv32imafc/ilp32f\libgcc.a(eqdf2.o)
 .data          0x0000000000000000        0x0 d:/software/yuyin/qiqiyinqiluntai/riscv-nuclei-elf-gcc-9.2.0.0/gcc_fix_raissrc/bin/../lib/gcc/riscv-nuclei-elf/9.2.0/rv32imafc/ilp32f\libgcc.a(gedf2.o)
 .bss           0x0000000000000000        0x0 d:/software/yuyin/qiqiyinqiluntai/riscv-nuclei-elf-gcc-9.2.0.0/gcc_fix_raissrc/bin/../lib/gcc/riscv-nuclei-elf/9.2.0/rv32imafc/ilp32f\libgcc.a(gedf2.o)
 .data          0x0000000000000000        0x0 d:/software/yuyin/qiqiyinqiluntai/riscv-nuclei-elf-gcc-9.2.0.0/gcc_fix_raissrc/bin/../lib/gcc/riscv-nuclei-elf/9.2.0/rv32imafc/ilp32f\libgcc.a(ledf2.o)
 .bss           0x0000000000000000        0x0 d:/software/yuyin/qiqiyinqiluntai/riscv-nuclei-elf-gcc-9.2.0.0/gcc_fix_raissrc/bin/../lib/gcc/riscv-nuclei-elf/9.2.0/rv32imafc/ilp32f\libgcc.a(ledf2.o)
 .data          0x0000000000000000        0x0 d:/software/yuyin/qiqiyinqiluntai/riscv-nuclei-elf-gcc-9.2.0.0/gcc_fix_raissrc/bin/../lib/gcc/riscv-nuclei-elf/9.2.0/rv32imafc/ilp32f\libgcc.a(muldf3.o)
 .bss           0x0000000000000000        0x0 d:/software/yuyin/qiqiyinqiluntai/riscv-nuclei-elf-gcc-9.2.0.0/gcc_fix_raissrc/bin/../lib/gcc/riscv-nuclei-elf/9.2.0/rv32imafc/ilp32f\libgcc.a(muldf3.o)
 .data          0x0000000000000000        0x0 d:/software/yuyin/qiqiyinqiluntai/riscv-nuclei-elf-gcc-9.2.0.0/gcc_fix_raissrc/bin/../lib/gcc/riscv-nuclei-elf/9.2.0/rv32imafc/ilp32f\libgcc.a(subdf3.o)
 .bss           0x0000000000000000        0x0 d:/software/yuyin/qiqiyinqiluntai/riscv-nuclei-elf-gcc-9.2.0.0/gcc_fix_raissrc/bin/../lib/gcc/riscv-nuclei-elf/9.2.0/rv32imafc/ilp32f\libgcc.a(subdf3.o)
 .data          0x0000000000000000        0x0 d:/software/yuyin/qiqiyinqiluntai/riscv-nuclei-elf-gcc-9.2.0.0/gcc_fix_raissrc/bin/../lib/gcc/riscv-nuclei-elf/9.2.0/rv32imafc/ilp32f\libgcc.a(unorddf2.o)
 .bss           0x0000000000000000        0x0 d:/software/yuyin/qiqiyinqiluntai/riscv-nuclei-elf-gcc-9.2.0.0/gcc_fix_raissrc/bin/../lib/gcc/riscv-nuclei-elf/9.2.0/rv32imafc/ilp32f\libgcc.a(unorddf2.o)
 .data          0x0000000000000000        0x0 d:/software/yuyin/qiqiyinqiluntai/riscv-nuclei-elf-gcc-9.2.0.0/gcc_fix_raissrc/bin/../lib/gcc/riscv-nuclei-elf/9.2.0/rv32imafc/ilp32f\libgcc.a(fixdfsi.o)
 .bss           0x0000000000000000        0x0 d:/software/yuyin/qiqiyinqiluntai/riscv-nuclei-elf-gcc-9.2.0.0/gcc_fix_raissrc/bin/../lib/gcc/riscv-nuclei-elf/9.2.0/rv32imafc/ilp32f\libgcc.a(fixdfsi.o)
 .data          0x0000000000000000        0x0 d:/software/yuyin/qiqiyinqiluntai/riscv-nuclei-elf-gcc-9.2.0.0/gcc_fix_raissrc/bin/../lib/gcc/riscv-nuclei-elf/9.2.0/rv32imafc/ilp32f\libgcc.a(floatsidf.o)
 .bss           0x0000000000000000        0x0 d:/software/yuyin/qiqiyinqiluntai/riscv-nuclei-elf-gcc-9.2.0.0/gcc_fix_raissrc/bin/../lib/gcc/riscv-nuclei-elf/9.2.0/rv32imafc/ilp32f\libgcc.a(floatsidf.o)
 .data          0x0000000000000000        0x0 d:/software/yuyin/qiqiyinqiluntai/riscv-nuclei-elf-gcc-9.2.0.0/gcc_fix_raissrc/bin/../lib/gcc/riscv-nuclei-elf/9.2.0/rv32imafc/ilp32f\libgcc.a(extendsfdf2.o)
 .bss           0x0000000000000000        0x0 d:/software/yuyin/qiqiyinqiluntai/riscv-nuclei-elf-gcc-9.2.0.0/gcc_fix_raissrc/bin/../lib/gcc/riscv-nuclei-elf/9.2.0/rv32imafc/ilp32f\libgcc.a(extendsfdf2.o)
 .data          0x0000000000000000        0x0 d:/software/yuyin/qiqiyinqiluntai/riscv-nuclei-elf-gcc-9.2.0.0/gcc_fix_raissrc/bin/../lib/gcc/riscv-nuclei-elf/9.2.0/rv32imafc/ilp32f\libgcc.a(truncdfsf2.o)
 .bss           0x0000000000000000        0x0 d:/software/yuyin/qiqiyinqiluntai/riscv-nuclei-elf-gcc-9.2.0.0/gcc_fix_raissrc/bin/../lib/gcc/riscv-nuclei-elf/9.2.0/rv32imafc/ilp32f\libgcc.a(truncdfsf2.o)
 .data          0x0000000000000000        0x0 d:/software/yuyin/qiqiyinqiluntai/riscv-nuclei-elf-gcc-9.2.0.0/gcc_fix_raissrc/bin/../lib/gcc/riscv-nuclei-elf/9.2.0/rv32imafc/ilp32f\libgcc.a(_clzsi2.o)
 .bss           0x0000000000000000        0x0 d:/software/yuyin/qiqiyinqiluntai/riscv-nuclei-elf-gcc-9.2.0.0/gcc_fix_raissrc/bin/../lib/gcc/riscv-nuclei-elf/9.2.0/rv32imafc/ilp32f\libgcc.a(_clzsi2.o)
 .text          0x0000000000000000        0x0 d:/software/yuyin/qiqiyinqiluntai/riscv-nuclei-elf-gcc-9.2.0.0/gcc_fix_raissrc/bin/../lib/gcc/riscv-nuclei-elf/9.2.0/rv32imafc/ilp32f\libgcc.a(_clz.o)
 .data          0x0000000000000000        0x0 d:/software/yuyin/qiqiyinqiluntai/riscv-nuclei-elf-gcc-9.2.0.0/gcc_fix_raissrc/bin/../lib/gcc/riscv-nuclei-elf/9.2.0/rv32imafc/ilp32f\libgcc.a(_clz.o)
 .bss           0x0000000000000000        0x0 d:/software/yuyin/qiqiyinqiluntai/riscv-nuclei-elf-gcc-9.2.0.0/gcc_fix_raissrc/bin/../lib/gcc/riscv-nuclei-elf/9.2.0/rv32imafc/ilp32f\libgcc.a(_clz.o)
 .text          0x0000000000000000        0x0 d:/software/yuyin/qiqiyinqiluntai/riscv-nuclei-elf-gcc-9.2.0.0/gcc_fix_raissrc/bin/../lib/gcc/riscv-nuclei-elf/9.2.0/../../../../riscv-nuclei-elf/lib/rv32imafc/ilp32f\libg_nano.a(lib_a-atexit.o)
 .data          0x0000000000000000        0x0 d:/software/yuyin/qiqiyinqiluntai/riscv-nuclei-elf-gcc-9.2.0.0/gcc_fix_raissrc/bin/../lib/gcc/riscv-nuclei-elf/9.2.0/../../../../riscv-nuclei-elf/lib/rv32imafc/ilp32f\libg_nano.a(lib_a-atexit.o)
 .bss           0x0000000000000000        0x0 d:/software/yuyin/qiqiyinqiluntai/riscv-nuclei-elf-gcc-9.2.0.0/gcc_fix_raissrc/bin/../lib/gcc/riscv-nuclei-elf/9.2.0/../../../../riscv-nuclei-elf/lib/rv32imafc/ilp32f\libg_nano.a(lib_a-atexit.o)
 .text          0x0000000000000000        0x0 d:/software/yuyin/qiqiyinqiluntai/riscv-nuclei-elf-gcc-9.2.0.0/gcc_fix_raissrc/bin/../lib/gcc/riscv-nuclei-elf/9.2.0/../../../../riscv-nuclei-elf/lib/rv32imafc/ilp32f\libg_nano.a(lib_a-exit.o)
 .data          0x0000000000000000        0x0 d:/software/yuyin/qiqiyinqiluntai/riscv-nuclei-elf-gcc-9.2.0.0/gcc_fix_raissrc/bin/../lib/gcc/riscv-nuclei-elf/9.2.0/../../../../riscv-nuclei-elf/lib/rv32imafc/ilp32f\libg_nano.a(lib_a-exit.o)
 .bss           0x0000000000000000        0x0 d:/software/yuyin/qiqiyinqiluntai/riscv-nuclei-elf-gcc-9.2.0.0/gcc_fix_raissrc/bin/../lib/gcc/riscv-nuclei-elf/9.2.0/../../../../riscv-nuclei-elf/lib/rv32imafc/ilp32f\libg_nano.a(lib_a-exit.o)
 .text          0x0000000000000000        0x0 d:/software/yuyin/qiqiyinqiluntai/riscv-nuclei-elf-gcc-9.2.0.0/gcc_fix_raissrc/bin/../lib/gcc/riscv-nuclei-elf/9.2.0/../../../../riscv-nuclei-elf/lib/rv32imafc/ilp32f\libg_nano.a(lib_a-fini.o)
 .data          0x0000000000000000        0x0 d:/software/yuyin/qiqiyinqiluntai/riscv-nuclei-elf-gcc-9.2.0.0/gcc_fix_raissrc/bin/../lib/gcc/riscv-nuclei-elf/9.2.0/../../../../riscv-nuclei-elf/lib/rv32imafc/ilp32f\libg_nano.a(lib_a-fini.o)
 .bss           0x0000000000000000        0x0 d:/software/yuyin/qiqiyinqiluntai/riscv-nuclei-elf-gcc-9.2.0.0/gcc_fix_raissrc/bin/../lib/gcc/riscv-nuclei-elf/9.2.0/../../../../riscv-nuclei-elf/lib/rv32imafc/ilp32f\libg_nano.a(lib_a-fini.o)
 .text          0x0000000000000000        0x0 d:/software/yuyin/qiqiyinqiluntai/riscv-nuclei-elf-gcc-9.2.0.0/gcc_fix_raissrc/bin/../lib/gcc/riscv-nuclei-elf/9.2.0/../../../../riscv-nuclei-elf/lib/rv32imafc/ilp32f\libg_nano.a(lib_a-impure.o)
 .data          0x0000000000000000        0x0 d:/software/yuyin/qiqiyinqiluntai/riscv-nuclei-elf-gcc-9.2.0.0/gcc_fix_raissrc/bin/../lib/gcc/riscv-nuclei-elf/9.2.0/../../../../riscv-nuclei-elf/lib/rv32imafc/ilp32f\libg_nano.a(lib_a-impure.o)
 .bss           0x0000000000000000        0x0 d:/software/yuyin/qiqiyinqiluntai/riscv-nuclei-elf-gcc-9.2.0.0/gcc_fix_raissrc/bin/../lib/gcc/riscv-nuclei-elf/9.2.0/../../../../riscv-nuclei-elf/lib/rv32imafc/ilp32f\libg_nano.a(lib_a-impure.o)
 .text          0x0000000000000000        0x0 d:/software/yuyin/qiqiyinqiluntai/riscv-nuclei-elf-gcc-9.2.0.0/gcc_fix_raissrc/bin/../lib/gcc/riscv-nuclei-elf/9.2.0/../../../../riscv-nuclei-elf/lib/rv32imafc/ilp32f\libg_nano.a(lib_a-init.o)
 .data          0x0000000000000000        0x0 d:/software/yuyin/qiqiyinqiluntai/riscv-nuclei-elf-gcc-9.2.0.0/gcc_fix_raissrc/bin/../lib/gcc/riscv-nuclei-elf/9.2.0/../../../../riscv-nuclei-elf/lib/rv32imafc/ilp32f\libg_nano.a(lib_a-init.o)
 .bss           0x0000000000000000        0x0 d:/software/yuyin/qiqiyinqiluntai/riscv-nuclei-elf-gcc-9.2.0.0/gcc_fix_raissrc/bin/../lib/gcc/riscv-nuclei-elf/9.2.0/../../../../riscv-nuclei-elf/lib/rv32imafc/ilp32f\libg_nano.a(lib_a-init.o)
 .text          0x0000000000000000        0x0 d:/software/yuyin/qiqiyinqiluntai/riscv-nuclei-elf-gcc-9.2.0.0/gcc_fix_raissrc/bin/../lib/gcc/riscv-nuclei-elf/9.2.0/../../../../riscv-nuclei-elf/lib/rv32imafc/ilp32f\libg_nano.a(lib_a-rand.o)
 .data          0x0000000000000000        0x0 d:/software/yuyin/qiqiyinqiluntai/riscv-nuclei-elf-gcc-9.2.0.0/gcc_fix_raissrc/bin/../lib/gcc/riscv-nuclei-elf/9.2.0/../../../../riscv-nuclei-elf/lib/rv32imafc/ilp32f\libg_nano.a(lib_a-rand.o)
 .bss           0x0000000000000000        0x0 d:/software/yuyin/qiqiyinqiluntai/riscv-nuclei-elf-gcc-9.2.0.0/gcc_fix_raissrc/bin/../lib/gcc/riscv-nuclei-elf/9.2.0/../../../../riscv-nuclei-elf/lib/rv32imafc/ilp32f\libg_nano.a(lib_a-rand.o)
 .text.srand    0x0000000000000000       0x60 d:/software/yuyin/qiqiyinqiluntai/riscv-nuclei-elf-gcc-9.2.0.0/gcc_fix_raissrc/bin/../lib/gcc/riscv-nuclei-elf/9.2.0/../../../../riscv-nuclei-elf/lib/rv32imafc/ilp32f\libg_nano.a(lib_a-rand.o)
 .text.rand     0x0000000000000000       0x8e d:/software/yuyin/qiqiyinqiluntai/riscv-nuclei-elf-gcc-9.2.0.0/gcc_fix_raissrc/bin/../lib/gcc/riscv-nuclei-elf/9.2.0/../../../../riscv-nuclei-elf/lib/rv32imafc/ilp32f\libg_nano.a(lib_a-rand.o)
 .comment       0x0000000000000000       0x12 d:/software/yuyin/qiqiyinqiluntai/riscv-nuclei-elf-gcc-9.2.0.0/gcc_fix_raissrc/bin/../lib/gcc/riscv-nuclei-elf/9.2.0/../../../../riscv-nuclei-elf/lib/rv32imafc/ilp32f\libg_nano.a(lib_a-rand.o)
 .riscv.attributes
                0x0000000000000000       0x30 d:/software/yuyin/qiqiyinqiluntai/riscv-nuclei-elf-gcc-9.2.0.0/gcc_fix_raissrc/bin/../lib/gcc/riscv-nuclei-elf/9.2.0/../../../../riscv-nuclei-elf/lib/rv32imafc/ilp32f\libg_nano.a(lib_a-rand.o)
 .text          0x0000000000000000        0x0 d:/software/yuyin/qiqiyinqiluntai/riscv-nuclei-elf-gcc-9.2.0.0/gcc_fix_raissrc/bin/../lib/gcc/riscv-nuclei-elf/9.2.0/../../../../riscv-nuclei-elf/lib/rv32imafc/ilp32f\libg_nano.a(lib_a-__atexit.o)
 .data          0x0000000000000000        0x0 d:/software/yuyin/qiqiyinqiluntai/riscv-nuclei-elf-gcc-9.2.0.0/gcc_fix_raissrc/bin/../lib/gcc/riscv-nuclei-elf/9.2.0/../../../../riscv-nuclei-elf/lib/rv32imafc/ilp32f\libg_nano.a(lib_a-__atexit.o)
 .bss           0x0000000000000000        0x0 d:/software/yuyin/qiqiyinqiluntai/riscv-nuclei-elf-gcc-9.2.0.0/gcc_fix_raissrc/bin/../lib/gcc/riscv-nuclei-elf/9.2.0/../../../../riscv-nuclei-elf/lib/rv32imafc/ilp32f\libg_nano.a(lib_a-__atexit.o)
 .sdata.__atexit_dummy
                0x0000000000000000        0x4 d:/software/yuyin/qiqiyinqiluntai/riscv-nuclei-elf-gcc-9.2.0.0/gcc_fix_raissrc/bin/../lib/gcc/riscv-nuclei-elf/9.2.0/../../../../riscv-nuclei-elf/lib/rv32imafc/ilp32f\libg_nano.a(lib_a-__atexit.o)
 .text          0x0000000000000000        0x0 d:/software/yuyin/qiqiyinqiluntai/riscv-nuclei-elf-gcc-9.2.0.0/gcc_fix_raissrc/bin/../lib/gcc/riscv-nuclei-elf/9.2.0/../../../../riscv-nuclei-elf/lib/rv32imafc/ilp32f\libg_nano.a(lib_a-__call_atexit.o)
 .data          0x0000000000000000        0x0 d:/software/yuyin/qiqiyinqiluntai/riscv-nuclei-elf-gcc-9.2.0.0/gcc_fix_raissrc/bin/../lib/gcc/riscv-nuclei-elf/9.2.0/../../../../riscv-nuclei-elf/lib/rv32imafc/ilp32f\libg_nano.a(lib_a-__call_atexit.o)
 .bss           0x0000000000000000        0x0 d:/software/yuyin/qiqiyinqiluntai/riscv-nuclei-elf-gcc-9.2.0.0/gcc_fix_raissrc/bin/../lib/gcc/riscv-nuclei-elf/9.2.0/../../../../riscv-nuclei-elf/lib/rv32imafc/ilp32f\libg_nano.a(lib_a-__call_atexit.o)
 .text          0x0000000000000000        0x0 d:/software/yuyin/qiqiyinqiluntai/riscv-nuclei-elf-gcc-9.2.0.0/gcc_fix_raissrc/bin/../lib/gcc/riscv-nuclei-elf/9.2.0/../../../../riscv-nuclei-elf/lib/rv32imafc/ilp32f\libg_nano.a(lib_a-calloc.o)
 .data          0x0000000000000000        0x0 d:/software/yuyin/qiqiyinqiluntai/riscv-nuclei-elf-gcc-9.2.0.0/gcc_fix_raissrc/bin/../lib/gcc/riscv-nuclei-elf/9.2.0/../../../../riscv-nuclei-elf/lib/rv32imafc/ilp32f\libg_nano.a(lib_a-calloc.o)
 .bss           0x0000000000000000        0x0 d:/software/yuyin/qiqiyinqiluntai/riscv-nuclei-elf-gcc-9.2.0.0/gcc_fix_raissrc/bin/../lib/gcc/riscv-nuclei-elf/9.2.0/../../../../riscv-nuclei-elf/lib/rv32imafc/ilp32f\libg_nano.a(lib_a-calloc.o)
 .text          0x0000000000000000        0x0 d:/software/yuyin/qiqiyinqiluntai/riscv-nuclei-elf-gcc-9.2.0.0/gcc_fix_raissrc/bin/../lib/gcc/riscv-nuclei-elf/9.2.0/../../../../riscv-nuclei-elf/lib/rv32imafc/ilp32f\libg_nano.a(lib_a-fprintf.o)
 .data          0x0000000000000000        0x0 d:/software/yuyin/qiqiyinqiluntai/riscv-nuclei-elf-gcc-9.2.0.0/gcc_fix_raissrc/bin/../lib/gcc/riscv-nuclei-elf/9.2.0/../../../../riscv-nuclei-elf/lib/rv32imafc/ilp32f\libg_nano.a(lib_a-fprintf.o)
 .bss           0x0000000000000000        0x0 d:/software/yuyin/qiqiyinqiluntai/riscv-nuclei-elf-gcc-9.2.0.0/gcc_fix_raissrc/bin/../lib/gcc/riscv-nuclei-elf/9.2.0/../../../../riscv-nuclei-elf/lib/rv32imafc/ilp32f\libg_nano.a(lib_a-fprintf.o)
 .text._fprintf_r
                0x0000000000000000       0x20 d:/software/yuyin/qiqiyinqiluntai/riscv-nuclei-elf-gcc-9.2.0.0/gcc_fix_raissrc/bin/../lib/gcc/riscv-nuclei-elf/9.2.0/../../../../riscv-nuclei-elf/lib/rv32imafc/ilp32f\libg_nano.a(lib_a-fprintf.o)
 .text          0x0000000000000000        0x0 d:/software/yuyin/qiqiyinqiluntai/riscv-nuclei-elf-gcc-9.2.0.0/gcc_fix_raissrc/bin/../lib/gcc/riscv-nuclei-elf/9.2.0/../../../../riscv-nuclei-elf/lib/rv32imafc/ilp32f\libg_nano.a(lib_a-nano-callocr.o)
 .data          0x0000000000000000        0x0 d:/software/yuyin/qiqiyinqiluntai/riscv-nuclei-elf-gcc-9.2.0.0/gcc_fix_raissrc/bin/../lib/gcc/riscv-nuclei-elf/9.2.0/../../../../riscv-nuclei-elf/lib/rv32imafc/ilp32f\libg_nano.a(lib_a-nano-callocr.o)
 .bss           0x0000000000000000        0x0 d:/software/yuyin/qiqiyinqiluntai/riscv-nuclei-elf-gcc-9.2.0.0/gcc_fix_raissrc/bin/../lib/gcc/riscv-nuclei-elf/9.2.0/../../../../riscv-nuclei-elf/lib/rv32imafc/ilp32f\libg_nano.a(lib_a-nano-callocr.o)
 .text          0x0000000000000000        0x0 d:/software/yuyin/qiqiyinqiluntai/riscv-nuclei-elf-gcc-9.2.0.0/gcc_fix_raissrc/bin/../lib/gcc/riscv-nuclei-elf/9.2.0/../../../../riscv-nuclei-elf/lib/rv32imafc/ilp32f\libg_nano.a(lib_a-nano-mallocr.o)
 .data          0x0000000000000000        0x0 d:/software/yuyin/qiqiyinqiluntai/riscv-nuclei-elf-gcc-9.2.0.0/gcc_fix_raissrc/bin/../lib/gcc/riscv-nuclei-elf/9.2.0/../../../../riscv-nuclei-elf/lib/rv32imafc/ilp32f\libg_nano.a(lib_a-nano-mallocr.o)
 .bss           0x0000000000000000        0x0 d:/software/yuyin/qiqiyinqiluntai/riscv-nuclei-elf-gcc-9.2.0.0/gcc_fix_raissrc/bin/../lib/gcc/riscv-nuclei-elf/9.2.0/../../../../riscv-nuclei-elf/lib/rv32imafc/ilp32f\libg_nano.a(lib_a-nano-mallocr.o)
 .text          0x0000000000000000        0x0 d:/software/yuyin/qiqiyinqiluntai/riscv-nuclei-elf-gcc-9.2.0.0/gcc_fix_raissrc/bin/../lib/gcc/riscv-nuclei-elf/9.2.0/../../../../riscv-nuclei-elf/lib/rv32imafc/ilp32f\libg_nano.a(lib_a-nano-vfprintf.o)
 .data          0x0000000000000000        0x0 d:/software/yuyin/qiqiyinqiluntai/riscv-nuclei-elf-gcc-9.2.0.0/gcc_fix_raissrc/bin/../lib/gcc/riscv-nuclei-elf/9.2.0/../../../../riscv-nuclei-elf/lib/rv32imafc/ilp32f\libg_nano.a(lib_a-nano-vfprintf.o)
 .bss           0x0000000000000000        0x0 d:/software/yuyin/qiqiyinqiluntai/riscv-nuclei-elf-gcc-9.2.0.0/gcc_fix_raissrc/bin/../lib/gcc/riscv-nuclei-elf/9.2.0/../../../../riscv-nuclei-elf/lib/rv32imafc/ilp32f\libg_nano.a(lib_a-nano-vfprintf.o)
 .text.__sprint_r
                0x0000000000000000       0x2c d:/software/yuyin/qiqiyinqiluntai/riscv-nuclei-elf-gcc-9.2.0.0/gcc_fix_raissrc/bin/../lib/gcc/riscv-nuclei-elf/9.2.0/../../../../riscv-nuclei-elf/lib/rv32imafc/ilp32f\libg_nano.a(lib_a-nano-vfprintf.o)
 .text.vfprintf
                0x0000000000000000       0x16 d:/software/yuyin/qiqiyinqiluntai/riscv-nuclei-elf-gcc-9.2.0.0/gcc_fix_raissrc/bin/../lib/gcc/riscv-nuclei-elf/9.2.0/../../../../riscv-nuclei-elf/lib/rv32imafc/ilp32f\libg_nano.a(lib_a-nano-vfprintf.o)
 .text          0x0000000000000000        0x0 d:/software/yuyin/qiqiyinqiluntai/riscv-nuclei-elf-gcc-9.2.0.0/gcc_fix_raissrc/bin/../lib/gcc/riscv-nuclei-elf/9.2.0/../../../../riscv-nuclei-elf/lib/rv32imafc/ilp32f\libg_nano.a(lib_a-realloc.o)
 .data          0x0000000000000000        0x0 d:/software/yuyin/qiqiyinqiluntai/riscv-nuclei-elf-gcc-9.2.0.0/gcc_fix_raissrc/bin/../lib/gcc/riscv-nuclei-elf/9.2.0/../../../../riscv-nuclei-elf/lib/rv32imafc/ilp32f\libg_nano.a(lib_a-realloc.o)
 .bss           0x0000000000000000        0x0 d:/software/yuyin/qiqiyinqiluntai/riscv-nuclei-elf-gcc-9.2.0.0/gcc_fix_raissrc/bin/../lib/gcc/riscv-nuclei-elf/9.2.0/../../../../riscv-nuclei-elf/lib/rv32imafc/ilp32f\libg_nano.a(lib_a-realloc.o)
 .text          0x0000000000000000        0x0 d:/software/yuyin/qiqiyinqiluntai/riscv-nuclei-elf-gcc-9.2.0.0/gcc_fix_raissrc/bin/../lib/gcc/riscv-nuclei-elf/9.2.0/../../../../riscv-nuclei-elf/lib/rv32imafc/ilp32f\libg_nano.a(lib_a-sbrkr.o)
 .data          0x0000000000000000        0x0 d:/software/yuyin/qiqiyinqiluntai/riscv-nuclei-elf-gcc-9.2.0.0/gcc_fix_raissrc/bin/../lib/gcc/riscv-nuclei-elf/9.2.0/../../../../riscv-nuclei-elf/lib/rv32imafc/ilp32f\libg_nano.a(lib_a-sbrkr.o)
 .bss           0x0000000000000000        0x0 d:/software/yuyin/qiqiyinqiluntai/riscv-nuclei-elf-gcc-9.2.0.0/gcc_fix_raissrc/bin/../lib/gcc/riscv-nuclei-elf/9.2.0/../../../../riscv-nuclei-elf/lib/rv32imafc/ilp32f\libg_nano.a(lib_a-sbrkr.o)
 .text          0x0000000000000000        0x0 d:/software/yuyin/qiqiyinqiluntai/riscv-nuclei-elf-gcc-9.2.0.0/gcc_fix_raissrc/bin/../lib/gcc/riscv-nuclei-elf/9.2.0/../../../../riscv-nuclei-elf/lib/rv32imafc/ilp32f\libg_nano.a(lib_a-wbuf.o)
 .data          0x0000000000000000        0x0 d:/software/yuyin/qiqiyinqiluntai/riscv-nuclei-elf-gcc-9.2.0.0/gcc_fix_raissrc/bin/../lib/gcc/riscv-nuclei-elf/9.2.0/../../../../riscv-nuclei-elf/lib/rv32imafc/ilp32f\libg_nano.a(lib_a-wbuf.o)
 .bss           0x0000000000000000        0x0 d:/software/yuyin/qiqiyinqiluntai/riscv-nuclei-elf-gcc-9.2.0.0/gcc_fix_raissrc/bin/../lib/gcc/riscv-nuclei-elf/9.2.0/../../../../riscv-nuclei-elf/lib/rv32imafc/ilp32f\libg_nano.a(lib_a-wbuf.o)
 .text.__swbuf  0x0000000000000000       0x14 d:/software/yuyin/qiqiyinqiluntai/riscv-nuclei-elf-gcc-9.2.0.0/gcc_fix_raissrc/bin/../lib/gcc/riscv-nuclei-elf/9.2.0/../../../../riscv-nuclei-elf/lib/rv32imafc/ilp32f\libg_nano.a(lib_a-wbuf.o)
 .text          0x0000000000000000        0x0 d:/software/yuyin/qiqiyinqiluntai/riscv-nuclei-elf-gcc-9.2.0.0/gcc_fix_raissrc/bin/../lib/gcc/riscv-nuclei-elf/9.2.0/../../../../riscv-nuclei-elf/lib/rv32imafc/ilp32f\libg_nano.a(lib_a-wsetup.o)
 .data          0x0000000000000000        0x0 d:/software/yuyin/qiqiyinqiluntai/riscv-nuclei-elf-gcc-9.2.0.0/gcc_fix_raissrc/bin/../lib/gcc/riscv-nuclei-elf/9.2.0/../../../../riscv-nuclei-elf/lib/rv32imafc/ilp32f\libg_nano.a(lib_a-wsetup.o)
 .bss           0x0000000000000000        0x0 d:/software/yuyin/qiqiyinqiluntai/riscv-nuclei-elf-gcc-9.2.0.0/gcc_fix_raissrc/bin/../lib/gcc/riscv-nuclei-elf/9.2.0/../../../../riscv-nuclei-elf/lib/rv32imafc/ilp32f\libg_nano.a(lib_a-wsetup.o)
 .text          0x0000000000000000        0x0 d:/software/yuyin/qiqiyinqiluntai/riscv-nuclei-elf-gcc-9.2.0.0/gcc_fix_raissrc/bin/../lib/gcc/riscv-nuclei-elf/9.2.0/../../../../riscv-nuclei-elf/lib/rv32imafc/ilp32f\libg_nano.a(lib_a-fflush.o)
 .data          0x0000000000000000        0x0 d:/software/yuyin/qiqiyinqiluntai/riscv-nuclei-elf-gcc-9.2.0.0/gcc_fix_raissrc/bin/../lib/gcc/riscv-nuclei-elf/9.2.0/../../../../riscv-nuclei-elf/lib/rv32imafc/ilp32f\libg_nano.a(lib_a-fflush.o)
 .bss           0x0000000000000000        0x0 d:/software/yuyin/qiqiyinqiluntai/riscv-nuclei-elf-gcc-9.2.0.0/gcc_fix_raissrc/bin/../lib/gcc/riscv-nuclei-elf/9.2.0/../../../../riscv-nuclei-elf/lib/rv32imafc/ilp32f\libg_nano.a(lib_a-fflush.o)
 .text.fflush   0x0000000000000000       0x2c d:/software/yuyin/qiqiyinqiluntai/riscv-nuclei-elf-gcc-9.2.0.0/gcc_fix_raissrc/bin/../lib/gcc/riscv-nuclei-elf/9.2.0/../../../../riscv-nuclei-elf/lib/rv32imafc/ilp32f\libg_nano.a(lib_a-fflush.o)
 .text          0x0000000000000000        0x0 d:/software/yuyin/qiqiyinqiluntai/riscv-nuclei-elf-gcc-9.2.0.0/gcc_fix_raissrc/bin/../lib/gcc/riscv-nuclei-elf/9.2.0/../../../../riscv-nuclei-elf/lib/rv32imafc/ilp32f\libg_nano.a(lib_a-findfp.o)
 .data          0x0000000000000000        0x0 d:/software/yuyin/qiqiyinqiluntai/riscv-nuclei-elf-gcc-9.2.0.0/gcc_fix_raissrc/bin/../lib/gcc/riscv-nuclei-elf/9.2.0/../../../../riscv-nuclei-elf/lib/rv32imafc/ilp32f\libg_nano.a(lib_a-findfp.o)
 .bss           0x0000000000000000        0x0 d:/software/yuyin/qiqiyinqiluntai/riscv-nuclei-elf-gcc-9.2.0.0/gcc_fix_raissrc/bin/../lib/gcc/riscv-nuclei-elf/9.2.0/../../../../riscv-nuclei-elf/lib/rv32imafc/ilp32f\libg_nano.a(lib_a-findfp.o)
 .text.__fp_lock
                0x0000000000000000        0x4 d:/software/yuyin/qiqiyinqiluntai/riscv-nuclei-elf-gcc-9.2.0.0/gcc_fix_raissrc/bin/../lib/gcc/riscv-nuclei-elf/9.2.0/../../../../riscv-nuclei-elf/lib/rv32imafc/ilp32f\libg_nano.a(lib_a-findfp.o)
 .text.__fp_unlock
                0x0000000000000000        0x4 d:/software/yuyin/qiqiyinqiluntai/riscv-nuclei-elf-gcc-9.2.0.0/gcc_fix_raissrc/bin/../lib/gcc/riscv-nuclei-elf/9.2.0/../../../../riscv-nuclei-elf/lib/rv32imafc/ilp32f\libg_nano.a(lib_a-findfp.o)
 .text._cleanup
                0x0000000000000000       0x10 d:/software/yuyin/qiqiyinqiluntai/riscv-nuclei-elf-gcc-9.2.0.0/gcc_fix_raissrc/bin/../lib/gcc/riscv-nuclei-elf/9.2.0/../../../../riscv-nuclei-elf/lib/rv32imafc/ilp32f\libg_nano.a(lib_a-findfp.o)
 .text.__sfp_lock_acquire
                0x0000000000000000        0x2 d:/software/yuyin/qiqiyinqiluntai/riscv-nuclei-elf-gcc-9.2.0.0/gcc_fix_raissrc/bin/../lib/gcc/riscv-nuclei-elf/9.2.0/../../../../riscv-nuclei-elf/lib/rv32imafc/ilp32f\libg_nano.a(lib_a-findfp.o)
 .text.__sfp_lock_release
                0x0000000000000000        0x2 d:/software/yuyin/qiqiyinqiluntai/riscv-nuclei-elf-gcc-9.2.0.0/gcc_fix_raissrc/bin/../lib/gcc/riscv-nuclei-elf/9.2.0/../../../../riscv-nuclei-elf/lib/rv32imafc/ilp32f\libg_nano.a(lib_a-findfp.o)
 .text.__sinit_lock_acquire
                0x0000000000000000        0x2 d:/software/yuyin/qiqiyinqiluntai/riscv-nuclei-elf-gcc-9.2.0.0/gcc_fix_raissrc/bin/../lib/gcc/riscv-nuclei-elf/9.2.0/../../../../riscv-nuclei-elf/lib/rv32imafc/ilp32f\libg_nano.a(lib_a-findfp.o)
 .text.__sinit_lock_release
                0x0000000000000000        0x2 d:/software/yuyin/qiqiyinqiluntai/riscv-nuclei-elf-gcc-9.2.0.0/gcc_fix_raissrc/bin/../lib/gcc/riscv-nuclei-elf/9.2.0/../../../../riscv-nuclei-elf/lib/rv32imafc/ilp32f\libg_nano.a(lib_a-findfp.o)
 .text.__fp_lock_all
                0x0000000000000000       0x18 d:/software/yuyin/qiqiyinqiluntai/riscv-nuclei-elf-gcc-9.2.0.0/gcc_fix_raissrc/bin/../lib/gcc/riscv-nuclei-elf/9.2.0/../../../../riscv-nuclei-elf/lib/rv32imafc/ilp32f\libg_nano.a(lib_a-findfp.o)
 .text.__fp_unlock_all
                0x0000000000000000       0x18 d:/software/yuyin/qiqiyinqiluntai/riscv-nuclei-elf-gcc-9.2.0.0/gcc_fix_raissrc/bin/../lib/gcc/riscv-nuclei-elf/9.2.0/../../../../riscv-nuclei-elf/lib/rv32imafc/ilp32f\libg_nano.a(lib_a-findfp.o)
 .text          0x0000000000000000        0x0 d:/software/yuyin/qiqiyinqiluntai/riscv-nuclei-elf-gcc-9.2.0.0/gcc_fix_raissrc/bin/../lib/gcc/riscv-nuclei-elf/9.2.0/../../../../riscv-nuclei-elf/lib/rv32imafc/ilp32f\libg_nano.a(lib_a-fvwrite.o)
 .data          0x0000000000000000        0x0 d:/software/yuyin/qiqiyinqiluntai/riscv-nuclei-elf-gcc-9.2.0.0/gcc_fix_raissrc/bin/../lib/gcc/riscv-nuclei-elf/9.2.0/../../../../riscv-nuclei-elf/lib/rv32imafc/ilp32f\libg_nano.a(lib_a-fvwrite.o)
 .bss           0x0000000000000000        0x0 d:/software/yuyin/qiqiyinqiluntai/riscv-nuclei-elf-gcc-9.2.0.0/gcc_fix_raissrc/bin/../lib/gcc/riscv-nuclei-elf/9.2.0/../../../../riscv-nuclei-elf/lib/rv32imafc/ilp32f\libg_nano.a(lib_a-fvwrite.o)
 .text.__sfvwrite_r
                0x0000000000000000      0x316 d:/software/yuyin/qiqiyinqiluntai/riscv-nuclei-elf-gcc-9.2.0.0/gcc_fix_raissrc/bin/../lib/gcc/riscv-nuclei-elf/9.2.0/../../../../riscv-nuclei-elf/lib/rv32imafc/ilp32f\libg_nano.a(lib_a-fvwrite.o)
 .comment       0x0000000000000000       0x12 d:/software/yuyin/qiqiyinqiluntai/riscv-nuclei-elf-gcc-9.2.0.0/gcc_fix_raissrc/bin/../lib/gcc/riscv-nuclei-elf/9.2.0/../../../../riscv-nuclei-elf/lib/rv32imafc/ilp32f\libg_nano.a(lib_a-fvwrite.o)
 .riscv.attributes
                0x0000000000000000       0x30 d:/software/yuyin/qiqiyinqiluntai/riscv-nuclei-elf-gcc-9.2.0.0/gcc_fix_raissrc/bin/../lib/gcc/riscv-nuclei-elf/9.2.0/../../../../riscv-nuclei-elf/lib/rv32imafc/ilp32f\libg_nano.a(lib_a-fvwrite.o)
 .text          0x0000000000000000        0x0 d:/software/yuyin/qiqiyinqiluntai/riscv-nuclei-elf-gcc-9.2.0.0/gcc_fix_raissrc/bin/../lib/gcc/riscv-nuclei-elf/9.2.0/../../../../riscv-nuclei-elf/lib/rv32imafc/ilp32f\libg_nano.a(lib_a-fwalk.o)
 .data          0x0000000000000000        0x0 d:/software/yuyin/qiqiyinqiluntai/riscv-nuclei-elf-gcc-9.2.0.0/gcc_fix_raissrc/bin/../lib/gcc/riscv-nuclei-elf/9.2.0/../../../../riscv-nuclei-elf/lib/rv32imafc/ilp32f\libg_nano.a(lib_a-fwalk.o)
 .bss           0x0000000000000000        0x0 d:/software/yuyin/qiqiyinqiluntai/riscv-nuclei-elf-gcc-9.2.0.0/gcc_fix_raissrc/bin/../lib/gcc/riscv-nuclei-elf/9.2.0/../../../../riscv-nuclei-elf/lib/rv32imafc/ilp32f\libg_nano.a(lib_a-fwalk.o)
 .text._fwalk   0x0000000000000000       0x62 d:/software/yuyin/qiqiyinqiluntai/riscv-nuclei-elf-gcc-9.2.0.0/gcc_fix_raissrc/bin/../lib/gcc/riscv-nuclei-elf/9.2.0/../../../../riscv-nuclei-elf/lib/rv32imafc/ilp32f\libg_nano.a(lib_a-fwalk.o)
 .text          0x0000000000000000        0x0 d:/software/yuyin/qiqiyinqiluntai/riscv-nuclei-elf-gcc-9.2.0.0/gcc_fix_raissrc/bin/../lib/gcc/riscv-nuclei-elf/9.2.0/../../../../riscv-nuclei-elf/lib/rv32imafc/ilp32f\libg_nano.a(lib_a-makebuf.o)
 .data          0x0000000000000000        0x0 d:/software/yuyin/qiqiyinqiluntai/riscv-nuclei-elf-gcc-9.2.0.0/gcc_fix_raissrc/bin/../lib/gcc/riscv-nuclei-elf/9.2.0/../../../../riscv-nuclei-elf/lib/rv32imafc/ilp32f\libg_nano.a(lib_a-makebuf.o)
 .bss           0x0000000000000000        0x0 d:/software/yuyin/qiqiyinqiluntai/riscv-nuclei-elf-gcc-9.2.0.0/gcc_fix_raissrc/bin/../lib/gcc/riscv-nuclei-elf/9.2.0/../../../../riscv-nuclei-elf/lib/rv32imafc/ilp32f\libg_nano.a(lib_a-makebuf.o)
 .text          0x0000000000000000        0x0 d:/software/yuyin/qiqiyinqiluntai/riscv-nuclei-elf-gcc-9.2.0.0/gcc_fix_raissrc/bin/../lib/gcc/riscv-nuclei-elf/9.2.0/../../../../riscv-nuclei-elf/lib/rv32imafc/ilp32f\libg_nano.a(lib_a-memchr.o)
 .data          0x0000000000000000        0x0 d:/software/yuyin/qiqiyinqiluntai/riscv-nuclei-elf-gcc-9.2.0.0/gcc_fix_raissrc/bin/../lib/gcc/riscv-nuclei-elf/9.2.0/../../../../riscv-nuclei-elf/lib/rv32imafc/ilp32f\libg_nano.a(lib_a-memchr.o)
 .bss           0x0000000000000000        0x0 d:/software/yuyin/qiqiyinqiluntai/riscv-nuclei-elf-gcc-9.2.0.0/gcc_fix_raissrc/bin/../lib/gcc/riscv-nuclei-elf/9.2.0/../../../../riscv-nuclei-elf/lib/rv32imafc/ilp32f\libg_nano.a(lib_a-memchr.o)
 .text          0x0000000000000000        0x0 d:/software/yuyin/qiqiyinqiluntai/riscv-nuclei-elf-gcc-9.2.0.0/gcc_fix_raissrc/bin/../lib/gcc/riscv-nuclei-elf/9.2.0/../../../../riscv-nuclei-elf/lib/rv32imafc/ilp32f\libg_nano.a(lib_a-nano-freer.o)
 .data          0x0000000000000000        0x0 d:/software/yuyin/qiqiyinqiluntai/riscv-nuclei-elf-gcc-9.2.0.0/gcc_fix_raissrc/bin/../lib/gcc/riscv-nuclei-elf/9.2.0/../../../../riscv-nuclei-elf/lib/rv32imafc/ilp32f\libg_nano.a(lib_a-nano-freer.o)
 .bss           0x0000000000000000        0x0 d:/software/yuyin/qiqiyinqiluntai/riscv-nuclei-elf-gcc-9.2.0.0/gcc_fix_raissrc/bin/../lib/gcc/riscv-nuclei-elf/9.2.0/../../../../riscv-nuclei-elf/lib/rv32imafc/ilp32f\libg_nano.a(lib_a-nano-freer.o)
 .text          0x0000000000000000        0x0 d:/software/yuyin/qiqiyinqiluntai/riscv-nuclei-elf-gcc-9.2.0.0/gcc_fix_raissrc/bin/../lib/gcc/riscv-nuclei-elf/9.2.0/../../../../riscv-nuclei-elf/lib/rv32imafc/ilp32f\libg_nano.a(lib_a-nano-reallocr.o)
 .data          0x0000000000000000        0x0 d:/software/yuyin/qiqiyinqiluntai/riscv-nuclei-elf-gcc-9.2.0.0/gcc_fix_raissrc/bin/../lib/gcc/riscv-nuclei-elf/9.2.0/../../../../riscv-nuclei-elf/lib/rv32imafc/ilp32f\libg_nano.a(lib_a-nano-reallocr.o)
 .bss           0x0000000000000000        0x0 d:/software/yuyin/qiqiyinqiluntai/riscv-nuclei-elf-gcc-9.2.0.0/gcc_fix_raissrc/bin/../lib/gcc/riscv-nuclei-elf/9.2.0/../../../../riscv-nuclei-elf/lib/rv32imafc/ilp32f\libg_nano.a(lib_a-nano-reallocr.o)
 .text          0x0000000000000000        0x0 d:/software/yuyin/qiqiyinqiluntai/riscv-nuclei-elf-gcc-9.2.0.0/gcc_fix_raissrc/bin/../lib/gcc/riscv-nuclei-elf/9.2.0/../../../../riscv-nuclei-elf/lib/rv32imafc/ilp32f\libg_nano.a(lib_a-nano-vfprintf_i.o)
 .data          0x0000000000000000        0x0 d:/software/yuyin/qiqiyinqiluntai/riscv-nuclei-elf-gcc-9.2.0.0/gcc_fix_raissrc/bin/../lib/gcc/riscv-nuclei-elf/9.2.0/../../../../riscv-nuclei-elf/lib/rv32imafc/ilp32f\libg_nano.a(lib_a-nano-vfprintf_i.o)
 .bss           0x0000000000000000        0x0 d:/software/yuyin/qiqiyinqiluntai/riscv-nuclei-elf-gcc-9.2.0.0/gcc_fix_raissrc/bin/../lib/gcc/riscv-nuclei-elf/9.2.0/../../../../riscv-nuclei-elf/lib/rv32imafc/ilp32f\libg_nano.a(lib_a-nano-vfprintf_i.o)
 .text          0x0000000000000000        0x0 d:/software/yuyin/qiqiyinqiluntai/riscv-nuclei-elf-gcc-9.2.0.0/gcc_fix_raissrc/bin/../lib/gcc/riscv-nuclei-elf/9.2.0/../../../../riscv-nuclei-elf/lib/rv32imafc/ilp32f\libg_nano.a(lib_a-reent.o)
 .data          0x0000000000000000        0x0 d:/software/yuyin/qiqiyinqiluntai/riscv-nuclei-elf-gcc-9.2.0.0/gcc_fix_raissrc/bin/../lib/gcc/riscv-nuclei-elf/9.2.0/../../../../riscv-nuclei-elf/lib/rv32imafc/ilp32f\libg_nano.a(lib_a-reent.o)
 .bss           0x0000000000000000        0x0 d:/software/yuyin/qiqiyinqiluntai/riscv-nuclei-elf-gcc-9.2.0.0/gcc_fix_raissrc/bin/../lib/gcc/riscv-nuclei-elf/9.2.0/../../../../riscv-nuclei-elf/lib/rv32imafc/ilp32f\libg_nano.a(lib_a-reent.o)
 .text.cleanup_glue
                0x0000000000000000       0x2c d:/software/yuyin/qiqiyinqiluntai/riscv-nuclei-elf-gcc-9.2.0.0/gcc_fix_raissrc/bin/../lib/gcc/riscv-nuclei-elf/9.2.0/../../../../riscv-nuclei-elf/lib/rv32imafc/ilp32f\libg_nano.a(lib_a-reent.o)
 .text._reclaim_reent
                0x0000000000000000      0x10a d:/software/yuyin/qiqiyinqiluntai/riscv-nuclei-elf-gcc-9.2.0.0/gcc_fix_raissrc/bin/../lib/gcc/riscv-nuclei-elf/9.2.0/../../../../riscv-nuclei-elf/lib/rv32imafc/ilp32f\libg_nano.a(lib_a-reent.o)
 .text          0x0000000000000000        0x0 d:/software/yuyin/qiqiyinqiluntai/riscv-nuclei-elf-gcc-9.2.0.0/gcc_fix_raissrc/bin/../lib/gcc/riscv-nuclei-elf/9.2.0/../../../../riscv-nuclei-elf/lib/rv32imafc/ilp32f\libg_nano.a(lib_a-stdio.o)
 .data          0x0000000000000000        0x0 d:/software/yuyin/qiqiyinqiluntai/riscv-nuclei-elf-gcc-9.2.0.0/gcc_fix_raissrc/bin/../lib/gcc/riscv-nuclei-elf/9.2.0/../../../../riscv-nuclei-elf/lib/rv32imafc/ilp32f\libg_nano.a(lib_a-stdio.o)
 .bss           0x0000000000000000        0x0 d:/software/yuyin/qiqiyinqiluntai/riscv-nuclei-elf-gcc-9.2.0.0/gcc_fix_raissrc/bin/../lib/gcc/riscv-nuclei-elf/9.2.0/../../../../riscv-nuclei-elf/lib/rv32imafc/ilp32f\libg_nano.a(lib_a-stdio.o)
 .text.__seofread
                0x0000000000000000        0x4 d:/software/yuyin/qiqiyinqiluntai/riscv-nuclei-elf-gcc-9.2.0.0/gcc_fix_raissrc/bin/../lib/gcc/riscv-nuclei-elf/9.2.0/../../../../riscv-nuclei-elf/lib/rv32imafc/ilp32f\libg_nano.a(lib_a-stdio.o)
 .text          0x0000000000000000        0x0 d:/software/yuyin/qiqiyinqiluntai/riscv-nuclei-elf-gcc-9.2.0.0/gcc_fix_raissrc/bin/../lib/gcc/riscv-nuclei-elf/9.2.0/../../../../riscv-nuclei-elf/lib/rv32imafc/ilp32f\libg_nano.a(lib_a-writer.o)
 .data          0x0000000000000000        0x0 d:/software/yuyin/qiqiyinqiluntai/riscv-nuclei-elf-gcc-9.2.0.0/gcc_fix_raissrc/bin/../lib/gcc/riscv-nuclei-elf/9.2.0/../../../../riscv-nuclei-elf/lib/rv32imafc/ilp32f\libg_nano.a(lib_a-writer.o)
 .bss           0x0000000000000000        0x0 d:/software/yuyin/qiqiyinqiluntai/riscv-nuclei-elf-gcc-9.2.0.0/gcc_fix_raissrc/bin/../lib/gcc/riscv-nuclei-elf/9.2.0/../../../../riscv-nuclei-elf/lib/rv32imafc/ilp32f\libg_nano.a(lib_a-writer.o)
 .text          0x0000000000000000        0x0 d:/software/yuyin/qiqiyinqiluntai/riscv-nuclei-elf-gcc-9.2.0.0/gcc_fix_raissrc/bin/../lib/gcc/riscv-nuclei-elf/9.2.0/../../../../riscv-nuclei-elf/lib/rv32imafc/ilp32f\libg_nano.a(lib_a-closer.o)
 .data          0x0000000000000000        0x0 d:/software/yuyin/qiqiyinqiluntai/riscv-nuclei-elf-gcc-9.2.0.0/gcc_fix_raissrc/bin/../lib/gcc/riscv-nuclei-elf/9.2.0/../../../../riscv-nuclei-elf/lib/rv32imafc/ilp32f\libg_nano.a(lib_a-closer.o)
 .bss           0x0000000000000000        0x0 d:/software/yuyin/qiqiyinqiluntai/riscv-nuclei-elf-gcc-9.2.0.0/gcc_fix_raissrc/bin/../lib/gcc/riscv-nuclei-elf/9.2.0/../../../../riscv-nuclei-elf/lib/rv32imafc/ilp32f\libg_nano.a(lib_a-closer.o)
 .text          0x0000000000000000        0x0 d:/software/yuyin/qiqiyinqiluntai/riscv-nuclei-elf-gcc-9.2.0.0/gcc_fix_raissrc/bin/../lib/gcc/riscv-nuclei-elf/9.2.0/../../../../riscv-nuclei-elf/lib/rv32imafc/ilp32f\libg_nano.a(lib_a-fstatr.o)
 .data          0x0000000000000000        0x0 d:/software/yuyin/qiqiyinqiluntai/riscv-nuclei-elf-gcc-9.2.0.0/gcc_fix_raissrc/bin/../lib/gcc/riscv-nuclei-elf/9.2.0/../../../../riscv-nuclei-elf/lib/rv32imafc/ilp32f\libg_nano.a(lib_a-fstatr.o)
 .bss           0x0000000000000000        0x0 d:/software/yuyin/qiqiyinqiluntai/riscv-nuclei-elf-gcc-9.2.0.0/gcc_fix_raissrc/bin/../lib/gcc/riscv-nuclei-elf/9.2.0/../../../../riscv-nuclei-elf/lib/rv32imafc/ilp32f\libg_nano.a(lib_a-fstatr.o)
 .text          0x0000000000000000        0x0 d:/software/yuyin/qiqiyinqiluntai/riscv-nuclei-elf-gcc-9.2.0.0/gcc_fix_raissrc/bin/../lib/gcc/riscv-nuclei-elf/9.2.0/../../../../riscv-nuclei-elf/lib/rv32imafc/ilp32f\libg_nano.a(lib_a-isattyr.o)
 .data          0x0000000000000000        0x0 d:/software/yuyin/qiqiyinqiluntai/riscv-nuclei-elf-gcc-9.2.0.0/gcc_fix_raissrc/bin/../lib/gcc/riscv-nuclei-elf/9.2.0/../../../../riscv-nuclei-elf/lib/rv32imafc/ilp32f\libg_nano.a(lib_a-isattyr.o)
 .bss           0x0000000000000000        0x0 d:/software/yuyin/qiqiyinqiluntai/riscv-nuclei-elf-gcc-9.2.0.0/gcc_fix_raissrc/bin/../lib/gcc/riscv-nuclei-elf/9.2.0/../../../../riscv-nuclei-elf/lib/rv32imafc/ilp32f\libg_nano.a(lib_a-isattyr.o)
 .text          0x0000000000000000        0x0 d:/software/yuyin/qiqiyinqiluntai/riscv-nuclei-elf-gcc-9.2.0.0/gcc_fix_raissrc/bin/../lib/gcc/riscv-nuclei-elf/9.2.0/../../../../riscv-nuclei-elf/lib/rv32imafc/ilp32f\libg_nano.a(lib_a-lseekr.o)
 .data          0x0000000000000000        0x0 d:/software/yuyin/qiqiyinqiluntai/riscv-nuclei-elf-gcc-9.2.0.0/gcc_fix_raissrc/bin/../lib/gcc/riscv-nuclei-elf/9.2.0/../../../../riscv-nuclei-elf/lib/rv32imafc/ilp32f\libg_nano.a(lib_a-lseekr.o)
 .bss           0x0000000000000000        0x0 d:/software/yuyin/qiqiyinqiluntai/riscv-nuclei-elf-gcc-9.2.0.0/gcc_fix_raissrc/bin/../lib/gcc/riscv-nuclei-elf/9.2.0/../../../../riscv-nuclei-elf/lib/rv32imafc/ilp32f\libg_nano.a(lib_a-lseekr.o)
 .text          0x0000000000000000        0x0 d:/software/yuyin/qiqiyinqiluntai/riscv-nuclei-elf-gcc-9.2.0.0/gcc_fix_raissrc/bin/../lib/gcc/riscv-nuclei-elf/9.2.0/../../../../riscv-nuclei-elf/lib/rv32imafc/ilp32f\libg_nano.a(lib_a-nano-msizer.o)
 .data          0x0000000000000000        0x0 d:/software/yuyin/qiqiyinqiluntai/riscv-nuclei-elf-gcc-9.2.0.0/gcc_fix_raissrc/bin/../lib/gcc/riscv-nuclei-elf/9.2.0/../../../../riscv-nuclei-elf/lib/rv32imafc/ilp32f\libg_nano.a(lib_a-nano-msizer.o)
 .bss           0x0000000000000000        0x0 d:/software/yuyin/qiqiyinqiluntai/riscv-nuclei-elf-gcc-9.2.0.0/gcc_fix_raissrc/bin/../lib/gcc/riscv-nuclei-elf/9.2.0/../../../../riscv-nuclei-elf/lib/rv32imafc/ilp32f\libg_nano.a(lib_a-nano-msizer.o)
 .text          0x0000000000000000        0x0 d:/software/yuyin/qiqiyinqiluntai/riscv-nuclei-elf-gcc-9.2.0.0/gcc_fix_raissrc/bin/../lib/gcc/riscv-nuclei-elf/9.2.0/../../../../riscv-nuclei-elf/lib/rv32imafc/ilp32f\libg_nano.a(lib_a-readr.o)
 .data          0x0000000000000000        0x0 d:/software/yuyin/qiqiyinqiluntai/riscv-nuclei-elf-gcc-9.2.0.0/gcc_fix_raissrc/bin/../lib/gcc/riscv-nuclei-elf/9.2.0/../../../../riscv-nuclei-elf/lib/rv32imafc/ilp32f\libg_nano.a(lib_a-readr.o)
 .bss           0x0000000000000000        0x0 d:/software/yuyin/qiqiyinqiluntai/riscv-nuclei-elf-gcc-9.2.0.0/gcc_fix_raissrc/bin/../lib/gcc/riscv-nuclei-elf/9.2.0/../../../../riscv-nuclei-elf/lib/rv32imafc/ilp32f\libg_nano.a(lib_a-readr.o)
 .text          0x0000000000000000        0x0 d:/software/yuyin/qiqiyinqiluntai/riscv-nuclei-elf-gcc-9.2.0.0/gcc_fix_raissrc/bin/../lib/gcc/riscv-nuclei-elf/9.2.0/../../../../riscv-nuclei-elf/lib/rv32imafc/ilp32f\libgloss_nano.a(sys_exit.o)
 .data          0x0000000000000000        0x0 d:/software/yuyin/qiqiyinqiluntai/riscv-nuclei-elf-gcc-9.2.0.0/gcc_fix_raissrc/bin/../lib/gcc/riscv-nuclei-elf/9.2.0/../../../../riscv-nuclei-elf/lib/rv32imafc/ilp32f\libgloss_nano.a(sys_exit.o)
 .bss           0x0000000000000000        0x0 d:/software/yuyin/qiqiyinqiluntai/riscv-nuclei-elf-gcc-9.2.0.0/gcc_fix_raissrc/bin/../lib/gcc/riscv-nuclei-elf/9.2.0/../../../../riscv-nuclei-elf/lib/rv32imafc/ilp32f\libgloss_nano.a(sys_exit.o)
 .text          0x0000000000000000        0x0 d:/software/yuyin/qiqiyinqiluntai/riscv-nuclei-elf-gcc-9.2.0.0/gcc_fix_raissrc/bin/../lib/gcc/riscv-nuclei-elf/9.2.0/../../../../riscv-nuclei-elf/lib/rv32imafc/ilp32f\libgloss_nano.a(sys_close.o)
 .data          0x0000000000000000        0x0 d:/software/yuyin/qiqiyinqiluntai/riscv-nuclei-elf-gcc-9.2.0.0/gcc_fix_raissrc/bin/../lib/gcc/riscv-nuclei-elf/9.2.0/../../../../riscv-nuclei-elf/lib/rv32imafc/ilp32f\libgloss_nano.a(sys_close.o)
 .bss           0x0000000000000000        0x0 d:/software/yuyin/qiqiyinqiluntai/riscv-nuclei-elf-gcc-9.2.0.0/gcc_fix_raissrc/bin/../lib/gcc/riscv-nuclei-elf/9.2.0/../../../../riscv-nuclei-elf/lib/rv32imafc/ilp32f\libgloss_nano.a(sys_close.o)
 .text          0x0000000000000000        0x0 d:/software/yuyin/qiqiyinqiluntai/riscv-nuclei-elf-gcc-9.2.0.0/gcc_fix_raissrc/bin/../lib/gcc/riscv-nuclei-elf/9.2.0/../../../../riscv-nuclei-elf/lib/rv32imafc/ilp32f\libgloss_nano.a(sys_fstat.o)
 .data          0x0000000000000000        0x0 d:/software/yuyin/qiqiyinqiluntai/riscv-nuclei-elf-gcc-9.2.0.0/gcc_fix_raissrc/bin/../lib/gcc/riscv-nuclei-elf/9.2.0/../../../../riscv-nuclei-elf/lib/rv32imafc/ilp32f\libgloss_nano.a(sys_fstat.o)
 .bss           0x0000000000000000        0x0 d:/software/yuyin/qiqiyinqiluntai/riscv-nuclei-elf-gcc-9.2.0.0/gcc_fix_raissrc/bin/../lib/gcc/riscv-nuclei-elf/9.2.0/../../../../riscv-nuclei-elf/lib/rv32imafc/ilp32f\libgloss_nano.a(sys_fstat.o)
 .text          0x0000000000000000        0x0 d:/software/yuyin/qiqiyinqiluntai/riscv-nuclei-elf-gcc-9.2.0.0/gcc_fix_raissrc/bin/../lib/gcc/riscv-nuclei-elf/9.2.0/../../../../riscv-nuclei-elf/lib/rv32imafc/ilp32f\libgloss_nano.a(sys_isatty.o)
 .data          0x0000000000000000        0x0 d:/software/yuyin/qiqiyinqiluntai/riscv-nuclei-elf-gcc-9.2.0.0/gcc_fix_raissrc/bin/../lib/gcc/riscv-nuclei-elf/9.2.0/../../../../riscv-nuclei-elf/lib/rv32imafc/ilp32f\libgloss_nano.a(sys_isatty.o)
 .bss           0x0000000000000000        0x0 d:/software/yuyin/qiqiyinqiluntai/riscv-nuclei-elf-gcc-9.2.0.0/gcc_fix_raissrc/bin/../lib/gcc/riscv-nuclei-elf/9.2.0/../../../../riscv-nuclei-elf/lib/rv32imafc/ilp32f\libgloss_nano.a(sys_isatty.o)
 .text          0x0000000000000000        0x0 d:/software/yuyin/qiqiyinqiluntai/riscv-nuclei-elf-gcc-9.2.0.0/gcc_fix_raissrc/bin/../lib/gcc/riscv-nuclei-elf/9.2.0/../../../../riscv-nuclei-elf/lib/rv32imafc/ilp32f\libgloss_nano.a(sys_lseek.o)
 .data          0x0000000000000000        0x0 d:/software/yuyin/qiqiyinqiluntai/riscv-nuclei-elf-gcc-9.2.0.0/gcc_fix_raissrc/bin/../lib/gcc/riscv-nuclei-elf/9.2.0/../../../../riscv-nuclei-elf/lib/rv32imafc/ilp32f\libgloss_nano.a(sys_lseek.o)
 .bss           0x0000000000000000        0x0 d:/software/yuyin/qiqiyinqiluntai/riscv-nuclei-elf-gcc-9.2.0.0/gcc_fix_raissrc/bin/../lib/gcc/riscv-nuclei-elf/9.2.0/../../../../riscv-nuclei-elf/lib/rv32imafc/ilp32f\libgloss_nano.a(sys_lseek.o)
 .text          0x0000000000000000        0x0 d:/software/yuyin/qiqiyinqiluntai/riscv-nuclei-elf-gcc-9.2.0.0/gcc_fix_raissrc/bin/../lib/gcc/riscv-nuclei-elf/9.2.0/../../../../riscv-nuclei-elf/lib/rv32imafc/ilp32f\libgloss_nano.a(sys_read.o)
 .data          0x0000000000000000        0x0 d:/software/yuyin/qiqiyinqiluntai/riscv-nuclei-elf-gcc-9.2.0.0/gcc_fix_raissrc/bin/../lib/gcc/riscv-nuclei-elf/9.2.0/../../../../riscv-nuclei-elf/lib/rv32imafc/ilp32f\libgloss_nano.a(sys_read.o)
 .bss           0x0000000000000000        0x0 d:/software/yuyin/qiqiyinqiluntai/riscv-nuclei-elf-gcc-9.2.0.0/gcc_fix_raissrc/bin/../lib/gcc/riscv-nuclei-elf/9.2.0/../../../../riscv-nuclei-elf/lib/rv32imafc/ilp32f\libgloss_nano.a(sys_read.o)
 .text          0x0000000000000000        0x0 d:/software/yuyin/qiqiyinqiluntai/riscv-nuclei-elf-gcc-9.2.0.0/gcc_fix_raissrc/bin/../lib/gcc/riscv-nuclei-elf/9.2.0/../../../../riscv-nuclei-elf/lib/rv32imafc/ilp32f\libgloss_nano.a(sys_write.o)
 .data          0x0000000000000000        0x0 d:/software/yuyin/qiqiyinqiluntai/riscv-nuclei-elf-gcc-9.2.0.0/gcc_fix_raissrc/bin/../lib/gcc/riscv-nuclei-elf/9.2.0/../../../../riscv-nuclei-elf/lib/rv32imafc/ilp32f\libgloss_nano.a(sys_write.o)
 .bss           0x0000000000000000        0x0 d:/software/yuyin/qiqiyinqiluntai/riscv-nuclei-elf-gcc-9.2.0.0/gcc_fix_raissrc/bin/../lib/gcc/riscv-nuclei-elf/9.2.0/../../../../riscv-nuclei-elf/lib/rv32imafc/ilp32f\libgloss_nano.a(sys_write.o)
 .text          0x0000000000000000        0x0 d:/software/yuyin/qiqiyinqiluntai/riscv-nuclei-elf-gcc-9.2.0.0/gcc_fix_raissrc/bin/../lib/gcc/riscv-nuclei-elf/9.2.0/../../../../riscv-nuclei-elf/lib/rv32imafc/ilp32f\libgloss_nano.a(sys_conv_stat.o)
 .data          0x0000000000000000        0x0 d:/software/yuyin/qiqiyinqiluntai/riscv-nuclei-elf-gcc-9.2.0.0/gcc_fix_raissrc/bin/../lib/gcc/riscv-nuclei-elf/9.2.0/../../../../riscv-nuclei-elf/lib/rv32imafc/ilp32f\libgloss_nano.a(sys_conv_stat.o)
 .bss           0x0000000000000000        0x0 d:/software/yuyin/qiqiyinqiluntai/riscv-nuclei-elf-gcc-9.2.0.0/gcc_fix_raissrc/bin/../lib/gcc/riscv-nuclei-elf/9.2.0/../../../../riscv-nuclei-elf/lib/rv32imafc/ilp32f\libgloss_nano.a(sys_conv_stat.o)
 .text          0x0000000000000000        0x0 d:/software/yuyin/qiqiyinqiluntai/riscv-nuclei-elf-gcc-9.2.0.0/gcc_fix_raissrc/bin/../lib/gcc/riscv-nuclei-elf/9.2.0/../../../../riscv-nuclei-elf/lib/rv32imafc/ilp32f\libc_nano.a(lib_a-errno.o)
 .data          0x0000000000000000        0x0 d:/software/yuyin/qiqiyinqiluntai/riscv-nuclei-elf-gcc-9.2.0.0/gcc_fix_raissrc/bin/../lib/gcc/riscv-nuclei-elf/9.2.0/../../../../riscv-nuclei-elf/lib/rv32imafc/ilp32f\libc_nano.a(lib_a-errno.o)
 .bss           0x0000000000000000        0x0 d:/software/yuyin/qiqiyinqiluntai/riscv-nuclei-elf-gcc-9.2.0.0/gcc_fix_raissrc/bin/../lib/gcc/riscv-nuclei-elf/9.2.0/../../../../riscv-nuclei-elf/lib/rv32imafc/ilp32f\libc_nano.a(lib_a-errno.o)
 .data          0x0000000000000000        0x0 d:/software/yuyin/qiqiyinqiluntai/riscv-nuclei-elf-gcc-9.2.0.0/gcc_fix_raissrc/bin/../lib/gcc/riscv-nuclei-elf/9.2.0/../../../../riscv-nuclei-elf/lib/rv32imafc/ilp32f\libm.a(lib_a-s_floor.o)
 .bss           0x0000000000000000        0x0 d:/software/yuyin/qiqiyinqiluntai/riscv-nuclei-elf-gcc-9.2.0.0/gcc_fix_raissrc/bin/../lib/gcc/riscv-nuclei-elf/9.2.0/../../../../riscv-nuclei-elf/lib/rv32imafc/ilp32f\libm.a(lib_a-s_floor.o)
 .data          0x0000000000000000        0x0 d:/software/yuyin/qiqiyinqiluntai/riscv-nuclei-elf-gcc-9.2.0.0/gcc_fix_raissrc/bin/../lib/gcc/riscv-nuclei-elf/9.2.0/../../../../riscv-nuclei-elf/lib/rv32imafc/ilp32f\libm.a(lib_a-w_acos.o)
 .bss           0x0000000000000000        0x0 d:/software/yuyin/qiqiyinqiluntai/riscv-nuclei-elf-gcc-9.2.0.0/gcc_fix_raissrc/bin/../lib/gcc/riscv-nuclei-elf/9.2.0/../../../../riscv-nuclei-elf/lib/rv32imafc/ilp32f\libm.a(lib_a-w_acos.o)
 .data          0x0000000000000000        0x0 d:/software/yuyin/qiqiyinqiluntai/riscv-nuclei-elf-gcc-9.2.0.0/gcc_fix_raissrc/bin/../lib/gcc/riscv-nuclei-elf/9.2.0/../../../../riscv-nuclei-elf/lib/rv32imafc/ilp32f\libm.a(lib_a-w_exp.o)
 .bss           0x0000000000000000        0x0 d:/software/yuyin/qiqiyinqiluntai/riscv-nuclei-elf-gcc-9.2.0.0/gcc_fix_raissrc/bin/../lib/gcc/riscv-nuclei-elf/9.2.0/../../../../riscv-nuclei-elf/lib/rv32imafc/ilp32f\libm.a(lib_a-w_exp.o)
 .data          0x0000000000000000        0x0 d:/software/yuyin/qiqiyinqiluntai/riscv-nuclei-elf-gcc-9.2.0.0/gcc_fix_raissrc/bin/../lib/gcc/riscv-nuclei-elf/9.2.0/../../../../riscv-nuclei-elf/lib/rv32imafc/ilp32f\libm.a(lib_a-wf_pow.o)
 .bss           0x0000000000000000        0x0 d:/software/yuyin/qiqiyinqiluntai/riscv-nuclei-elf-gcc-9.2.0.0/gcc_fix_raissrc/bin/../lib/gcc/riscv-nuclei-elf/9.2.0/../../../../riscv-nuclei-elf/lib/rv32imafc/ilp32f\libm.a(lib_a-wf_pow.o)
 .data          0x0000000000000000        0x0 d:/software/yuyin/qiqiyinqiluntai/riscv-nuclei-elf-gcc-9.2.0.0/gcc_fix_raissrc/bin/../lib/gcc/riscv-nuclei-elf/9.2.0/../../../../riscv-nuclei-elf/lib/rv32imafc/ilp32f\libm.a(lib_a-w_log.o)
 .bss           0x0000000000000000        0x0 d:/software/yuyin/qiqiyinqiluntai/riscv-nuclei-elf-gcc-9.2.0.0/gcc_fix_raissrc/bin/../lib/gcc/riscv-nuclei-elf/9.2.0/../../../../riscv-nuclei-elf/lib/rv32imafc/ilp32f\libm.a(lib_a-w_log.o)
 .data          0x0000000000000000        0x0 d:/software/yuyin/qiqiyinqiluntai/riscv-nuclei-elf-gcc-9.2.0.0/gcc_fix_raissrc/bin/../lib/gcc/riscv-nuclei-elf/9.2.0/../../../../riscv-nuclei-elf/lib/rv32imafc/ilp32f\libm.a(lib_a-w_sqrt.o)
 .bss           0x0000000000000000        0x0 d:/software/yuyin/qiqiyinqiluntai/riscv-nuclei-elf-gcc-9.2.0.0/gcc_fix_raissrc/bin/../lib/gcc/riscv-nuclei-elf/9.2.0/../../../../riscv-nuclei-elf/lib/rv32imafc/ilp32f\libm.a(lib_a-w_sqrt.o)
 .data          0x0000000000000000        0x0 d:/software/yuyin/qiqiyinqiluntai/riscv-nuclei-elf-gcc-9.2.0.0/gcc_fix_raissrc/bin/../lib/gcc/riscv-nuclei-elf/9.2.0/../../../../riscv-nuclei-elf/lib/rv32imafc/ilp32f\libm.a(lib_a-e_acos.o)
 .bss           0x0000000000000000        0x0 d:/software/yuyin/qiqiyinqiluntai/riscv-nuclei-elf-gcc-9.2.0.0/gcc_fix_raissrc/bin/../lib/gcc/riscv-nuclei-elf/9.2.0/../../../../riscv-nuclei-elf/lib/rv32imafc/ilp32f\libm.a(lib_a-e_acos.o)
 .data          0x0000000000000000        0x0 d:/software/yuyin/qiqiyinqiluntai/riscv-nuclei-elf-gcc-9.2.0.0/gcc_fix_raissrc/bin/../lib/gcc/riscv-nuclei-elf/9.2.0/../../../../riscv-nuclei-elf/lib/rv32imafc/ilp32f\libm.a(lib_a-e_exp.o)
 .bss           0x0000000000000000        0x0 d:/software/yuyin/qiqiyinqiluntai/riscv-nuclei-elf-gcc-9.2.0.0/gcc_fix_raissrc/bin/../lib/gcc/riscv-nuclei-elf/9.2.0/../../../../riscv-nuclei-elf/lib/rv32imafc/ilp32f\libm.a(lib_a-e_exp.o)
 .data          0x0000000000000000        0x0 d:/software/yuyin/qiqiyinqiluntai/riscv-nuclei-elf-gcc-9.2.0.0/gcc_fix_raissrc/bin/../lib/gcc/riscv-nuclei-elf/9.2.0/../../../../riscv-nuclei-elf/lib/rv32imafc/ilp32f\libm.a(lib_a-ef_pow.o)
 .bss           0x0000000000000000        0x0 d:/software/yuyin/qiqiyinqiluntai/riscv-nuclei-elf-gcc-9.2.0.0/gcc_fix_raissrc/bin/../lib/gcc/riscv-nuclei-elf/9.2.0/../../../../riscv-nuclei-elf/lib/rv32imafc/ilp32f\libm.a(lib_a-ef_pow.o)
 .data          0x0000000000000000        0x0 d:/software/yuyin/qiqiyinqiluntai/riscv-nuclei-elf-gcc-9.2.0.0/gcc_fix_raissrc/bin/../lib/gcc/riscv-nuclei-elf/9.2.0/../../../../riscv-nuclei-elf/lib/rv32imafc/ilp32f\libm.a(lib_a-ef_sqrt.o)
 .bss           0x0000000000000000        0x0 d:/software/yuyin/qiqiyinqiluntai/riscv-nuclei-elf-gcc-9.2.0.0/gcc_fix_raissrc/bin/../lib/gcc/riscv-nuclei-elf/9.2.0/../../../../riscv-nuclei-elf/lib/rv32imafc/ilp32f\libm.a(lib_a-ef_sqrt.o)
 .data          0x0000000000000000        0x0 d:/software/yuyin/qiqiyinqiluntai/riscv-nuclei-elf-gcc-9.2.0.0/gcc_fix_raissrc/bin/../lib/gcc/riscv-nuclei-elf/9.2.0/../../../../riscv-nuclei-elf/lib/rv32imafc/ilp32f\libm.a(lib_a-e_log.o)
 .bss           0x0000000000000000        0x0 d:/software/yuyin/qiqiyinqiluntai/riscv-nuclei-elf-gcc-9.2.0.0/gcc_fix_raissrc/bin/../lib/gcc/riscv-nuclei-elf/9.2.0/../../../../riscv-nuclei-elf/lib/rv32imafc/ilp32f\libm.a(lib_a-e_log.o)
 .data          0x0000000000000000        0x0 d:/software/yuyin/qiqiyinqiluntai/riscv-nuclei-elf-gcc-9.2.0.0/gcc_fix_raissrc/bin/../lib/gcc/riscv-nuclei-elf/9.2.0/../../../../riscv-nuclei-elf/lib/rv32imafc/ilp32f\libm.a(lib_a-e_sqrt.o)
 .bss           0x0000000000000000        0x0 d:/software/yuyin/qiqiyinqiluntai/riscv-nuclei-elf-gcc-9.2.0.0/gcc_fix_raissrc/bin/../lib/gcc/riscv-nuclei-elf/9.2.0/../../../../riscv-nuclei-elf/lib/rv32imafc/ilp32f\libm.a(lib_a-e_sqrt.o)
 .data          0x0000000000000000        0x0 d:/software/yuyin/qiqiyinqiluntai/riscv-nuclei-elf-gcc-9.2.0.0/gcc_fix_raissrc/bin/../lib/gcc/riscv-nuclei-elf/9.2.0/../../../../riscv-nuclei-elf/lib/rv32imafc/ilp32f\libm.a(lib_a-s_fabs.o)
 .bss           0x0000000000000000        0x0 d:/software/yuyin/qiqiyinqiluntai/riscv-nuclei-elf-gcc-9.2.0.0/gcc_fix_raissrc/bin/../lib/gcc/riscv-nuclei-elf/9.2.0/../../../../riscv-nuclei-elf/lib/rv32imafc/ilp32f\libm.a(lib_a-s_fabs.o)
 .data          0x0000000000000000        0x0 d:/software/yuyin/qiqiyinqiluntai/riscv-nuclei-elf-gcc-9.2.0.0/gcc_fix_raissrc/bin/../lib/gcc/riscv-nuclei-elf/9.2.0/../../../../riscv-nuclei-elf/lib/rv32imafc/ilp32f\libm.a(lib_a-sf_finite.o)
 .bss           0x0000000000000000        0x0 d:/software/yuyin/qiqiyinqiluntai/riscv-nuclei-elf-gcc-9.2.0.0/gcc_fix_raissrc/bin/../lib/gcc/riscv-nuclei-elf/9.2.0/../../../../riscv-nuclei-elf/lib/rv32imafc/ilp32f\libm.a(lib_a-sf_finite.o)
 .data          0x0000000000000000        0x0 d:/software/yuyin/qiqiyinqiluntai/riscv-nuclei-elf-gcc-9.2.0.0/gcc_fix_raissrc/bin/../lib/gcc/riscv-nuclei-elf/9.2.0/../../../../riscv-nuclei-elf/lib/rv32imafc/ilp32f\libm.a(lib_a-s_finite.o)
 .bss           0x0000000000000000        0x0 d:/software/yuyin/qiqiyinqiluntai/riscv-nuclei-elf-gcc-9.2.0.0/gcc_fix_raissrc/bin/../lib/gcc/riscv-nuclei-elf/9.2.0/../../../../riscv-nuclei-elf/lib/rv32imafc/ilp32f\libm.a(lib_a-s_finite.o)
 .data          0x0000000000000000        0x0 d:/software/yuyin/qiqiyinqiluntai/riscv-nuclei-elf-gcc-9.2.0.0/gcc_fix_raissrc/bin/../lib/gcc/riscv-nuclei-elf/9.2.0/../../../../riscv-nuclei-elf/lib/rv32imafc/ilp32f\libm.a(lib_a-sf_nan.o)
 .bss           0x0000000000000000        0x0 d:/software/yuyin/qiqiyinqiluntai/riscv-nuclei-elf-gcc-9.2.0.0/gcc_fix_raissrc/bin/../lib/gcc/riscv-nuclei-elf/9.2.0/../../../../riscv-nuclei-elf/lib/rv32imafc/ilp32f\libm.a(lib_a-sf_nan.o)
 .data          0x0000000000000000        0x0 d:/software/yuyin/qiqiyinqiluntai/riscv-nuclei-elf-gcc-9.2.0.0/gcc_fix_raissrc/bin/../lib/gcc/riscv-nuclei-elf/9.2.0/../../../../riscv-nuclei-elf/lib/rv32imafc/ilp32f\libm.a(lib_a-sf_rint.o)
 .bss           0x0000000000000000        0x0 d:/software/yuyin/qiqiyinqiluntai/riscv-nuclei-elf-gcc-9.2.0.0/gcc_fix_raissrc/bin/../lib/gcc/riscv-nuclei-elf/9.2.0/../../../../riscv-nuclei-elf/lib/rv32imafc/ilp32f\libm.a(lib_a-sf_rint.o)
 .data          0x0000000000000000        0x0 d:/software/yuyin/qiqiyinqiluntai/riscv-nuclei-elf-gcc-9.2.0.0/gcc_fix_raissrc/bin/../lib/gcc/riscv-nuclei-elf/9.2.0/../../../../riscv-nuclei-elf/lib/rv32imafc/ilp32f\libm.a(lib_a-sf_scalbn.o)
 .bss           0x0000000000000000        0x0 d:/software/yuyin/qiqiyinqiluntai/riscv-nuclei-elf-gcc-9.2.0.0/gcc_fix_raissrc/bin/../lib/gcc/riscv-nuclei-elf/9.2.0/../../../../riscv-nuclei-elf/lib/rv32imafc/ilp32f\libm.a(lib_a-sf_scalbn.o)
 .text          0x0000000000000000        0x0 d:/software/yuyin/qiqiyinqiluntai/riscv-nuclei-elf-gcc-9.2.0.0/gcc_fix_raissrc/bin/../lib/gcc/riscv-nuclei-elf/9.2.0/../../../../riscv-nuclei-elf/lib/rv32imafc/ilp32f\libm.a(lib_a-s_lib_ver.o)
 .data          0x0000000000000000        0x0 d:/software/yuyin/qiqiyinqiluntai/riscv-nuclei-elf-gcc-9.2.0.0/gcc_fix_raissrc/bin/../lib/gcc/riscv-nuclei-elf/9.2.0/../../../../riscv-nuclei-elf/lib/rv32imafc/ilp32f\libm.a(lib_a-s_lib_ver.o)
 .bss           0x0000000000000000        0x0 d:/software/yuyin/qiqiyinqiluntai/riscv-nuclei-elf-gcc-9.2.0.0/gcc_fix_raissrc/bin/../lib/gcc/riscv-nuclei-elf/9.2.0/../../../../riscv-nuclei-elf/lib/rv32imafc/ilp32f\libm.a(lib_a-s_lib_ver.o)
 .data          0x0000000000000000        0x0 d:/software/yuyin/qiqiyinqiluntai/riscv-nuclei-elf-gcc-9.2.0.0/gcc_fix_raissrc/bin/../lib/gcc/riscv-nuclei-elf/9.2.0/../../../../riscv-nuclei-elf/lib/rv32imafc/ilp32f\libm.a(lib_a-s_matherr.o)
 .bss           0x0000000000000000        0x0 d:/software/yuyin/qiqiyinqiluntai/riscv-nuclei-elf-gcc-9.2.0.0/gcc_fix_raissrc/bin/../lib/gcc/riscv-nuclei-elf/9.2.0/../../../../riscv-nuclei-elf/lib/rv32imafc/ilp32f\libm.a(lib_a-s_matherr.o)
 .data          0x0000000000000000        0x0 d:/software/yuyin/qiqiyinqiluntai/riscv-nuclei-elf-gcc-9.2.0.0/gcc_fix_raissrc/bin/../lib/gcc/riscv-nuclei-elf/9.2.0/../../../../riscv-nuclei-elf/lib/rv32imafc/ilp32f\libm.a(lib_a-s_nan.o)
 .bss           0x0000000000000000        0x0 d:/software/yuyin/qiqiyinqiluntai/riscv-nuclei-elf-gcc-9.2.0.0/gcc_fix_raissrc/bin/../lib/gcc/riscv-nuclei-elf/9.2.0/../../../../riscv-nuclei-elf/lib/rv32imafc/ilp32f\libm.a(lib_a-s_nan.o)
 .data          0x0000000000000000        0x0 d:/software/yuyin/qiqiyinqiluntai/riscv-nuclei-elf-gcc-9.2.0.0/gcc_fix_raissrc/bin/../lib/gcc/riscv-nuclei-elf/9.2.0/../../../../riscv-nuclei-elf/lib/rv32imafc/ilp32f\libm.a(lib_a-sf_copysign.o)
 .bss           0x0000000000000000        0x0 d:/software/yuyin/qiqiyinqiluntai/riscv-nuclei-elf-gcc-9.2.0.0/gcc_fix_raissrc/bin/../lib/gcc/riscv-nuclei-elf/9.2.0/../../../../riscv-nuclei-elf/lib/rv32imafc/ilp32f\libm.a(lib_a-sf_copysign.o)

Memory Configuration

Name             Origin             Length             Attributes
BOOT_PARAMETER   0x000000001ff50a00 0x0000000000000200
SHARE_SRAM       0x000000001ff50c00 0x0000000000000400
SRAM             0x000000001ff51000 0x0000000000087000 xrw
*default*        0x0000000000000000 0xffffffffffffffff

Linker script and memory map

LOAD C:\TMP\nn_denoise_rtc_sample.elf.ItDyV2.ltrans0.ltrans.o
LOAD C:\TMP\nn_denoise_rtc_sample.elf.ItDyV2.ltrans1.ltrans.o
LOAD C:\TMP\cc3X3S1m.debug.temp.o
LOAD C:\TMP\ccK9AiDN.debug.temp.o
LOAD C:\TMP\ccFAoo5d.debug.temp.o
LOAD C:\TMP\ccSA9VTE.debug.temp.o
LOAD C:\TMP\cchNT9y5.debug.temp.o
LOAD C:\TMP\ccUU5Wpv.debug.temp.o
LOAD C:\TMP\ccJQIalV.debug.temp.o
LOAD C:\TMP\cc2bNxHl.debug.temp.o
LOAD C:\TMP\cczM7AUL.debug.temp.o
LOAD C:\TMP\cc4xew4f.debug.temp.o
LOAD C:\TMP\ccDNrH0J.debug.temp.o
LOAD C:\TMP\ccGs61ne.debug.temp.o
LOAD C:\TMP\ccVNdUBI.debug.temp.o
LOAD C:\TMP\ccmvJWWb.debug.temp.o
LOAD C:\TMP\cc57r9lF.debug.temp.o
LOAD C:\TMP\ccgBOmc9.debug.temp.o
LOAD C:\TMP\ccx74YOC.debug.temp.o
LOAD C:\TMP\ccQmIlX4.debug.temp.o
LOAD C:\TMP\ccBsZIwx.debug.temp.o
LOAD C:\TMP\ccAjjb1Z.debug.temp.o
LOAD C:\TMP\ccJVM3zs.debug.temp.o
LOAD C:\TMP\ccWTU55Y.debug.temp.o
LOAD C:\TMP\ccjveFsv.debug.temp.o
LOAD C:\TMP\cca0sfg2.debug.temp.o
LOAD C:\TMP\cc9ASeQy.debug.temp.o
LOAD C:\TMP\ccgq56w4.debug.temp.o
LOAD C:\TMP\ccREJ8EA.debug.temp.o
LOAD C:\TMP\ccE5mQD6.debug.temp.o
LOAD C:\TMP\cczImPGC.debug.temp.o
LOAD C:\TMP\ccqRnCV7.debug.temp.o
LOAD C:\TMP\cctkmYeD.debug.temp.o
LOAD C:\TMP\ccAhrAk8.debug.temp.o
LOAD C:\TMP\cc7vm4QD.debug.temp.o
LOAD C:\TMP\ccSZxee9.debug.temp.o
LOAD C:\TMP\ccTTeYFE.debug.temp.o
LOAD C:\TMP\cc0YrAe9.debug.temp.o
LOAD C:\TMP\ccBt6leE.debug.temp.o
LOAD C:\TMP\ccgsRn08.debug.temp.o
LOAD C:\TMP\cc5pPHNH.debug.temp.o
LOAD C:\TMP\ccaeaowg.debug.temp.o
LOAD C:\TMP\ccLsaXFP.debug.temp.o
LOAD C:\TMP\ccm5ILBo.debug.temp.o
LOAD C:\TMP\ccViTVNW.debug.temp.o
LOAD C:\TMP\ccIhQUQu.debug.temp.o
LOAD C:\TMP\ccVxDLk3.debug.temp.o
LOAD C:\TMP\cckCR2SB.debug.temp.o
LOAD C:\TMP\ccXrS8ha.debug.temp.o
LOAD C:\TMP\cco7kaTH.debug.temp.o
LOAD C:\TMP\ccZxXByf.debug.temp.o
LOAD C:\TMP\ccKBLA4M.debug.temp.o
LOAD C:\TMP\cc17hJ1k.debug.temp.o
LOAD C:\TMP\ccsnFKYS.debug.temp.o
LOAD C:\TMP\cc5ivjMq.debug.temp.o
LOAD C:\TMP\ccGPWdQX.debug.temp.o
LOAD C:\TMP\ccv7aXKu.debug.temp.o
LOAD C:\TMP\ccMJwy61.debug.temp.o
LOAD C:\TMP\cc5MHpez.debug.temp.o
LOAD C:\TMP\ccq9fqja.debug.temp.o
LOAD C:\TMP\ccVgYQsL.debug.temp.o
LOAD C:\TMP\ccE7pPsm.debug.temp.o
LOAD C:\TMP\ccPOvOTX.debug.temp.o
LOAD C:\TMP\cc4vec7y.debug.temp.o
LOAD C:\TMP\cchQRsF9.debug.temp.o
LOAD C:\TMP\ccITeh4J.debug.temp.o
LOAD C:\TMP\ccjILvxk.debug.temp.o
LOAD C:\TMP\ccoWJTrV.debug.temp.o
LOAD C:\TMP\ccxEOx8v.debug.temp.o
LOAD C:\TMP\ccAlqo55.debug.temp.o
LOAD C:\TMP\ccPQsF6F.debug.temp.o
LOAD C:\TMP\ccmdQLYf.debug.temp.o
LOAD C:\TMP\ccbFHsdQ.debug.temp.o
LOAD C:\TMP\ccaKKGiq.debug.temp.o
LOAD C:\TMP\cclDels0.debug.temp.o
LOAD C:\TMP\ccuDQtSz.debug.temp.o
LOAD C:\TMP\ccNelC48.debug.temp.o
LOAD C:\TMP\ccyGtLHI.debug.temp.o
LOAD C:\TMP\ccxToJbi.debug.temp.o
LOAD C:\TMP\ccIUK7JR.debug.temp.o
LOAD C:\TMP\ccHlJXav.debug.temp.o
LOAD C:\TMP\ccW4eus8.debug.temp.o
LOAD C:\TMP\ccFdcabM.debug.temp.o
LOAD C:\TMP\ccy7igYp.debug.temp.o
LOAD C:\TMP\ccDHSTB3.debug.temp.o
LOAD C:\TMP\ccu4CsrG.debug.temp.o
LOAD C:\TMP\ccBfrQ7i.debug.temp.o
LOAD C:\TMP\cc8H55eW.debug.temp.o
LOAD C:\TMP\ccR0tjvz.debug.temp.o
LOAD C:\TMP\ccQ7VlCc.debug.temp.o
LOAD C:\TMP\ccB1yjVO.debug.temp.o
LOAD C:\TMP\ccAEVO4q.debug.temp.o
LOAD C:\TMP\cc17VkF3.debug.temp.o
LOAD C:\TMP\ccEVTpkG.debug.temp.o
LOAD C:\TMP\ccRB2MMi.debug.temp.o
LOAD C:\TMP\cc2U52zU.debug.temp.o
LOAD C:\TMP\ccNaYIAw.debug.temp.o
LOAD C:\TMP\ccEjLGq8.debug.temp.o
LOAD C:\TMP\cc5y6UmK.debug.temp.o
LOAD C:\TMP\ccEeB2fq.debug.temp.o
LOAD C:\TMP\ccp64PZ5.debug.temp.o
LOAD C:\TMP\ccuCQm6L.debug.temp.o
LOAD C:\TMP\ccLW2jhs.debug.temp.o
LOAD C:\TMP\cceXHOi8.debug.temp.o
LOAD C:\TMP\cctKxewN.debug.temp.o
LOAD C:\TMP\ccYlrtAs.debug.temp.o
LOAD C:\TMP\ccZTwJ57.debug.temp.o
LOAD C:\TMP\cc8DYgFN.debug.temp.o
LOAD C:\TMP\ccpsyW0s.debug.temp.o
LOAD C:\TMP\ccItO6C7.debug.temp.o
LOAD C:\TMP\cc9cXGjM.debug.temp.o
LOAD C:\TMP\ccMCyOQq.debug.temp.o
LOAD C:\TMP\ccH7DwK5.debug.temp.o
LOAD C:\TMP\ccQZXNIK.debug.temp.o
LOAD C:\TMP\ccb4gLxp.debug.temp.o
LOAD C:\TMP\ccipevy3.debug.temp.o
LOAD C:\TMP\ccBWaVpH.debug.temp.o
LOAD C:\TMP\ccsZ6uIl.debug.temp.o
LOAD C:\TMP\ccvIvCRZ.debug.temp.o
LOAD C:\TMP\ccybuKXH.debug.temp.o
LOAD C:\TMP\ccNYpr8p.debug.temp.o
LOAD C:\TMP\ccg3Ule8.debug.temp.o
LOAD C:\TMP\cc1GnIGQ.debug.temp.o
LOAD C:\TMP\ccYwPKZy.debug.temp.o
LOAD C:\TMP\ccVwGhzg.debug.temp.o
LOAD C:\TMP\cc2hHedY.debug.temp.o
LOAD C:\TMP\cclJaJHF.debug.temp.o
LOAD C:\TMP\cccGDnDn.debug.temp.o
LOAD C:\TMP\cc53Vhl5.debug.temp.o
LOAD C:\TMP\ccWwjpjM.debug.temp.o
LOAD C:\TMP\ccX8oc8s.debug.temp.o
LOAD C:\TMP\ccudd9na.debug.temp.o
LOAD C:\TMP\cc9XAYDR.debug.temp.o
LOAD C:\TMP\ccYlalKy.debug.temp.o
LOAD C:\TMP\ccZxa8Uf.debug.temp.o
LOAD C:\TMP\ccYQipmW.debug.temp.o
LOAD C:\TMP\cc1DxWzC.debug.temp.o
LOAD C:\TMP\ccIzkMij.debug.temp.o
LOAD C:\TMP\ccFjbrSZ.debug.temp.o
LOAD C:\TMP\ccybxXoK.debug.temp.o
LOAD C:\TMP\ccvxZJHu.debug.temp.o
LOAD C:\TMP\ccWiTFrf.debug.temp.o
LOAD build/objs/ci130x_vtable.o
LOAD build/objs/ci130x_startup.o
LOAD ../../../libs\libasr.a
LOAD ../../../libs\libeq.a
LOAD ../../../libs\libdrc.a
LOAD ../../../libs\libnewlib_port.a
LOAD ../../../libs\libfreertos_port.a
LOAD ../../../libs\libdsu.a
LOAD ../../../libs\libflash_encrypt.a
LOAD d:/software/yuyin/qiqiyinqiluntai/riscv-nuclei-elf-gcc-9.2.0.0/gcc_fix_raissrc/bin/../lib/gcc/riscv-nuclei-elf/9.2.0/../../../../riscv-nuclei-elf/lib/rv32imafc/ilp32f\libstdc++.a
LOAD d:/software/yuyin/qiqiyinqiluntai/riscv-nuclei-elf-gcc-9.2.0.0/gcc_fix_raissrc/bin/../lib/gcc/riscv-nuclei-elf/9.2.0/../../../../riscv-nuclei-elf/lib/rv32imafc/ilp32f\libm.a
LOAD d:/software/yuyin/qiqiyinqiluntai/riscv-nuclei-elf-gcc-9.2.0.0/gcc_fix_raissrc/bin/../lib/gcc/riscv-nuclei-elf/9.2.0/rv32imafc/ilp32f\libgcc.a
LOAD d:/software/yuyin/qiqiyinqiluntai/riscv-nuclei-elf-gcc-9.2.0.0/gcc_fix_raissrc/bin/../lib/gcc/riscv-nuclei-elf/9.2.0/../../../../riscv-nuclei-elf/lib/rv32imafc/ilp32f\libg_nano.a
LOAD d:/software/yuyin/qiqiyinqiluntai/riscv-nuclei-elf-gcc-9.2.0.0/gcc_fix_raissrc/bin/../lib/gcc/riscv-nuclei-elf/9.2.0/../../../../riscv-nuclei-elf/lib/rv32imafc/ilp32f\libc_nano.a
LOAD d:/software/yuyin/qiqiyinqiluntai/riscv-nuclei-elf-gcc-9.2.0.0/gcc_fix_raissrc/bin/../lib/gcc/riscv-nuclei-elf/9.2.0/rv32imafc/ilp32f\libgcc.a
START GROUP
LOAD d:/software/yuyin/qiqiyinqiluntai/riscv-nuclei-elf-gcc-9.2.0.0/gcc_fix_raissrc/bin/../lib/gcc/riscv-nuclei-elf/9.2.0/rv32imafc/ilp32f\libgcc.a
LOAD d:/software/yuyin/qiqiyinqiluntai/riscv-nuclei-elf-gcc-9.2.0.0/gcc_fix_raissrc/bin/../lib/gcc/riscv-nuclei-elf/9.2.0/../../../../riscv-nuclei-elf/lib/rv32imafc/ilp32f\libc_nano.a
LOAD d:/software/yuyin/qiqiyinqiluntai/riscv-nuclei-elf-gcc-9.2.0.0/gcc_fix_raissrc/bin/../lib/gcc/riscv-nuclei-elf/9.2.0/../../../../riscv-nuclei-elf/lib/rv32imafc/ilp32f\libgloss_nano.a
END GROUP
                0x0000000000000c00                STACK_SIZE = 0xc00
                0x000000001ffd2000                SRAM_HOST_END_ADDR = 0x1ffd2000
                0x000000001ffd2000                SRAM_HOST_END_ADDR_VPR = 0x1ffd2000
                0x000000001ffd0000                SRAM_HOST_END_ADDR_SED = 0x1ffd0000
                0x000000001ffcc000                SRAM_HOST_END_ADDR_OFFLINE_DUAL_MIC = 0x1ffcc000
                0x000000001ffd7000                SRAM_HOST_END_ADDR_AIOT_DUAL_MIC = 0x1ffd7000
                0x000000001ffcc000                SRAM_HOST_END_ADDR_NN_DENOISE_ASR = 0x1ffcc000
                0x000000001ffd8000                SRAM_HOST_END_ADDR_NN_DENOISE_RTC = 0x1ffd8000
                0x000000001ff50a00                BOOT_PARAMETER_ADDR = 0x1ff50a00
                0x0000000000000200                BOOT_PARAMETER_SIZE = 0x200
                0x000000001ff50c00                SHARE_SRAM_ADDR = 0x1ff50c00
                0x0000000000000400                SHARE_SRAM_SIZE = 0x400
                0x000000001ff51000                SRAM_START_ADDR = 0x1ff51000
                0x000000001ffd8000                SRAM_END_ADDR = SRAM_HOST_END_ADDR_NN_DENOISE_RTC
                0x0000000000087000                SRAM_SIZE = (SRAM_END_ADDR - SRAM_START_ADDR)
                0x0000000000037000                SYS_HEAP_SIZE = 0x37000
                0x0000000000000c00                __stack_size = STACK_SIZE
                0x0000000000000c00                __int_stack_size = STACK_SIZE
                0x0000000000000c00                __stack_size = DEFINED (__stack_size)?__stack_size:0x800
                0x0000000000000c00                __int_stack_size = DEFINED (__int_stack_size)?__int_stack_size:0x400

.boot_parameter
                0x000000001ff50a00      0x116
 *.(boot_parameter)
 .boot_parameter
                0x000000001ff50a00      0x116 C:\TMP\nn_denoise_rtc_sample.elf.ItDyV2.ltrans1.ltrans.o

.share_memory   0x000000001ff50c00       0xb0
 *(.share_mem)
 .share_mem     0x000000001ff50c00       0xb0 C:\TMP\nn_denoise_rtc_sample.elf.ItDyV2.ltrans0.ltrans.o
                0x000000001ff50c00                status_list.lto_priv.0

.init           0x000000001ff51000      0x272
 *(.vtable)
 .vtable        0x000000001ff51000      0x100 build/objs/ci130x_vtable.o
                0x000000001ff51000                vector_base
 *(.load_addr)
 .load_addr     0x000000001ff51100       0x3c build/objs/ci130x_startup.o
 *(SORT_NONE(.init))
 .init          0x000000001ff5113c      0x136 build/objs/ci130x_startup.o
                0x000000001ff5113c                _start
                0x000000001ff51162                _virtual_start
                0x000000001ff51250                disable_mcycle_minstret
                0x000000001ff51256                enable_mcycle_minstret
                0x000000001ff5125c                core_wfe_asm

.ilalign        0x000000001ff51272        0x2
                0x000000001ff51274                . = ALIGN (0x4)
 *fill*         0x000000001ff51272        0x2 
                0x000000001ff51274                PROVIDE (_ilm_lma = .)

.ialign         0x000000001ff51274        0x0
                0x000000001ff51274                PROVIDE (_ilm = .)

.text           0x000000001ff51280    0x163e2
 *(.text.unlikely .text.unlikely.*)
 *(.text.startup .text.startup.*)
 .text.startup.main
                0x000000001ff51280      0x556 C:\TMP\nn_denoise_rtc_sample.elf.ItDyV2.ltrans1.ltrans.o
                0x000000001ff51280                main
 *(.text .text.*)
 .text.filter_mem16.constprop.0
                0x000000001ff517d6       0x84 C:\TMP\nn_denoise_rtc_sample.elf.ItDyV2.ltrans0.ltrans.o
 .text.iir_mem16.constprop.0
                0x000000001ff5185a       0x66 C:\TMP\nn_denoise_rtc_sample.elf.ItDyV2.ltrans0.ltrans.o
 .text.vq_nbest.constprop.0
                0x000000001ff518c0       0xc0 C:\TMP\nn_denoise_rtc_sample.elf.ItDyV2.ltrans0.ltrans.o
 .text.vq_nbest_sign.constprop.0
                0x000000001ff51980       0xf0 C:\TMP\nn_denoise_rtc_sample.elf.ItDyV2.ltrans0.ltrans.o
 .text.fir_mem16.constprop.0
                0x000000001ff51a70       0x62 C:\TMP\nn_denoise_rtc_sample.elf.ItDyV2.ltrans0.ltrans.o
 .text.highpass.constprop.0
                0x000000001ff51ad2       0x8e C:\TMP\nn_denoise_rtc_sample.elf.ItDyV2.ltrans0.ltrans.o
 .text.qmf_synth.constprop.0
                0x000000001ff51b60      0x172 C:\TMP\nn_denoise_rtc_sample.elf.ItDyV2.ltrans0.ltrans.o
 .text.lsp_quant.constprop.0
                0x000000001ff51cd2       0x86 C:\TMP\nn_denoise_rtc_sample.elf.ItDyV2.ltrans0.ltrans.o
 .text.lsp_weight_quant.constprop.0
                0x000000001ff51d58       0x92 C:\TMP\nn_denoise_rtc_sample.elf.ItDyV2.ltrans0.ltrans.o
 .text.rc_callee_alg_aes_addr
                0x000000001ff51dea        0x8 C:\TMP\nn_denoise_rtc_sample.elf.ItDyV2.ltrans0.ltrans.o
                0x000000001ff51dea                rc_callee_alg_aes_addr
 .text.rc_callee_print_doa_angle_in_host
                0x000000001ff51df2        0x2 C:\TMP\nn_denoise_rtc_sample.elf.ItDyV2.ltrans0.ltrans.o
                0x000000001ff51df2                rc_callee_print_doa_angle_in_host
 .text.rc_callee_sed_rslt_cb
                0x000000001ff51df4        0x2 C:\TMP\nn_denoise_rtc_sample.elf.ItDyV2.ltrans0.ltrans.o
                0x000000001ff51df4                rc_callee_sed_rslt_cb
 .text.rc_callee_deal_one_frm_fft_rslt_callback
                0x000000001ff51df6        0x2 C:\TMP\nn_denoise_rtc_sample.elf.ItDyV2.ltrans0.ltrans.o
                0x000000001ff51df6                rc_callee_deal_one_frm_fft_rslt_callback
 .text.rc_callee_audio_deal_one_frm_callback
                0x000000001ff51df8        0x2 C:\TMP\nn_denoise_rtc_sample.elf.ItDyV2.ltrans0.ltrans.o
                0x000000001ff51df8                rc_callee_audio_deal_one_frm_callback
 .text.efuse_check_int_state
                0x000000001ff51dfa       0x14 C:\TMP\nn_denoise_rtc_sample.elf.ItDyV2.ltrans0.ltrans.o
 .text.efuse_int_clear
                0x000000001ff51e0e       0x12 C:\TMP\nn_denoise_rtc_sample.elf.ItDyV2.ltrans0.ltrans.o
 .text.prvTaskExitError
                0x000000001ff51e20       0x16 C:\TMP\nn_denoise_rtc_sample.elf.ItDyV2.ltrans0.ltrans.o
 .text.compute_quant_weights
                0x000000001ff51e36       0xba C:\TMP\nn_denoise_rtc_sample.elf.ItDyV2.ltrans0.ltrans.o
 .text.forced_pitch_unquant
                0x000000001ff51ef0       0x78 C:\TMP\nn_denoise_rtc_sample.elf.ItDyV2.ltrans0.ltrans.o
                0x000000001ff51ef0                forced_pitch_unquant
 .text.inner_prod
                0x000000001ff51f68       0x48 C:\TMP\nn_denoise_rtc_sample.elf.ItDyV2.ltrans0.ltrans.o
 .text.interp_pitch.constprop.0
                0x000000001ff51fb0      0x122 C:\TMP\nn_denoise_rtc_sample.elf.ItDyV2.ltrans0.ltrans.o
 .text.cheb_poly_eva.isra.0
                0x000000001ff520d2       0xa2 C:\TMP\nn_denoise_rtc_sample.elf.ItDyV2.ltrans0.ltrans.o
 .text.lsp_interpolate
                0x000000001ff52174       0xf6 C:\TMP\nn_denoise_rtc_sample.elf.ItDyV2.ltrans0.ltrans.o
 .text.lsp_to_lpc
                0x000000001ff5226a      0x1bc C:\TMP\nn_denoise_rtc_sample.elf.ItDyV2.ltrans0.ltrans.o
 .text._spx_autocorr
                0x000000001ff52426       0x46 C:\TMP\nn_denoise_rtc_sample.elf.ItDyV2.ltrans0.ltrans.o
 .text._spx_lpc
                0x000000001ff5246c       0xca C:\TMP\nn_denoise_rtc_sample.elf.ItDyV2.ltrans0.ltrans.o
 .text.compute_impulse_response
                0x000000001ff52536      0x118 C:\TMP\nn_denoise_rtc_sample.elf.ItDyV2.ltrans0.ltrans.o
 .text.syn_percep_zero16
                0x000000001ff5264e       0x60 C:\TMP\nn_denoise_rtc_sample.elf.ItDyV2.ltrans0.ltrans.o
 .text.forced_pitch_quant
                0x000000001ff526ae       0xe8 C:\TMP\nn_denoise_rtc_sample.elf.ItDyV2.ltrans0.ltrans.o
                0x000000001ff526ae                forced_pitch_quant
 .text.signal_mul
                0x000000001ff52796       0x1e C:\TMP\nn_denoise_rtc_sample.elf.ItDyV2.ltrans0.ltrans.o
 .text.bw_lpc   0x000000001ff527b4       0x26 C:\TMP\nn_denoise_rtc_sample.elf.ItDyV2.ltrans0.ltrans.o
 .text.sb_decode_lost
                0x000000001ff527da      0x122 C:\TMP\nn_denoise_rtc_sample.elf.ItDyV2.ltrans0.ltrans.o
 .text.compute_weighted_codebook.isra.0
                0x000000001ff528fc       0x8e C:\TMP\nn_denoise_rtc_sample.elf.ItDyV2.ltrans0.ltrans.o
 .text.noise_codebook_unquant
                0x000000001ff5298a       0x86 C:\TMP\nn_denoise_rtc_sample.elf.ItDyV2.ltrans0.ltrans.o
                0x000000001ff5298a                noise_codebook_unquant
 .text.prvCopyDataToQueue.constprop.0
                0x000000001ff52a10       0x94 C:\TMP\nn_denoise_rtc_sample.elf.ItDyV2.ltrans0.ltrans.o
 .text.lsp_quant_high
                0x000000001ff52aa4      0x152 C:\TMP\nn_denoise_rtc_sample.elf.ItDyV2.ltrans0.ltrans.o
                0x000000001ff52aa4                lsp_quant_high
 .text.lsp_quant_lbr
                0x000000001ff52bf6      0x168 C:\TMP\nn_denoise_rtc_sample.elf.ItDyV2.ltrans0.ltrans.o
                0x000000001ff52bf6                lsp_quant_lbr
 .text.lsp_quant_nb
                0x000000001ff52d5e      0x1ca C:\TMP\nn_denoise_rtc_sample.elf.ItDyV2.ltrans0.ltrans.o
                0x000000001ff52d5e                lsp_quant_nb
 .text.split_cb_search_shape_sign
                0x000000001ff52f28      0x91c C:\TMP\nn_denoise_rtc_sample.elf.ItDyV2.ltrans0.ltrans.o
                0x000000001ff52f28                split_cb_search_shape_sign
 .text.open_loop_nbest_pitch
                0x000000001ff53844      0x29e C:\TMP\nn_denoise_rtc_sample.elf.ItDyV2.ltrans0.ltrans.o
 .text.compute_rms
                0x000000001ff53ae2       0x46 C:\TMP\nn_denoise_rtc_sample.elf.ItDyV2.ltrans0.ltrans.o
 .text.multicomb.constprop.0
                0x000000001ff53b28      0x2e6 C:\TMP\nn_denoise_rtc_sample.elf.ItDyV2.ltrans0.ltrans.o
 .text.lpc_to_lsp.constprop.0
                0x000000001ff53e0e      0x266 C:\TMP\nn_denoise_rtc_sample.elf.ItDyV2.ltrans0.ltrans.o
 .text.speex_warning_int.lto_priv.0
                0x000000001ff54074       0x1e C:\TMP\nn_denoise_rtc_sample.elf.ItDyV2.ltrans0.ltrans.o
 .text.nb_mode_query
                0x000000001ff54092       0x46 C:\TMP\nn_denoise_rtc_sample.elf.ItDyV2.ltrans0.ltrans.o
                0x000000001ff54092                nb_mode_query
 .text.wb_mode_query
                0x000000001ff540d8       0x48 C:\TMP\nn_denoise_rtc_sample.elf.ItDyV2.ltrans0.ltrans.o
                0x000000001ff540d8                wb_mode_query
 .text._speex_fatal.constprop.0
                0x000000001ff54120       0x28 C:\TMP\nn_denoise_rtc_sample.elf.ItDyV2.ltrans0.ltrans.o
 .text.sb_decoder_destroy
                0x000000001ff54148       0x48 C:\TMP\nn_denoise_rtc_sample.elf.ItDyV2.ltrans0.ltrans.o
                0x000000001ff54148                sb_decoder_destroy
 .text.nb_decoder_destroy
                0x000000001ff54190       0x16 C:\TMP\nn_denoise_rtc_sample.elf.ItDyV2.ltrans0.ltrans.o
                0x000000001ff54190                nb_decoder_destroy
 .text.rc_callee_malloc_in_host
                0x000000001ff541a6        0xe C:\TMP\nn_denoise_rtc_sample.elf.ItDyV2.ltrans0.ltrans.o
                0x000000001ff541a6                rc_callee_malloc_in_host
 .text.rc_callee_get_current_model_addr
                0x000000001ff541b4       0x14 C:\TMP\nn_denoise_rtc_sample.elf.ItDyV2.ltrans0.ltrans.o
                0x000000001ff541b4                rc_callee_get_current_model_addr
 .text.speex_default_user_handler
                0x000000001ff541c8       0x1e C:\TMP\nn_denoise_rtc_sample.elf.ItDyV2.ltrans0.ltrans.o
 .text.lsp_unquant_high
                0x000000001ff541e6      0x11a C:\TMP\nn_denoise_rtc_sample.elf.ItDyV2.ltrans0.ltrans.o
                0x000000001ff541e6                lsp_unquant_high
 .text.lsp_unquant_lbr
                0x000000001ff54300      0x166 C:\TMP\nn_denoise_rtc_sample.elf.ItDyV2.ltrans0.ltrans.o
                0x000000001ff54300                lsp_unquant_lbr
 .text.lsp_unquant_nb
                0x000000001ff54466      0x21e C:\TMP\nn_denoise_rtc_sample.elf.ItDyV2.ltrans0.ltrans.o
                0x000000001ff54466                lsp_unquant_nb
 .text.split_cb_shape_sign_unquant
                0x000000001ff54684      0x12e C:\TMP\nn_denoise_rtc_sample.elf.ItDyV2.ltrans0.ltrans.o
                0x000000001ff54684                split_cb_shape_sign_unquant
 .text.noise_codebook_quant
                0x000000001ff547b2       0xa4 C:\TMP\nn_denoise_rtc_sample.elf.ItDyV2.ltrans0.ltrans.o
                0x000000001ff547b2                noise_codebook_quant
 .text.pitch_unquant_3tap
                0x000000001ff54856      0x270 C:\TMP\nn_denoise_rtc_sample.elf.ItDyV2.ltrans0.ltrans.o
                0x000000001ff54856                pitch_unquant_3tap
 .text.pitch_search_3tap
                0x000000001ff54ac6      0x73a C:\TMP\nn_denoise_rtc_sample.elf.ItDyV2.ltrans0.ltrans.o
                0x000000001ff54ac6                pitch_search_3tap
 .text.nb_decoder_ctl
                0x000000001ff55200      0x22e C:\TMP\nn_denoise_rtc_sample.elf.ItDyV2.ltrans0.ltrans.o
                0x000000001ff55200                nb_decoder_ctl
 .text.nb_encode
                0x000000001ff5542e      0xcba C:\TMP\nn_denoise_rtc_sample.elf.ItDyV2.ltrans0.ltrans.o
                0x000000001ff5542e                nb_encode
 .text.eclic_set_irq_priority.constprop.0
                0x000000001ff560e8       0x3a C:\TMP\nn_denoise_rtc_sample.elf.ItDyV2.ltrans0.ltrans.o
                0x000000001ff560e8                eclic_set_irq_priority.constprop.0
 .text.find_id.constprop.0
                0x000000001ff56122       0x46 C:\TMP\nn_denoise_rtc_sample.elf.ItDyV2.ltrans0.ltrans.o
                0x000000001ff56122                find_id.constprop.0
 .text.ci_eq_deal.constprop.0
                0x000000001ff56168      0x4de C:\TMP\nn_denoise_rtc_sample.elf.ItDyV2.ltrans0.ltrans.o
                0x000000001ff56168                ci_eq_deal.constprop.0
 .text.cias_speex_compressed_data.constprop.0
                0x000000001ff56646       0xf2 C:\TMP\nn_denoise_rtc_sample.elf.ItDyV2.ltrans0.ltrans.o
                0x000000001ff56646                cias_speex_compressed_data.constprop.0
 .text.dpmu_unlock_cfg_config
                0x000000001ff56738       0x12 C:\TMP\nn_denoise_rtc_sample.elf.ItDyV2.ltrans0.ltrans.o
                0x000000001ff56738                dpmu_unlock_cfg_config
 .text.dpmu_config_update_en
                0x000000001ff5674a       0x3c C:\TMP\nn_denoise_rtc_sample.elf.ItDyV2.ltrans0.ltrans.o
                0x000000001ff5674a                dpmu_config_update_en
 .text.dpmu_ldo3_lv_set
                0x000000001ff56786       0x34 C:\TMP\nn_denoise_rtc_sample.elf.ItDyV2.ltrans0.ltrans.o
                0x000000001ff56786                dpmu_ldo3_lv_set
 .text.dpmu_ldo2_lv_set
                0x000000001ff567ba       0x30 C:\TMP\nn_denoise_rtc_sample.elf.ItDyV2.ltrans0.ltrans.o
                0x000000001ff567ba                dpmu_ldo2_lv_set
 .text.dpmu_ldo1_lv_set
                0x000000001ff567ea       0x2a C:\TMP\nn_denoise_rtc_sample.elf.ItDyV2.ltrans0.ltrans.o
                0x000000001ff567ea                dpmu_ldo1_lv_set
 .text.dpmu_set_pmu_trim_value
                0x000000001ff56814       0x34 C:\TMP\nn_denoise_rtc_sample.elf.ItDyV2.ltrans0.ltrans.o
                0x000000001ff56814                dpmu_set_pmu_trim_value
 .text.dpmu_set_io_pull
                0x000000001ff56848       0x7a C:\TMP\nn_denoise_rtc_sample.elf.ItDyV2.ltrans0.ltrans.o
                0x000000001ff56848                dpmu_set_io_pull
 .text.dpmu_set_io_reuse
                0x000000001ff568c2      0x130 C:\TMP\nn_denoise_rtc_sample.elf.ItDyV2.ltrans0.ltrans.o
                0x000000001ff568c2                dpmu_set_io_reuse
 .text.dpmu_software_reset_system_config
                0x000000001ff569f2       0x2e C:\TMP\nn_denoise_rtc_sample.elf.ItDyV2.ltrans0.ltrans.o
                0x000000001ff569f2                dpmu_software_reset_system_config
 .text.dpmu_get_pll_frequency
                0x000000001ff56a20       0x3e C:\TMP\nn_denoise_rtc_sample.elf.ItDyV2.ltrans0.ltrans.o
                0x000000001ff56a20                dpmu_get_pll_frequency
 .text.efuse_read_data
                0x000000001ff56a5e        0xe C:\TMP\nn_denoise_rtc_sample.elf.ItDyV2.ltrans0.ltrans.o
                0x000000001ff56a5e                efuse_read_data
 .text.AON_EFUSE_IRQHandler
                0x000000001ff56a6c       0x72 C:\TMP\nn_denoise_rtc_sample.elf.ItDyV2.ltrans0.ltrans.o
                0x000000001ff56a6c                AON_EFUSE_IRQHandler
 .text.efuse_check_idle
                0x000000001ff56ade        0xe C:\TMP\nn_denoise_rtc_sample.elf.ItDyV2.ltrans0.ltrans.o
                0x000000001ff56ade                efuse_check_idle
 .text.efuse_read_start
                0x000000001ff56aec        0xe C:\TMP\nn_denoise_rtc_sample.elf.ItDyV2.ltrans0.ltrans.o
                0x000000001ff56aec                efuse_read_start
 .text.efuse_clk_freq_sel
                0x000000001ff56afa       0x10 C:\TMP\nn_denoise_rtc_sample.elf.ItDyV2.ltrans0.ltrans.o
                0x000000001ff56afa                efuse_clk_freq_sel
 .text.scu_unlock_reset_config
                0x000000001ff56b0a       0x12 C:\TMP\nn_denoise_rtc_sample.elf.ItDyV2.ltrans0.ltrans.o
                0x000000001ff56b0a                scu_unlock_reset_config
 .text.scu_set_device_reset_release
                0x000000001ff56b1c      0x146 C:\TMP\nn_denoise_rtc_sample.elf.ItDyV2.ltrans0.ltrans.o
                0x000000001ff56b1c                scu_set_device_reset_release
 .text.scu_set_device_reset
                0x000000001ff56c62      0x150 C:\TMP\nn_denoise_rtc_sample.elf.ItDyV2.ltrans0.ltrans.o
                0x000000001ff56c62                scu_set_device_reset
 .text.scu_unlock_clk_config
                0x000000001ff56db2       0x12 C:\TMP\nn_denoise_rtc_sample.elf.ItDyV2.ltrans0.ltrans.o
                0x000000001ff56db2                scu_unlock_clk_config
 .text.scu_iis_codec_mclk_config
                0x000000001ff56dc4       0x8e C:\TMP\nn_denoise_rtc_sample.elf.ItDyV2.ltrans0.ltrans.o
                0x000000001ff56dc4                scu_iis_codec_mclk_config
 .text.scu_iis_pad_mclk_config
                0x000000001ff56e52       0x74 C:\TMP\nn_denoise_rtc_sample.elf.ItDyV2.ltrans0.ltrans.o
                0x000000001ff56e52                scu_iis_pad_mclk_config
 .text.scu_iis_pad_clk_config
                0x000000001ff56ec6       0x74 C:\TMP\nn_denoise_rtc_sample.elf.ItDyV2.ltrans0.ltrans.o
                0x000000001ff56ec6                scu_iis_pad_clk_config
 .text.scu_iis_clk_config
                0x000000001ff56f3a       0xb2 C:\TMP\nn_denoise_rtc_sample.elf.ItDyV2.ltrans0.ltrans.o
                0x000000001ff56f3a                scu_iis_clk_config
 .text.scu_iis_mclk_Config
                0x000000001ff56fec       0x92 C:\TMP\nn_denoise_rtc_sample.elf.ItDyV2.ltrans0.ltrans.o
                0x000000001ff56fec                scu_iis_mclk_Config
 .text.scu_set_device_gate
                0x000000001ff5707e      0x1de C:\TMP\nn_denoise_rtc_sample.elf.ItDyV2.ltrans0.ltrans.o
                0x000000001ff5707e                scu_set_device_gate
 .text.scu_unlock_system_config
                0x000000001ff5725c       0x12 C:\TMP\nn_denoise_rtc_sample.elf.ItDyV2.ltrans0.ltrans.o
                0x000000001ff5725c                scu_unlock_system_config
 .text.dpmu_pll_config.constprop.0
                0x000000001ff5726e      0x15c C:\TMP\nn_denoise_rtc_sample.elf.ItDyV2.ltrans0.ltrans.o
                0x000000001ff5726e                dpmu_pll_config.constprop.0
 .text.MAIL_BOX_IRQHandler
                0x000000001ff573ca       0x52 C:\TMP\nn_denoise_rtc_sample.elf.ItDyV2.ltrans0.ltrans.o
                0x000000001ff573ca                MAIL_BOX_IRQHandler
 .text.xPortSetInterruptMask
                0x000000001ff5741c       0x1e C:\TMP\nn_denoise_rtc_sample.elf.ItDyV2.ltrans0.ltrans.o
                0x000000001ff5741c                xPortSetInterruptMask
 .text.xQueueGenericSendFromISR.constprop.0
                0x000000001ff5743a       0x70 C:\TMP\nn_denoise_rtc_sample.elf.ItDyV2.ltrans0.ltrans.o
                0x000000001ff5743a                xQueueGenericSendFromISR.constprop.0
 .text.vPortExitCritical
                0x000000001ff574aa       0x1a C:\TMP\nn_denoise_rtc_sample.elf.ItDyV2.ltrans0.ltrans.o
                0x000000001ff574aa                vPortExitCritical
 .text.vPortEnterCritical
                0x000000001ff574c4       0x24 C:\TMP\nn_denoise_rtc_sample.elf.ItDyV2.ltrans0.ltrans.o
                0x000000001ff574c4                vPortEnterCritical
 .text.vPortSetup
                0x000000001ff574e8       0x9e C:\TMP\nn_denoise_rtc_sample.elf.ItDyV2.ltrans0.ltrans.o
                0x000000001ff574e8                vPortSetup
 .text.vDoTaskSwitchContext
                0x000000001ff57586       0x76 C:\TMP\nn_denoise_rtc_sample.elf.ItDyV2.ltrans0.ltrans.o
                0x000000001ff57586                vDoTaskSwitchContext
 .text.taskswitch
                0x000000001ff575fc       0x14 C:\TMP\nn_denoise_rtc_sample.elf.ItDyV2.ltrans0.ltrans.o
                0x000000001ff575fc                taskswitch
 .text.vPortClearMSIPInt
                0x000000001ff57610       0x12 C:\TMP\nn_denoise_rtc_sample.elf.ItDyV2.ltrans0.ltrans.o
                0x000000001ff57610                vPortClearMSIPInt
 .text.vPortSetMSIPInt
                0x000000001ff57622       0x1a C:\TMP\nn_denoise_rtc_sample.elf.ItDyV2.ltrans0.ltrans.o
                0x000000001ff57622                vPortSetMSIPInt
 .text.xTaskGenericNotify.constprop.0
                0x000000001ff5763c       0x64 C:\TMP\nn_denoise_rtc_sample.elf.ItDyV2.ltrans0.ltrans.o
                0x000000001ff5763c                xTaskGenericNotify.constprop.0
 .text.xTaskNotifyWait.constprop.0
                0x000000001ff576a0       0x6e C:\TMP\nn_denoise_rtc_sample.elf.ItDyV2.ltrans0.ltrans.o
                0x000000001ff576a0                xTaskNotifyWait.constprop.0
 .text.xTaskCreate.constprop.0
                0x000000001ff5770e      0x1fc C:\TMP\nn_denoise_rtc_sample.elf.ItDyV2.ltrans0.ltrans.o
                0x000000001ff5770e                xTaskCreate.constprop.0
 .text.vPortSysTickHandler
                0x000000001ff5790a       0x60 C:\TMP\nn_denoise_rtc_sample.elf.ItDyV2.ltrans0.ltrans.o
                0x000000001ff5790a                vPortSysTickHandler
 .text.flash_manage_give_op_done_sem
                0x000000001ff5796a       0x4c C:\TMP\nn_denoise_rtc_sample.elf.ItDyV2.ltrans0.ltrans.o
 .text.flash_manage_nuclear_com_outside_serve_cb.lto_priv.0
                0x000000001ff579b6       0x42 C:\TMP\nn_denoise_rtc_sample.elf.ItDyV2.ltrans0.ltrans.o
                0x000000001ff579b6                flash_manage_nuclear_com_outside_serve_cb.lto_priv.0
 .text.speex_decoder_ctl
                0x000000001ff579f8        0xe C:\TMP\nn_denoise_rtc_sample.elf.ItDyV2.ltrans0.ltrans.o
                0x000000001ff579f8                speex_decoder_ctl
 .text.speex_decode_int.constprop.0
                0x000000001ff57a06       0xfe C:\TMP\nn_denoise_rtc_sample.elf.ItDyV2.ltrans0.ltrans.o
                0x000000001ff57a06                speex_decode_int.constprop.0
 .text.sb_decoder_ctl
                0x000000001ff57b04      0x1bc C:\TMP\nn_denoise_rtc_sample.elf.ItDyV2.ltrans0.ltrans.o
                0x000000001ff57b04                sb_decoder_ctl
 .text.speex_encoder_ctl
                0x000000001ff57cc0        0xe C:\TMP\nn_denoise_rtc_sample.elf.ItDyV2.ltrans0.ltrans.o
                0x000000001ff57cc0                speex_encoder_ctl
 .text.sb_encode
                0x000000001ff57cce      0xa6c C:\TMP\nn_denoise_rtc_sample.elf.ItDyV2.ltrans0.ltrans.o
                0x000000001ff57cce                sb_encode
 .text.sb_encoder_ctl
                0x000000001ff5873a      0x232 C:\TMP\nn_denoise_rtc_sample.elf.ItDyV2.ltrans0.ltrans.o
                0x000000001ff5873a                sb_encoder_ctl
 .text.nb_encoder_ctl
                0x000000001ff5896c      0x26c C:\TMP\nn_denoise_rtc_sample.elf.ItDyV2.ltrans0.ltrans.o
                0x000000001ff5896c                nb_encoder_ctl
 .text.speex_notify.lto_priv.0.lto_priv.0
                0x000000001ff58bd8       0x1c C:\TMP\nn_denoise_rtc_sample.elf.ItDyV2.ltrans0.ltrans.o
                0x000000001ff58bd8                speex_notify.lto_priv.0.lto_priv.0
 .text.sb_decode
                0x000000001ff58bf4      0x5e2 C:\TMP\nn_denoise_rtc_sample.elf.ItDyV2.ltrans0.ltrans.o
                0x000000001ff58bf4                sb_decode
 .text.nb_decode
                0x000000001ff591d6      0xeb0 C:\TMP\nn_denoise_rtc_sample.elf.ItDyV2.ltrans0.ltrans.o
                0x000000001ff591d6                nb_decode
 .text.speex_alloc.lto_priv.0.lto_priv.0
                0x000000001ff5a086        0xe C:\TMP\nn_denoise_rtc_sample.elf.ItDyV2.ltrans0.ltrans.o
                0x000000001ff5a086                speex_alloc.lto_priv.0.lto_priv.0
 .text.sb_decoder_init
                0x000000001ff5a094       0xde C:\TMP\nn_denoise_rtc_sample.elf.ItDyV2.ltrans0.ltrans.o
                0x000000001ff5a094                sb_decoder_init
 .text.nb_decoder_init
                0x000000001ff5a172       0xd2 C:\TMP\nn_denoise_rtc_sample.elf.ItDyV2.ltrans0.ltrans.o
                0x000000001ff5a172                nb_decoder_init
 .text.xQueueGenericSend.constprop.0
                0x000000001ff5a244       0xe8 C:\TMP\nn_denoise_rtc_sample.elf.ItDyV2.ltrans0.ltrans.o
                0x000000001ff5a244                xQueueGenericSend.constprop.0
 .text.xQueueCreateMutex.constprop.0
                0x000000001ff5a32c       0x2c C:\TMP\nn_denoise_rtc_sample.elf.ItDyV2.ltrans0.ltrans.o
                0x000000001ff5a32c                xQueueCreateMutex.constprop.0
 .text.xTimerGenericCommand.constprop.0
                0x000000001ff5a358       0x2c C:\TMP\nn_denoise_rtc_sample.elf.ItDyV2.ltrans0.ltrans.o
                0x000000001ff5a358                xTimerGenericCommand.constprop.0
 .text.prompt_play_by_cmd_string.constprop.0
                0x000000001ff5a384       0x8c C:\TMP\nn_denoise_rtc_sample.elf.ItDyV2.ltrans0.ltrans.o
 .text.give_flash_sem.lto_priv.0
                0x000000001ff5a410       0x1c C:\TMP\nn_denoise_rtc_sample.elf.ItDyV2.ltrans0.ltrans.o
                0x000000001ff5a410                give_flash_sem.lto_priv.0
 .text.xStreamBufferReceive.constprop.0
                0x000000001ff5a42c       0xc6 C:\TMP\nn_denoise_rtc_sample.elf.ItDyV2.ltrans0.ltrans.o
                0x000000001ff5a42c                xStreamBufferReceive.constprop.0
 .text.IISDMA_ChannelIntENConfig.constprop.0
                0x000000001ff5a4f2       0x58 C:\TMP\nn_denoise_rtc_sample.elf.ItDyV2.ltrans0.ltrans.o
                0x000000001ff5a4f2                IISDMA_ChannelIntENConfig.constprop.0
 .text.cm_write_codec.constprop.0
                0x000000001ff5a54a       0x8e C:\TMP\nn_denoise_rtc_sample.elf.ItDyV2.ltrans0.ltrans.o
                0x000000001ff5a54a                cm_write_codec.constprop.0
 .text.cm_get_pcm_buffer.constprop.0
                0x000000001ff5a5d8       0x82 C:\TMP\nn_denoise_rtc_sample.elf.ItDyV2.ltrans0.ltrans.o
                0x000000001ff5a5d8                cm_get_pcm_buffer.constprop.0
 .text.iis_audio_choose.constprop.0
                0x000000001ff5a65a       0x98 C:\TMP\nn_denoise_rtc_sample.elf.ItDyV2.ltrans0.ltrans.o
                0x000000001ff5a65a                iis_audio_choose.constprop.0
 .text.rc_callee_alg_aes_type_tip
                0x000000001ff5a6f2       0x1e C:\TMP\nn_denoise_rtc_sample.elf.ItDyV2.ltrans0.ltrans.o
                0x000000001ff5a6f2                rc_callee_alg_aes_type_tip
 .text.rc_callee_npu_ifft_data_handle_in_host
                0x000000001ff5a710       0x8a C:\TMP\nn_denoise_rtc_sample.elf.ItDyV2.ltrans0.ltrans.o
                0x000000001ff5a710                rc_callee_npu_ifft_data_handle_in_host
 .text.rc_callee_free_in_host
                0x000000001ff5a79a       0x40 C:\TMP\nn_denoise_rtc_sample.elf.ItDyV2.ltrans0.ltrans.o
                0x000000001ff5a79a                rc_callee_free_in_host
 .text.mailbox_send_msg
                0x000000001ff5a7da       0xb8 C:\TMP\nn_denoise_rtc_sample.elf.ItDyV2.ltrans0.ltrans.o
                0x000000001ff5a7da                mailbox_send_msg
 .text.nuclear_com_send.constprop.0
                0x000000001ff5a892       0xb8 C:\TMP\nn_denoise_rtc_sample.elf.ItDyV2.ltrans0.ltrans.o
 .text.send_voice_info_to_audio_in_manage.constprop.0
                0x000000001ff5a94a       0x3a C:\TMP\nn_denoise_rtc_sample.elf.ItDyV2.ltrans0.ltrans.o
                0x000000001ff5a94a                send_voice_info_to_audio_in_manage.constprop.0
 .text.flash_manage_ept_cal_serve_rpmsg.lto_priv.0
                0x000000001ff5a984       0x1c C:\TMP\nn_denoise_rtc_sample.elf.ItDyV2.ltrans0.ltrans.o
                0x000000001ff5a984                flash_manage_ept_cal_serve_rpmsg.lto_priv.0
 .text.remote_call_task.lto_priv.0
                0x000000001ff5a9a0       0xfe C:\TMP\nn_denoise_rtc_sample.elf.ItDyV2.ltrans0.ltrans.o
                0x000000001ff5a9a0                remote_call_task.lto_priv.0
 .text.nuclear_com_irq_handler
                0x000000001ff5aa9e      0x176 C:\TMP\nn_denoise_rtc_sample.elf.ItDyV2.ltrans0.ltrans.o
                0x000000001ff5aa9e                nuclear_com_irq_handler
 .text.ulSynchTrap
                0x000000001ff5ac14      0x110 C:\TMP\nn_denoise_rtc_sample.elf.ItDyV2.ltrans0.ltrans.o
                0x000000001ff5ac14                ulSynchTrap
 .text.flash_manage_req_wait_op_done_sem
                0x000000001ff5ad24       0xca C:\TMP\nn_denoise_rtc_sample.elf.ItDyV2.ltrans0.ltrans.o
 .text.wait_flash_sem
                0x000000001ff5adee       0x3e C:\TMP\nn_denoise_rtc_sample.elf.ItDyV2.ltrans0.ltrans.o
 .text.post_erase_flash.constprop.0
                0x000000001ff5ae2c       0x70 C:\TMP\nn_denoise_rtc_sample.elf.ItDyV2.ltrans0.ltrans.o
                0x000000001ff5ae2c                post_erase_flash.constprop.0
 .text.post_spic_read_unique_id
                0x000000001ff5ae9c       0x36 C:\TMP\nn_denoise_rtc_sample.elf.ItDyV2.ltrans0.ltrans.o
 .text.post_write_flash
                0x000000001ff5aed2       0x3e C:\TMP\nn_denoise_rtc_sample.elf.ItDyV2.ltrans0.ltrans.o
                0x000000001ff5aed2                post_write_flash
 .text.post_read_flash
                0x000000001ff5af10       0x94 C:\TMP\nn_denoise_rtc_sample.elf.ItDyV2.ltrans0.ltrans.o
                0x000000001ff5af10                post_read_flash
 .text.write_item.constprop.0
                0x000000001ff5afa4      0x11c C:\TMP\nn_denoise_rtc_sample.elf.ItDyV2.ltrans0.ltrans.o
 .text.init_item.constprop.0
                0x000000001ff5b0c0       0xba C:\TMP\nn_denoise_rtc_sample.elf.ItDyV2.ltrans0.ltrans.o
                0x000000001ff5b0c0                init_item.constprop.0
 .text.rc_callee_flash_get_en_data
                0x000000001ff5b17a       0x1c C:\TMP\nn_denoise_rtc_sample.elf.ItDyV2.ltrans0.ltrans.o
                0x000000001ff5b17a                rc_callee_flash_get_en_data
 .text.decoder_rpmsg_serve_cb
                0x000000001ff5b196      0x2a4 C:\TMP\nn_denoise_rtc_sample.elf.ItDyV2.ltrans0.ltrans.o
                0x000000001ff5b196                decoder_rpmsg_serve_cb
 .text.asr_top_outside_serve_cb
                0x000000001ff5b43a       0x76 C:\TMP\nn_denoise_rtc_sample.elf.ItDyV2.ltrans0.ltrans.o
                0x000000001ff5b43a                asr_top_outside_serve_cb
 .text.sb_encoder_destroy
                0x000000001ff5b4b0       0x6c C:\TMP\nn_denoise_rtc_sample.elf.ItDyV2.ltrans0.ltrans.o
                0x000000001ff5b4b0                sb_encoder_destroy
 .text.sb_encoder_init
                0x000000001ff5b51c      0x166 C:\TMP\nn_denoise_rtc_sample.elf.ItDyV2.ltrans0.ltrans.o
                0x000000001ff5b51c                sb_encoder_init
 .text.nb_encoder_destroy
                0x000000001ff5b682       0x2e C:\TMP\nn_denoise_rtc_sample.elf.ItDyV2.ltrans0.ltrans.o
                0x000000001ff5b682                nb_encoder_destroy
 .text.nb_encoder_init
                0x000000001ff5b6b0       0xe8 C:\TMP\nn_denoise_rtc_sample.elf.ItDyV2.ltrans0.ltrans.o
                0x000000001ff5b6b0                nb_encoder_init
 .text.other_func_serve_cb
                0x000000001ff5b798       0x1a C:\TMP\nn_denoise_rtc_sample.elf.ItDyV2.ltrans1.ltrans.o
 .text.icodec_ioctl
                0x000000001ff5b7b2      0x128 C:\TMP\nn_denoise_rtc_sample.elf.ItDyV2.ltrans1.ltrans.o
 .text.icodec_config
                0x000000001ff5b8da      0x112 C:\TMP\nn_denoise_rtc_sample.elf.ItDyV2.ltrans1.ltrans.o
 .text.icodec_stop
                0x000000001ff5b9ec       0x20 C:\TMP\nn_denoise_rtc_sample.elf.ItDyV2.ltrans1.ltrans.o
 .text.convert_left_and_right
                0x000000001ff5ba0c        0x6 C:\TMP\nn_denoise_rtc_sample.elf.ItDyV2.ltrans1.ltrans.o
 .text.uart_dma_read_irq_callback
                0x000000001ff5ba12        0x8 C:\TMP\nn_denoise_rtc_sample.elf.ItDyV2.ltrans1.ltrans.o
 .text.prvInsertBlockIntoFreeList
                0x000000001ff5ba1a       0x42 C:\TMP\nn_denoise_rtc_sample.elf.ItDyV2.ltrans1.ltrans.o
 .text.prvResetNextTaskUnblockTime
                0x000000001ff5ba5c       0x1e C:\TMP\nn_denoise_rtc_sample.elf.ItDyV2.ltrans1.ltrans.o
 .text.prvWriteBytesToBuffer
                0x000000001ff5ba7a       0x58 C:\TMP\nn_denoise_rtc_sample.elf.ItDyV2.ltrans1.ltrans.o
 .text.prvCopyDataFromQueue
                0x000000001ff5bad2       0x2c C:\TMP\nn_denoise_rtc_sample.elf.ItDyV2.ltrans1.ltrans.o
 .text.vListInsert
                0x000000001ff5bafe       0x2e C:\TMP\nn_denoise_rtc_sample.elf.ItDyV2.ltrans1.ltrans.o
 .text.prvInsertTimerInActiveList
                0x000000001ff5bb2c       0x3e C:\TMP\nn_denoise_rtc_sample.elf.ItDyV2.ltrans1.ltrans.o
 .text.speex_bits_init
                0x000000001ff5bb6a       0x34 C:\TMP\nn_denoise_rtc_sample.elf.ItDyV2.ltrans1.ltrans.o
 .text.speex_warning
                0x000000001ff5bb9e       0x1c C:\TMP\nn_denoise_rtc_sample.elf.ItDyV2.ltrans1.ltrans.o
 .text.iis_clk_gate
                0x000000001ff5bbba       0x50 C:\TMP\nn_denoise_rtc_sample.elf.ItDyV2.ltrans1.ltrans.o
 .text.pad_config_for_uart.part.0
                0x000000001ff5bc0a       0x20 C:\TMP\nn_denoise_rtc_sample.elf.ItDyV2.ltrans1.ltrans.o
 .text.pad_config_for_uart
                0x000000001ff5bc2a       0x54 C:\TMP\nn_denoise_rtc_sample.elf.ItDyV2.ltrans1.ltrans.o
 .text.audio_pre_rslt_write_data_from_uart
                0x000000001ff5bc7e      0x17a C:\TMP\nn_denoise_rtc_sample.elf.ItDyV2.ltrans1.ltrans.o
 .text.speex_bits_remaining
                0x000000001ff5bdf8       0x16 C:\TMP\nn_denoise_rtc_sample.elf.ItDyV2.ltrans1.ltrans.o
                0x000000001ff5bdf8                speex_bits_remaining
 .text.speex_bits_advance
                0x000000001ff5be0e       0x2c C:\TMP\nn_denoise_rtc_sample.elf.ItDyV2.ltrans1.ltrans.o
                0x000000001ff5be0e                speex_bits_advance
 .text.speex_bits_unpack_unsigned
                0x000000001ff5be3a       0x58 C:\TMP\nn_denoise_rtc_sample.elf.ItDyV2.ltrans1.ltrans.o
                0x000000001ff5be3a                speex_bits_unpack_unsigned
 .text.speex_bits_pack
                0x000000001ff5be92       0xae C:\TMP\nn_denoise_rtc_sample.elf.ItDyV2.ltrans1.ltrans.o
                0x000000001ff5be92                speex_bits_pack
 .text.UART0_IRQHandler
                0x000000001ff5bf40       0x80 C:\TMP\nn_denoise_rtc_sample.elf.ItDyV2.ltrans1.ltrans.o
                0x000000001ff5bf40                UART0_IRQHandler
 .text.get_src_clk
                0x000000001ff5bfc0        0xc C:\TMP\nn_denoise_rtc_sample.elf.ItDyV2.ltrans1.ltrans.o
                0x000000001ff5bfc0                get_src_clk
 .text.check_curr_trap
                0x000000001ff5bfcc        0xe C:\TMP\nn_denoise_rtc_sample.elf.ItDyV2.ltrans1.ltrans.o
                0x000000001ff5bfcc                check_curr_trap
 .text.eclic_set_irq_lvl_abs.lto_priv.0
                0x000000001ff5bfda       0x4a C:\TMP\nn_denoise_rtc_sample.elf.ItDyV2.ltrans1.ltrans.o
                0x000000001ff5bfda                eclic_set_irq_lvl_abs.lto_priv.0
 .text.init_irq_pri
                0x000000001ff5c024       0x22 C:\TMP\nn_denoise_rtc_sample.elf.ItDyV2.ltrans1.ltrans.o
 .text.write_feb_status.lto_priv.0
                0x000000001ff5c046       0x4e C:\TMP\nn_denoise_rtc_sample.elf.ItDyV2.ltrans1.ltrans.o
                0x000000001ff5c046                write_feb_status.lto_priv.0
 .text.write_item_status.lto_priv.0
                0x000000001ff5c094       0x7c C:\TMP\nn_denoise_rtc_sample.elf.ItDyV2.ltrans1.ltrans.o
                0x000000001ff5c094                write_item_status.lto_priv.0
 .text.hotid_update.lto_priv.0
                0x000000001ff5c110       0x1c C:\TMP\nn_denoise_rtc_sample.elf.ItDyV2.ltrans1.ltrans.o
                0x000000001ff5c110                hotid_update.lto_priv.0
 .text.traverse_feb.lto_priv.0
                0x000000001ff5c12c      0x25a C:\TMP\nn_denoise_rtc_sample.elf.ItDyV2.ltrans1.ltrans.o
                0x000000001ff5c12c                traverse_feb.lto_priv.0
 .text.find_item.lto_priv.0
                0x000000001ff5c386       0x54 C:\TMP\nn_denoise_rtc_sample.elf.ItDyV2.ltrans1.ltrans.o
                0x000000001ff5c386                find_item.lto_priv.0
 .text.erase_feb.lto_priv.0
                0x000000001ff5c3da       0x2e C:\TMP\nn_denoise_rtc_sample.elf.ItDyV2.ltrans1.ltrans.o
                0x000000001ff5c3da                erase_feb.lto_priv.0
 .text.ciss_set
                0x000000001ff5c408       0x16 C:\TMP\nn_denoise_rtc_sample.elf.ItDyV2.ltrans1.ltrans.o
                0x000000001ff5c408                ciss_set
 .text._printf  0x000000001ff5c41e       0x76 C:\TMP\nn_denoise_rtc_sample.elf.ItDyV2.ltrans1.ltrans.o
                0x000000001ff5c41e                _printf
 .text.UART2_IRQHandler
                0x000000001ff5c494       0xb0 C:\TMP\nn_denoise_rtc_sample.elf.ItDyV2.ltrans1.ltrans.o
                0x000000001ff5c494                UART2_IRQHandler
 .text.IIC0_IRQHandler
                0x000000001ff5c544      0x27a C:\TMP\nn_denoise_rtc_sample.elf.ItDyV2.ltrans1.ltrans.o
                0x000000001ff5c544                IIC0_IRQHandler
 .text.iis_wait_load_ctrl
                0x000000001ff5c7be       0x38 C:\TMP\nn_denoise_rtc_sample.elf.ItDyV2.ltrans1.ltrans.o
 .text.IISxDMA_TADDR0.part.0
                0x000000001ff5c7f6       0x2c C:\TMP\nn_denoise_rtc_sample.elf.ItDyV2.ltrans1.ltrans.o
 .text.IISDMA_ADDRRollBackINT.part.0
                0x000000001ff5c822       0x2c C:\TMP\nn_denoise_rtc_sample.elf.ItDyV2.ltrans1.ltrans.o
 .text.get_iis_dma_channel
                0x000000001ff5c84e       0x58 C:\TMP\nn_denoise_rtc_sample.elf.ItDyV2.ltrans1.ltrans.o
 .text.init_iis.isra.0
                0x000000001ff5c8a6       0x8a C:\TMP\nn_denoise_rtc_sample.elf.ItDyV2.ltrans1.ltrans.o
 .text.cm_reg_codec.part.0
                0x000000001ff5c930      0x172 C:\TMP\nn_denoise_rtc_sample.elf.ItDyV2.ltrans1.ltrans.o
 .text.xTaskGetSchedulerState
                0x000000001ff5caa2       0x14 C:\TMP\nn_denoise_rtc_sample.elf.ItDyV2.ltrans1.ltrans.o
                0x000000001ff5caa2                xTaskGetSchedulerState
 .text.cinv_port_mutex_give
                0x000000001ff5cab6       0x34 C:\TMP\nn_denoise_rtc_sample.elf.ItDyV2.ltrans1.ltrans.o
 .text.xTaskCheckForTimeOut
                0x000000001ff5caea       0x60 C:\TMP\nn_denoise_rtc_sample.elf.ItDyV2.ltrans1.ltrans.o
                0x000000001ff5caea                xTaskCheckForTimeOut
 .text.vTaskSuspendAll
                0x000000001ff5cb4a        0xc C:\TMP\nn_denoise_rtc_sample.elf.ItDyV2.ltrans1.ltrans.o
                0x000000001ff5cb4a                vTaskSuspendAll
 .text.prvBytesInBuffer.lto_priv.0
                0x000000001ff5cb56       0x14 C:\TMP\nn_denoise_rtc_sample.elf.ItDyV2.ltrans1.ltrans.o
                0x000000001ff5cb56                prvBytesInBuffer.lto_priv.0
 .text.prvReadBytesFromBuffer.lto_priv.0
                0x000000001ff5cb6a       0x5e C:\TMP\nn_denoise_rtc_sample.elf.ItDyV2.ltrans1.ltrans.o
                0x000000001ff5cb6a                prvReadBytesFromBuffer.lto_priv.0
 .text.uxListRemove
                0x000000001ff5cbc8       0x20 C:\TMP\nn_denoise_rtc_sample.elf.ItDyV2.ltrans1.ltrans.o
                0x000000001ff5cbc8                uxListRemove
 .text.prvSwitchTimerLists
                0x000000001ff5cbe8       0x62 C:\TMP\nn_denoise_rtc_sample.elf.ItDyV2.ltrans1.ltrans.o
 .text.vListInsertEnd
                0x000000001ff5cc4a       0x18 C:\TMP\nn_denoise_rtc_sample.elf.ItDyV2.ltrans1.ltrans.o
                0x000000001ff5cc4a                vListInsertEnd
 .text.prvAddCurrentTaskToDelayedList.lto_priv.0
                0x000000001ff5cc62       0x70 C:\TMP\nn_denoise_rtc_sample.elf.ItDyV2.ltrans1.ltrans.o
                0x000000001ff5cc62                prvAddCurrentTaskToDelayedList.lto_priv.0
 .text.vTaskPlaceOnEventList
                0x000000001ff5ccd2       0x1c C:\TMP\nn_denoise_rtc_sample.elf.ItDyV2.ltrans1.ltrans.o
                0x000000001ff5ccd2                vTaskPlaceOnEventList
 .text.xTaskRemoveFromEventList
                0x000000001ff5ccee       0x70 C:\TMP\nn_denoise_rtc_sample.elf.ItDyV2.ltrans1.ltrans.o
                0x000000001ff5ccee                xTaskRemoveFromEventList
 .text.prvUnlockQueue.lto_priv.0
                0x000000001ff5cd5e       0x7a C:\TMP\nn_denoise_rtc_sample.elf.ItDyV2.ltrans1.ltrans.o
                0x000000001ff5cd5e                prvUnlockQueue.lto_priv.0
 .text.xQueueReceiveFromISR
                0x000000001ff5cdd8       0x72 C:\TMP\nn_denoise_rtc_sample.elf.ItDyV2.ltrans1.ltrans.o
                0x000000001ff5cdd8                xQueueReceiveFromISR
 .text.cm_output_interrupt_handler
                0x000000001ff5ce4a       0xf6 C:\TMP\nn_denoise_rtc_sample.elf.ItDyV2.ltrans1.ltrans.o
 .text.xQueueGiveFromISR
                0x000000001ff5cf40       0x60 C:\TMP\nn_denoise_rtc_sample.elf.ItDyV2.ltrans1.ltrans.o
                0x000000001ff5cf40                xQueueGiveFromISR
 .text.cm_input_interrupt_handler
                0x000000001ff5cfa0       0x7c C:\TMP\nn_denoise_rtc_sample.elf.ItDyV2.ltrans1.ltrans.o
 .text.IIS_DMA_IRQHandler
                0x000000001ff5d01c      0x112 C:\TMP\nn_denoise_rtc_sample.elf.ItDyV2.ltrans1.ltrans.o
                0x000000001ff5d01c                IIS_DMA_IRQHandler
 .text.xTaskIncrementTick
                0x000000001ff5d12e       0xea C:\TMP\nn_denoise_rtc_sample.elf.ItDyV2.ltrans1.ltrans.o
                0x000000001ff5d12e                xTaskIncrementTick
 .text.xTaskResumeAll
                0x000000001ff5d218       0xbe C:\TMP\nn_denoise_rtc_sample.elf.ItDyV2.ltrans1.ltrans.o
                0x000000001ff5d218                xTaskResumeAll
 .text.vPortFree
                0x000000001ff5d2d6       0x4a C:\TMP\nn_denoise_rtc_sample.elf.ItDyV2.ltrans1.ltrans.o
                0x000000001ff5d2d6                vPortFree
 .text.prvIdleTask
                0x000000001ff5d320       0x60 C:\TMP\nn_denoise_rtc_sample.elf.ItDyV2.ltrans1.ltrans.o
 .text.vQueueDelete
                0x000000001ff5d380       0x38 C:\TMP\nn_denoise_rtc_sample.elf.ItDyV2.ltrans1.ltrans.o
 .text.pvPortMalloc
                0x000000001ff5d3b8       0xf2 C:\TMP\nn_denoise_rtc_sample.elf.ItDyV2.ltrans1.ltrans.o
                0x000000001ff5d3b8                pvPortMalloc
 .text.realloc_buffer
                0x000000001ff5d4aa       0x3a C:\TMP\nn_denoise_rtc_sample.elf.ItDyV2.ltrans1.ltrans.o
 .text.get_file_addr
                0x000000001ff5d4e4       0xd2 C:\TMP\nn_denoise_rtc_sample.elf.ItDyV2.ltrans1.ltrans.o
 .text.get_current_model_addr
                0x000000001ff5d5b6       0x8e C:\TMP\nn_denoise_rtc_sample.elf.ItDyV2.ltrans1.ltrans.o
                0x000000001ff5d5b6                get_current_model_addr
 .text.flash_control_inner_serve_cb
                0x000000001ff5d644       0x76 C:\TMP\nn_denoise_rtc_sample.elf.ItDyV2.ltrans1.ltrans.o
 .text.prvListTasksWithinSingleList
                0x000000001ff5d6ba       0xca C:\TMP\nn_denoise_rtc_sample.elf.ItDyV2.ltrans1.ltrans.o
 .text.vTaskDelay
                0x000000001ff5d784       0x24 C:\TMP\nn_denoise_rtc_sample.elf.ItDyV2.ltrans1.ltrans.o
 .text.speex_record_data_task
                0x000000001ff5d7a8      0x144 C:\TMP\nn_denoise_rtc_sample.elf.ItDyV2.ltrans1.ltrans.o
 .text.xStreamBufferSend
                0x000000001ff5d8ec      0x104 C:\TMP\nn_denoise_rtc_sample.elf.ItDyV2.ltrans1.ltrans.o
 .text.xQueueReceive
                0x000000001ff5d9f0       0xec C:\TMP\nn_denoise_rtc_sample.elf.ItDyV2.ltrans1.ltrans.o
                0x000000001ff5d9f0                xQueueReceive
 .text.prvTimerTask
                0x000000001ff5dadc      0x1a8 C:\TMP\nn_denoise_rtc_sample.elf.ItDyV2.ltrans1.ltrans.o
 .text.xQueueSemaphoreTake
                0x000000001ff5dc84      0x222 C:\TMP\nn_denoise_rtc_sample.elf.ItDyV2.ltrans1.ltrans.o
                0x000000001ff5dc84                xQueueSemaphoreTake
 .text.cm_start_codec
                0x000000001ff5dea6      0x1da C:\TMP\nn_denoise_rtc_sample.elf.ItDyV2.ltrans1.ltrans.o
 .text.speex_play_data_task
                0x000000001ff5e080       0xf2 C:\TMP\nn_denoise_rtc_sample.elf.ItDyV2.ltrans1.ltrans.o
 .text.audio_pre_rslt_write_data
                0x000000001ff5e172       0xee C:\TMP\nn_denoise_rtc_sample.elf.ItDyV2.ltrans1.ltrans.o
 .text.ifft_data_handle_task_rtc
                0x000000001ff5e260       0xae C:\TMP\nn_denoise_rtc_sample.elf.ItDyV2.ltrans1.ltrans.o
 .text.codec_manage_inner_serve_cb
                0x000000001ff5e30e       0x9c C:\TMP\nn_denoise_rtc_sample.elf.ItDyV2.ltrans1.ltrans.o
 .text.cinv_port_mutex_take
                0x000000001ff5e3aa       0x32 C:\TMP\nn_denoise_rtc_sample.elf.ItDyV2.ltrans1.ltrans.o
 .text.uart_eq_param_cfg_task
                0x000000001ff5e3dc      0x5ea C:\TMP\nn_denoise_rtc_sample.elf.ItDyV2.ltrans1.ltrans.o
 .text.vListInitialise
                0x000000001ff5e9c6       0x14 C:\TMP\nn_denoise_rtc_sample.elf.ItDyV2.ltrans1.ltrans.o
                0x000000001ff5e9c6                vListInitialise
 .text.xQueueGenericCreate
                0x000000001ff5e9da       0x74 C:\TMP\nn_denoise_rtc_sample.elf.ItDyV2.ltrans1.ltrans.o
                0x000000001ff5e9da                xQueueGenericCreate
 .text.cm_config_pcm_buffer.part.0
                0x000000001ff5ea4e       0xfe C:\TMP\nn_denoise_rtc_sample.elf.ItDyV2.ltrans1.ltrans.o
 .text.xEventGroupSetBits
                0x000000001ff5eb4c       0xbc C:\TMP\nn_denoise_rtc_sample.elf.ItDyV2.ltrans1.ltrans.o
                0x000000001ff5eb4c                xEventGroupSetBits
 .text.vEventGroupSetBitsCallback
                0x000000001ff5ec08        0xc C:\TMP\nn_denoise_rtc_sample.elf.ItDyV2.ltrans1.ltrans.o
                0x000000001ff5ec08                vEventGroupSetBitsCallback
 .text.handle_trap
                0x000000001ff5ec14      0x11a C:\TMP\nn_denoise_rtc_sample.elf.ItDyV2.ltrans1.ltrans.o
                0x000000001ff5ec14                handle_trap
 .text._delay_10us_240M
                0x000000001ff5ed2e       0x2e C:\TMP\nn_denoise_rtc_sample.elf.ItDyV2.ltrans1.ltrans.o
                0x000000001ff5ed2e                _delay_10us_240M
 .text.UART_BAUDRATEConfig
                0x000000001ff5ed5c      0x45e C:\TMP\nn_denoise_rtc_sample.elf.ItDyV2.ltrans1.ltrans.o
 .text.speex_recv_data_task
                0x000000001ff5f1ba      0x210 C:\TMP\nn_denoise_rtc_sample.elf.ItDyV2.ltrans1.ltrans.o
 .text.GPIO_IRQ_Default_proc
                0x000000001ff5f3ca       0xc0 C:\TMP\nn_denoise_rtc_sample.elf.ItDyV2.ltrans1.ltrans.o
 .text.AON_PC_IRQHandler
                0x000000001ff5f48a       0x12 C:\TMP\nn_denoise_rtc_sample.elf.ItDyV2.ltrans1.ltrans.o
                0x000000001ff5f48a                AON_PC_IRQHandler
 .text.PB_IRQHandler
                0x000000001ff5f49c       0x12 C:\TMP\nn_denoise_rtc_sample.elf.ItDyV2.ltrans1.ltrans.o
                0x000000001ff5f49c                PB_IRQHandler
 .text.PA_IRQHandler
                0x000000001ff5f4ae       0x12 C:\TMP\nn_denoise_rtc_sample.elf.ItDyV2.ltrans1.ltrans.o
                0x000000001ff5f4ae                PA_IRQHandler
 .text.inner_codec_dac_enable
                0x000000001ff5f4c0       0xa2 C:\TMP\nn_denoise_rtc_sample.elf.ItDyV2.ltrans1.ltrans.o
 .text.icodec_start
                0x000000001ff5f562       0x1a C:\TMP\nn_denoise_rtc_sample.elf.ItDyV2.ltrans1.ltrans.o
 .text.icodec_init
                0x000000001ff5f57c       0x8a C:\TMP\nn_denoise_rtc_sample.elf.ItDyV2.ltrans1.ltrans.o
 .text.cm_config_codec.part.0
                0x000000001ff5f606      0x6b6 C:\TMP\nn_denoise_rtc_sample.elf.ItDyV2.ltrans1.ltrans.o
 .text.task_init
                0x000000001ff5fcbc     0x1530 C:\TMP\nn_denoise_rtc_sample.elf.ItDyV2.ltrans1.ltrans.o
 .text.audio_pre_rslt_out_play_card_init
                0x000000001ff611ec      0x17c C:\TMP\nn_denoise_rtc_sample.elf.ItDyV2.ltrans1.ltrans.o
 .text.audio_in_manage_inner_task_rtc
                0x000000001ff61368       0xc2 C:\TMP\nn_denoise_rtc_sample.elf.ItDyV2.ltrans1.ltrans.o
 .text.AON_TIM_INT1_IRQHandler
                0x000000001ff6142a        0x2 C:\TMP\nn_denoise_rtc_sample.elf.ItDyV2.ltrans1.ltrans.o
                0x000000001ff6142a                AON_TIM_INT1_IRQHandler
 .text.IWDG_IRQHandler
                0x000000001ff6142c        0x2 C:\TMP\nn_denoise_rtc_sample.elf.ItDyV2.ltrans1.ltrans.o
                0x000000001ff6142c                IWDG_IRQHandler
 .text.AON_TIM_INT0_IRQHandler
                0x000000001ff6142e        0x2 C:\TMP\nn_denoise_rtc_sample.elf.ItDyV2.ltrans1.ltrans.o
                0x000000001ff6142e                AON_TIM_INT0_IRQHandler
 .text.EXT1_IRQHandler
                0x000000001ff61430        0x2 C:\TMP\nn_denoise_rtc_sample.elf.ItDyV2.ltrans1.ltrans.o
                0x000000001ff61430                EXT1_IRQHandler
 .text.EXT0_IRQHandler
                0x000000001ff61432        0x2 C:\TMP\nn_denoise_rtc_sample.elf.ItDyV2.ltrans1.ltrans.o
                0x000000001ff61432                EXT0_IRQHandler
 .text.VDT_IRQHandler
                0x000000001ff61434        0x2 C:\TMP\nn_denoise_rtc_sample.elf.ItDyV2.ltrans1.ltrans.o
                0x000000001ff61434                VDT_IRQHandler
 .text.V11_OK_IRQHandler
                0x000000001ff61436        0x2 C:\TMP\nn_denoise_rtc_sample.elf.ItDyV2.ltrans1.ltrans.o
                0x000000001ff61436                V11_OK_IRQHandler
 .text.DTR_IRQHandler
                0x000000001ff61438        0x2 C:\TMP\nn_denoise_rtc_sample.elf.ItDyV2.ltrans1.ltrans.o
                0x000000001ff61438                DTR_IRQHandler
 .text.PDM_IRQHandler
                0x000000001ff6143a        0x2 C:\TMP\nn_denoise_rtc_sample.elf.ItDyV2.ltrans1.ltrans.o
                0x000000001ff6143a                PDM_IRQHandler
 .text.ALC_IRQHandler
                0x000000001ff6143c        0x2 C:\TMP\nn_denoise_rtc_sample.elf.ItDyV2.ltrans1.ltrans.o
                0x000000001ff6143c                ALC_IRQHandler
 .text.IIS2_IRQHandler
                0x000000001ff6143e        0x2 C:\TMP\nn_denoise_rtc_sample.elf.ItDyV2.ltrans1.ltrans.o
                0x000000001ff6143e                IIS2_IRQHandler
 .text.IIS1_IRQHandler
                0x000000001ff61440        0x2 C:\TMP\nn_denoise_rtc_sample.elf.ItDyV2.ltrans1.ltrans.o
                0x000000001ff61440                IIS1_IRQHandler
 .text.IIS0_IRQHandler
                0x000000001ff61442        0x2 C:\TMP\nn_denoise_rtc_sample.elf.ItDyV2.ltrans1.ltrans.o
                0x000000001ff61442                IIS0_IRQHandler
 .text.UART1_IRQHandler
                0x000000001ff61444        0x2 C:\TMP\nn_denoise_rtc_sample.elf.ItDyV2.ltrans1.ltrans.o
                0x000000001ff61444                UART1_IRQHandler
 .text.TIMER3_IRQHandler
                0x000000001ff61446        0x2 C:\TMP\nn_denoise_rtc_sample.elf.ItDyV2.ltrans1.ltrans.o
                0x000000001ff61446                TIMER3_IRQHandler
 .text.TIMER2_IRQHandler
                0x000000001ff61448        0x2 C:\TMP\nn_denoise_rtc_sample.elf.ItDyV2.ltrans1.ltrans.o
                0x000000001ff61448                TIMER2_IRQHandler
 .text.TIMER1_IRQHandler
                0x000000001ff6144a        0x2 C:\TMP\nn_denoise_rtc_sample.elf.ItDyV2.ltrans1.ltrans.o
                0x000000001ff6144a                TIMER1_IRQHandler
 .text.TIMER0_IRQHandler
                0x000000001ff6144c        0x2 C:\TMP\nn_denoise_rtc_sample.elf.ItDyV2.ltrans1.ltrans.o
                0x000000001ff6144c                TIMER0_IRQHandler
 .text.DMA_IRQHandler
                0x000000001ff6144e       0x40 C:\TMP\nn_denoise_rtc_sample.elf.ItDyV2.ltrans1.ltrans.o
                0x000000001ff6144e                DMA_IRQHandler
 .text.ADC_IRQHandler
                0x000000001ff6148e        0x2 C:\TMP\nn_denoise_rtc_sample.elf.ItDyV2.ltrans1.ltrans.o
                0x000000001ff6148e                ADC_IRQHandler
 .text.NPU_IRQHandler
                0x000000001ff61490        0x2 C:\TMP\nn_denoise_rtc_sample.elf.ItDyV2.ltrans1.ltrans.o
                0x000000001ff61490                NPU_IRQHandler
 .text.SCU_IRQHandler
                0x000000001ff61492        0x2 C:\TMP\nn_denoise_rtc_sample.elf.ItDyV2.ltrans1.ltrans.o
                0x000000001ff61492                SCU_IRQHandler
 .text.TWDG_IRQHandler
                0x000000001ff61494        0x2 C:\TMP\nn_denoise_rtc_sample.elf.ItDyV2.ltrans1.ltrans.o
                0x000000001ff61494                TWDG_IRQHandler
 .text._fini    0x000000001ff61496        0x2 C:\TMP\nn_denoise_rtc_sample.elf.ItDyV2.ltrans1.ltrans.o
                0x000000001ff61496                _fini
 .text._init    0x000000001ff61498       0xc0 C:\TMP\nn_denoise_rtc_sample.elf.ItDyV2.ltrans1.ltrans.o
                0x000000001ff61498                _init
 .text.sbrk     0x000000001ff61558       0x6e ../../../libs\libnewlib_port.a(sbrk.o)
                0x000000001ff61558                sbrk
 .text.get_heap_bytes_remaining_size
                0x000000001ff615c6        0x6 ../../../libs\libnewlib_port.a(sbrk.o)
                0x000000001ff615c6                get_heap_bytes_remaining_size
 .text._sbrk    0x000000001ff615cc        0xa ../../../libs\libnewlib_port.a(sbrk.o)
                0x000000001ff615cc                _sbrk
 .text.__malloc_lock
                0x000000001ff615d6        0xa ../../../libs\libnewlib_port.a(sbrk.o)
                0x000000001ff615d6                __malloc_lock
 .text.__malloc_unlock
                0x000000001ff615e0        0xa ../../../libs\libnewlib_port.a(sbrk.o)
                0x000000001ff615e0                __malloc_unlock
 .text.__wrap_memcmp
                0x000000001ff615ea        0xe ../../../libs\libnewlib_port.a(sbrk.o)
                0x000000001ff615ea                __wrap_memcmp
 .text.__wrap_memcpy
                0x000000001ff615f8        0xe ../../../libs\libnewlib_port.a(sbrk.o)
                0x000000001ff615f8                __wrap_memcpy
 .text.__wrap_memmove
                0x000000001ff61606        0xe ../../../libs\libnewlib_port.a(sbrk.o)
                0x000000001ff61606                __wrap_memmove
 .text.__wrap_memset
                0x000000001ff61614        0xe ../../../libs\libnewlib_port.a(sbrk.o)
                0x000000001ff61614                __wrap_memset
 .text.__wrap_strcmp
                0x000000001ff61622        0xe ../../../libs\libnewlib_port.a(sbrk.o)
                0x000000001ff61622                __wrap_strcmp
 .text.__wrap_malloc
                0x000000001ff61630       0x10 ../../../libs\libnewlib_port.a(sbrk.o)
                0x000000001ff61630                __wrap_malloc
 .text.__wrap_free
                0x000000001ff61640       0x10 ../../../libs\libnewlib_port.a(sbrk.o)
                0x000000001ff61640                __wrap_free
 .text.__wrap_fabsf
                0x000000001ff61650       0x10 ../../../libs\libnewlib_port.a(sbrk.o)
                0x000000001ff61650                __wrap_fabsf
 *fill*         0x000000001ff61660       0x20 
 .text.entry    0x000000001ff61680      0x5f4 ../../../libs\libfreertos_port.a(portasm.o)
                0x000000001ff61680                trap_entry
                0x000000001ff61770                irq_entry
                0x000000001ff618e4                eclic_mtip_handler
                0x000000001ff619a4                eclic_msip_handler
                0x000000001ff61a80                vPortYield_from_ulSynchTrap
                0x000000001ff61ac0                vPortYield
                0x000000001ff61bf0                xPortStartScheduler
                0x000000001ff61c60                vPortEndScheduler
 .text          0x000000001ff61c74       0x60 d:/software/yuyin/qiqiyinqiluntai/riscv-nuclei-elf-gcc-9.2.0.0/gcc_fix_raissrc/bin/../lib/gcc/riscv-nuclei-elf/9.2.0/rv32imafc/ilp32f\libgcc.a(save-restore.o)
                0x000000001ff61c74                __riscv_save_12
                0x000000001ff61c7c                __riscv_save_9
                0x000000001ff61c7c                __riscv_save_11
                0x000000001ff61c7c                __riscv_save_10
                0x000000001ff61c7c                __riscv_save_8
                0x000000001ff61c8a                __riscv_save_4
                0x000000001ff61c8a                __riscv_save_6
                0x000000001ff61c8a                __riscv_save_5
                0x000000001ff61c8a                __riscv_save_7
                0x000000001ff61ca4                __riscv_save_3
                0x000000001ff61ca4                __riscv_save_2
                0x000000001ff61ca4                __riscv_save_1
                0x000000001ff61ca4                __riscv_save_0
                0x000000001ff61cb0                __riscv_restore_12
                0x000000001ff61cb4                __riscv_restore_11
                0x000000001ff61cb4                __riscv_restore_9
                0x000000001ff61cb4                __riscv_restore_10
                0x000000001ff61cb4                __riscv_restore_8
                0x000000001ff61cbe                __riscv_restore_5
                0x000000001ff61cbe                __riscv_restore_7
                0x000000001ff61cbe                __riscv_restore_6
                0x000000001ff61cbe                __riscv_restore_4
                0x000000001ff61cc8                __riscv_restore_3
                0x000000001ff61cc8                __riscv_restore_0
                0x000000001ff61cc8                __riscv_restore_2
                0x000000001ff61cc8                __riscv_restore_1
 .text          0x000000001ff61cd4      0x8a8 d:/software/yuyin/qiqiyinqiluntai/riscv-nuclei-elf-gcc-9.2.0.0/gcc_fix_raissrc/bin/../lib/gcc/riscv-nuclei-elf/9.2.0/rv32imafc/ilp32f\libgcc.a(adddf3.o)
                0x000000001ff61cd4                __adddf3
 .text          0x000000001ff6257c      0x694 d:/software/yuyin/qiqiyinqiluntai/riscv-nuclei-elf-gcc-9.2.0.0/gcc_fix_raissrc/bin/../lib/gcc/riscv-nuclei-elf/9.2.0/rv32imafc/ilp32f\libgcc.a(divdf3.o)
                0x000000001ff6257c                __divdf3
 .text          0x000000001ff62c10       0xa2 d:/software/yuyin/qiqiyinqiluntai/riscv-nuclei-elf-gcc-9.2.0.0/gcc_fix_raissrc/bin/../lib/gcc/riscv-nuclei-elf/9.2.0/rv32imafc/ilp32f\libgcc.a(eqdf2.o)
                0x000000001ff62c10                __nedf2
                0x000000001ff62c10                __eqdf2
 .text          0x000000001ff62cb2       0xae d:/software/yuyin/qiqiyinqiluntai/riscv-nuclei-elf-gcc-9.2.0.0/gcc_fix_raissrc/bin/../lib/gcc/riscv-nuclei-elf/9.2.0/rv32imafc/ilp32f\libgcc.a(gedf2.o)
                0x000000001ff62cb2                __gedf2
                0x000000001ff62cb2                __gtdf2
 .text          0x000000001ff62d60       0xae d:/software/yuyin/qiqiyinqiluntai/riscv-nuclei-elf-gcc-9.2.0.0/gcc_fix_raissrc/bin/../lib/gcc/riscv-nuclei-elf/9.2.0/rv32imafc/ilp32f\libgcc.a(ledf2.o)
                0x000000001ff62d60                __ledf2
                0x000000001ff62d60                __ltdf2
 .text          0x000000001ff62e0e      0x5a4 d:/software/yuyin/qiqiyinqiluntai/riscv-nuclei-elf-gcc-9.2.0.0/gcc_fix_raissrc/bin/../lib/gcc/riscv-nuclei-elf/9.2.0/rv32imafc/ilp32f\libgcc.a(muldf3.o)
                0x000000001ff62e0e                __muldf3
 .text          0x000000001ff633b2      0x8c4 d:/software/yuyin/qiqiyinqiluntai/riscv-nuclei-elf-gcc-9.2.0.0/gcc_fix_raissrc/bin/../lib/gcc/riscv-nuclei-elf/9.2.0/rv32imafc/ilp32f\libgcc.a(subdf3.o)
                0x000000001ff633b2                __subdf3
 .text          0x000000001ff63c76       0x76 d:/software/yuyin/qiqiyinqiluntai/riscv-nuclei-elf-gcc-9.2.0.0/gcc_fix_raissrc/bin/../lib/gcc/riscv-nuclei-elf/9.2.0/rv32imafc/ilp32f\libgcc.a(unorddf2.o)
                0x000000001ff63c76                __unorddf2
 .text          0x000000001ff63cec       0xc4 d:/software/yuyin/qiqiyinqiluntai/riscv-nuclei-elf-gcc-9.2.0.0/gcc_fix_raissrc/bin/../lib/gcc/riscv-nuclei-elf/9.2.0/rv32imafc/ilp32f\libgcc.a(fixdfsi.o)
                0x000000001ff63cec                __fixdfsi
 .text          0x000000001ff63db0       0x68 d:/software/yuyin/qiqiyinqiluntai/riscv-nuclei-elf-gcc-9.2.0.0/gcc_fix_raissrc/bin/../lib/gcc/riscv-nuclei-elf/9.2.0/rv32imafc/ilp32f\libgcc.a(floatsidf.o)
                0x000000001ff63db0                __floatsidf
 .text          0x000000001ff63e18       0xbc d:/software/yuyin/qiqiyinqiluntai/riscv-nuclei-elf-gcc-9.2.0.0/gcc_fix_raissrc/bin/../lib/gcc/riscv-nuclei-elf/9.2.0/rv32imafc/ilp32f\libgcc.a(extendsfdf2.o)
                0x000000001ff63e18                __extendsfdf2
 .text          0x000000001ff63ed4      0x20e d:/software/yuyin/qiqiyinqiluntai/riscv-nuclei-elf-gcc-9.2.0.0/gcc_fix_raissrc/bin/../lib/gcc/riscv-nuclei-elf/9.2.0/rv32imafc/ilp32f\libgcc.a(truncdfsf2.o)
                0x000000001ff63ed4                __truncdfsf2
 .text          0x000000001ff640e2       0x3c d:/software/yuyin/qiqiyinqiluntai/riscv-nuclei-elf-gcc-9.2.0.0/gcc_fix_raissrc/bin/../lib/gcc/riscv-nuclei-elf/9.2.0/rv32imafc/ilp32f\libgcc.a(_clzsi2.o)
                0x000000001ff640e2                __clzsi2
 .text.atexit   0x000000001ff6411e        0xa d:/software/yuyin/qiqiyinqiluntai/riscv-nuclei-elf-gcc-9.2.0.0/gcc_fix_raissrc/bin/../lib/gcc/riscv-nuclei-elf/9.2.0/../../../../riscv-nuclei-elf/lib/rv32imafc/ilp32f\libg_nano.a(lib_a-atexit.o)
                0x000000001ff6411e                atexit
 .text.exit     0x000000001ff64128       0x26 d:/software/yuyin/qiqiyinqiluntai/riscv-nuclei-elf-gcc-9.2.0.0/gcc_fix_raissrc/bin/../lib/gcc/riscv-nuclei-elf/9.2.0/../../../../riscv-nuclei-elf/lib/rv32imafc/ilp32f\libg_nano.a(lib_a-exit.o)
                0x000000001ff64128                exit
 .text.__libc_fini_array
                0x000000001ff6414e       0x3a d:/software/yuyin/qiqiyinqiluntai/riscv-nuclei-elf-gcc-9.2.0.0/gcc_fix_raissrc/bin/../lib/gcc/riscv-nuclei-elf/9.2.0/../../../../riscv-nuclei-elf/lib/rv32imafc/ilp32f\libg_nano.a(lib_a-fini.o)
                0x000000001ff6414e                __libc_fini_array
 .text.__libc_init_array
                0x000000001ff64188       0x6e d:/software/yuyin/qiqiyinqiluntai/riscv-nuclei-elf-gcc-9.2.0.0/gcc_fix_raissrc/bin/../lib/gcc/riscv-nuclei-elf/9.2.0/../../../../riscv-nuclei-elf/lib/rv32imafc/ilp32f\libg_nano.a(lib_a-init.o)
                0x000000001ff64188                __libc_init_array
 .text.__register_exitproc
                0x000000001ff641f6       0x7c d:/software/yuyin/qiqiyinqiluntai/riscv-nuclei-elf-gcc-9.2.0.0/gcc_fix_raissrc/bin/../lib/gcc/riscv-nuclei-elf/9.2.0/../../../../riscv-nuclei-elf/lib/rv32imafc/ilp32f\libg_nano.a(lib_a-__atexit.o)
                0x000000001ff641f6                __register_exitproc
 .text.__call_exitprocs
                0x000000001ff64272       0xc4 d:/software/yuyin/qiqiyinqiluntai/riscv-nuclei-elf-gcc-9.2.0.0/gcc_fix_raissrc/bin/../lib/gcc/riscv-nuclei-elf/9.2.0/../../../../riscv-nuclei-elf/lib/rv32imafc/ilp32f\libg_nano.a(lib_a-__call_atexit.o)
                0x000000001ff64272                __call_exitprocs
 .text.calloc   0x000000001ff64336        0xa d:/software/yuyin/qiqiyinqiluntai/riscv-nuclei-elf-gcc-9.2.0.0/gcc_fix_raissrc/bin/../lib/gcc/riscv-nuclei-elf/9.2.0/../../../../riscv-nuclei-elf/lib/rv32imafc/ilp32f\libg_nano.a(lib_a-calloc.o)
                0x000000001ff64336                calloc
 .text.fprintf  0x000000001ff64340       0x24 d:/software/yuyin/qiqiyinqiluntai/riscv-nuclei-elf-gcc-9.2.0.0/gcc_fix_raissrc/bin/../lib/gcc/riscv-nuclei-elf/9.2.0/../../../../riscv-nuclei-elf/lib/rv32imafc/ilp32f\libg_nano.a(lib_a-fprintf.o)
                0x000000001ff64340                fiprintf
                0x000000001ff64340                fprintf
 .text._calloc_r
                0x000000001ff64364       0x26 d:/software/yuyin/qiqiyinqiluntai/riscv-nuclei-elf-gcc-9.2.0.0/gcc_fix_raissrc/bin/../lib/gcc/riscv-nuclei-elf/9.2.0/../../../../riscv-nuclei-elf/lib/rv32imafc/ilp32f\libg_nano.a(lib_a-nano-callocr.o)
                0x000000001ff64364                _calloc_r
 .text._malloc_r
                0x000000001ff6438a       0xd8 d:/software/yuyin/qiqiyinqiluntai/riscv-nuclei-elf-gcc-9.2.0.0/gcc_fix_raissrc/bin/../lib/gcc/riscv-nuclei-elf/9.2.0/../../../../riscv-nuclei-elf/lib/rv32imafc/ilp32f\libg_nano.a(lib_a-nano-mallocr.o)
                0x000000001ff6438a                _malloc_r
 .text.__sfputc_r
                0x000000001ff64462       0x28 d:/software/yuyin/qiqiyinqiluntai/riscv-nuclei-elf-gcc-9.2.0.0/gcc_fix_raissrc/bin/../lib/gcc/riscv-nuclei-elf/9.2.0/../../../../riscv-nuclei-elf/lib/rv32imafc/ilp32f\libg_nano.a(lib_a-nano-vfprintf.o)
 .text.__sfputs_r
                0x000000001ff6448a       0x44 d:/software/yuyin/qiqiyinqiluntai/riscv-nuclei-elf-gcc-9.2.0.0/gcc_fix_raissrc/bin/../lib/gcc/riscv-nuclei-elf/9.2.0/../../../../riscv-nuclei-elf/lib/rv32imafc/ilp32f\libg_nano.a(lib_a-nano-vfprintf.o)
                0x000000001ff6448a                __sfputs_r
 .text._vfprintf_r
                0x000000001ff644ce      0x2a0 d:/software/yuyin/qiqiyinqiluntai/riscv-nuclei-elf-gcc-9.2.0.0/gcc_fix_raissrc/bin/../lib/gcc/riscv-nuclei-elf/9.2.0/../../../../riscv-nuclei-elf/lib/rv32imafc/ilp32f\libg_nano.a(lib_a-nano-vfprintf.o)
                0x000000001ff644ce                _vfprintf_r
                0x000000001ff644ce                _vfiprintf_r
 .text.realloc  0x000000001ff6476e        0xc d:/software/yuyin/qiqiyinqiluntai/riscv-nuclei-elf-gcc-9.2.0.0/gcc_fix_raissrc/bin/../lib/gcc/riscv-nuclei-elf/9.2.0/../../../../riscv-nuclei-elf/lib/rv32imafc/ilp32f\libg_nano.a(lib_a-realloc.o)
                0x000000001ff6476e                realloc
 .text._sbrk_r  0x000000001ff6477a       0x30 d:/software/yuyin/qiqiyinqiluntai/riscv-nuclei-elf-gcc-9.2.0.0/gcc_fix_raissrc/bin/../lib/gcc/riscv-nuclei-elf/9.2.0/../../../../riscv-nuclei-elf/lib/rv32imafc/ilp32f\libg_nano.a(lib_a-sbrkr.o)
                0x000000001ff6477a                _sbrk_r
 .text.__swbuf_r
                0x000000001ff647aa       0xc0 d:/software/yuyin/qiqiyinqiluntai/riscv-nuclei-elf-gcc-9.2.0.0/gcc_fix_raissrc/bin/../lib/gcc/riscv-nuclei-elf/9.2.0/../../../../riscv-nuclei-elf/lib/rv32imafc/ilp32f\libg_nano.a(lib_a-wbuf.o)
                0x000000001ff647aa                __swbuf_r
 .text.__swsetup_r
                0x000000001ff6486a      0x106 d:/software/yuyin/qiqiyinqiluntai/riscv-nuclei-elf-gcc-9.2.0.0/gcc_fix_raissrc/bin/../lib/gcc/riscv-nuclei-elf/9.2.0/../../../../riscv-nuclei-elf/lib/rv32imafc/ilp32f\libg_nano.a(lib_a-wsetup.o)
                0x000000001ff6486a                __swsetup_r
 .text.__sflush_r
                0x000000001ff64970      0x14a d:/software/yuyin/qiqiyinqiluntai/riscv-nuclei-elf-gcc-9.2.0.0/gcc_fix_raissrc/bin/../lib/gcc/riscv-nuclei-elf/9.2.0/../../../../riscv-nuclei-elf/lib/rv32imafc/ilp32f\libg_nano.a(lib_a-fflush.o)
                0x000000001ff64970                __sflush_r
 .text._fflush_r
                0x000000001ff64aba       0x66 d:/software/yuyin/qiqiyinqiluntai/riscv-nuclei-elf-gcc-9.2.0.0/gcc_fix_raissrc/bin/../lib/gcc/riscv-nuclei-elf/9.2.0/../../../../riscv-nuclei-elf/lib/rv32imafc/ilp32f\libg_nano.a(lib_a-fflush.o)
                0x000000001ff64aba                _fflush_r
 .text.std      0x000000001ff64b20       0x6a d:/software/yuyin/qiqiyinqiluntai/riscv-nuclei-elf-gcc-9.2.0.0/gcc_fix_raissrc/bin/../lib/gcc/riscv-nuclei-elf/9.2.0/../../../../riscv-nuclei-elf/lib/rv32imafc/ilp32f\libg_nano.a(lib_a-findfp.o)
 .text._cleanup_r
                0x000000001ff64b8a        0xa d:/software/yuyin/qiqiyinqiluntai/riscv-nuclei-elf-gcc-9.2.0.0/gcc_fix_raissrc/bin/../lib/gcc/riscv-nuclei-elf/9.2.0/../../../../riscv-nuclei-elf/lib/rv32imafc/ilp32f\libg_nano.a(lib_a-findfp.o)
                0x000000001ff64b8a                _cleanup_r
 .text.__sfmoreglue
                0x000000001ff64b94       0x48 d:/software/yuyin/qiqiyinqiluntai/riscv-nuclei-elf-gcc-9.2.0.0/gcc_fix_raissrc/bin/../lib/gcc/riscv-nuclei-elf/9.2.0/../../../../riscv-nuclei-elf/lib/rv32imafc/ilp32f\libg_nano.a(lib_a-findfp.o)
                0x000000001ff64b94                __sfmoreglue
 .text.__sinit  0x000000001ff64bdc       0x6c d:/software/yuyin/qiqiyinqiluntai/riscv-nuclei-elf-gcc-9.2.0.0/gcc_fix_raissrc/bin/../lib/gcc/riscv-nuclei-elf/9.2.0/../../../../riscv-nuclei-elf/lib/rv32imafc/ilp32f\libg_nano.a(lib_a-findfp.o)
                0x000000001ff64bdc                __sinit
 .text.__sfp    0x000000001ff64c48       0x9e d:/software/yuyin/qiqiyinqiluntai/riscv-nuclei-elf-gcc-9.2.0.0/gcc_fix_raissrc/bin/../lib/gcc/riscv-nuclei-elf/9.2.0/../../../../riscv-nuclei-elf/lib/rv32imafc/ilp32f\libg_nano.a(lib_a-findfp.o)
                0x000000001ff64c48                __sfp
 .text._fwalk_reent
                0x000000001ff64ce6       0x6a d:/software/yuyin/qiqiyinqiluntai/riscv-nuclei-elf-gcc-9.2.0.0/gcc_fix_raissrc/bin/../lib/gcc/riscv-nuclei-elf/9.2.0/../../../../riscv-nuclei-elf/lib/rv32imafc/ilp32f\libg_nano.a(lib_a-fwalk.o)
                0x000000001ff64ce6                _fwalk_reent
 .text.__swhatbuf_r
                0x000000001ff64d50       0x5a d:/software/yuyin/qiqiyinqiluntai/riscv-nuclei-elf-gcc-9.2.0.0/gcc_fix_raissrc/bin/../lib/gcc/riscv-nuclei-elf/9.2.0/../../../../riscv-nuclei-elf/lib/rv32imafc/ilp32f\libg_nano.a(lib_a-makebuf.o)
                0x000000001ff64d50                __swhatbuf_r
 .text.__smakebuf_r
                0x000000001ff64daa       0xa0 d:/software/yuyin/qiqiyinqiluntai/riscv-nuclei-elf-gcc-9.2.0.0/gcc_fix_raissrc/bin/../lib/gcc/riscv-nuclei-elf/9.2.0/../../../../riscv-nuclei-elf/lib/rv32imafc/ilp32f\libg_nano.a(lib_a-makebuf.o)
                0x000000001ff64daa                __smakebuf_r
 .text.memchr   0x000000001ff64e4a       0x1a d:/software/yuyin/qiqiyinqiluntai/riscv-nuclei-elf-gcc-9.2.0.0/gcc_fix_raissrc/bin/../lib/gcc/riscv-nuclei-elf/9.2.0/../../../../riscv-nuclei-elf/lib/rv32imafc/ilp32f\libg_nano.a(lib_a-memchr.o)
                0x000000001ff64e4a                memchr
 .text._free_r  0x000000001ff64e64       0xa6 d:/software/yuyin/qiqiyinqiluntai/riscv-nuclei-elf-gcc-9.2.0.0/gcc_fix_raissrc/bin/../lib/gcc/riscv-nuclei-elf/9.2.0/../../../../riscv-nuclei-elf/lib/rv32imafc/ilp32f\libg_nano.a(lib_a-nano-freer.o)
                0x000000001ff64e64                _free_r
 .text._realloc_r
                0x000000001ff64f0a       0x64 d:/software/yuyin/qiqiyinqiluntai/riscv-nuclei-elf-gcc-9.2.0.0/gcc_fix_raissrc/bin/../lib/gcc/riscv-nuclei-elf/9.2.0/../../../../riscv-nuclei-elf/lib/rv32imafc/ilp32f\libg_nano.a(lib_a-nano-reallocr.o)
                0x000000001ff64f0a                _realloc_r
 .text._printf_common
                0x000000001ff64f6e      0x10c d:/software/yuyin/qiqiyinqiluntai/riscv-nuclei-elf-gcc-9.2.0.0/gcc_fix_raissrc/bin/../lib/gcc/riscv-nuclei-elf/9.2.0/../../../../riscv-nuclei-elf/lib/rv32imafc/ilp32f\libg_nano.a(lib_a-nano-vfprintf_i.o)
                0x000000001ff64f6e                _printf_common
 .text._printf_i
                0x000000001ff6507a      0x276 d:/software/yuyin/qiqiyinqiluntai/riscv-nuclei-elf-gcc-9.2.0.0/gcc_fix_raissrc/bin/../lib/gcc/riscv-nuclei-elf/9.2.0/../../../../riscv-nuclei-elf/lib/rv32imafc/ilp32f\libg_nano.a(lib_a-nano-vfprintf_i.o)
                0x000000001ff6507a                _printf_i
 .text.__sread  0x000000001ff652f0       0x30 d:/software/yuyin/qiqiyinqiluntai/riscv-nuclei-elf-gcc-9.2.0.0/gcc_fix_raissrc/bin/../lib/gcc/riscv-nuclei-elf/9.2.0/../../../../riscv-nuclei-elf/lib/rv32imafc/ilp32f\libg_nano.a(lib_a-stdio.o)
                0x000000001ff652f0                __sread
 .text.__swrite
                0x000000001ff65320       0x4e d:/software/yuyin/qiqiyinqiluntai/riscv-nuclei-elf-gcc-9.2.0.0/gcc_fix_raissrc/bin/../lib/gcc/riscv-nuclei-elf/9.2.0/../../../../riscv-nuclei-elf/lib/rv32imafc/ilp32f\libg_nano.a(lib_a-stdio.o)
                0x000000001ff65320                __swrite
 .text.__sseek  0x000000001ff6536e       0x36 d:/software/yuyin/qiqiyinqiluntai/riscv-nuclei-elf-gcc-9.2.0.0/gcc_fix_raissrc/bin/../lib/gcc/riscv-nuclei-elf/9.2.0/../../../../riscv-nuclei-elf/lib/rv32imafc/ilp32f\libg_nano.a(lib_a-stdio.o)
                0x000000001ff6536e                __sseek
 .text.__sclose
                0x000000001ff653a4        0x6 d:/software/yuyin/qiqiyinqiluntai/riscv-nuclei-elf-gcc-9.2.0.0/gcc_fix_raissrc/bin/../lib/gcc/riscv-nuclei-elf/9.2.0/../../../../riscv-nuclei-elf/lib/rv32imafc/ilp32f\libg_nano.a(lib_a-stdio.o)
                0x000000001ff653a4                __sclose
 .text._write_r
                0x000000001ff653aa       0x32 d:/software/yuyin/qiqiyinqiluntai/riscv-nuclei-elf-gcc-9.2.0.0/gcc_fix_raissrc/bin/../lib/gcc/riscv-nuclei-elf/9.2.0/../../../../riscv-nuclei-elf/lib/rv32imafc/ilp32f\libg_nano.a(lib_a-writer.o)
                0x000000001ff653aa                _write_r
 .text._close_r
                0x000000001ff653dc       0x2e d:/software/yuyin/qiqiyinqiluntai/riscv-nuclei-elf-gcc-9.2.0.0/gcc_fix_raissrc/bin/../lib/gcc/riscv-nuclei-elf/9.2.0/../../../../riscv-nuclei-elf/lib/rv32imafc/ilp32f\libg_nano.a(lib_a-closer.o)
                0x000000001ff653dc                _close_r
 .text._fstat_r
                0x000000001ff6540a       0x30 d:/software/yuyin/qiqiyinqiluntai/riscv-nuclei-elf-gcc-9.2.0.0/gcc_fix_raissrc/bin/../lib/gcc/riscv-nuclei-elf/9.2.0/../../../../riscv-nuclei-elf/lib/rv32imafc/ilp32f\libg_nano.a(lib_a-fstatr.o)
                0x000000001ff6540a                _fstat_r
 .text._isatty_r
                0x000000001ff6543a       0x2e d:/software/yuyin/qiqiyinqiluntai/riscv-nuclei-elf-gcc-9.2.0.0/gcc_fix_raissrc/bin/../lib/gcc/riscv-nuclei-elf/9.2.0/../../../../riscv-nuclei-elf/lib/rv32imafc/ilp32f\libg_nano.a(lib_a-isattyr.o)
                0x000000001ff6543a                _isatty_r
 .text._lseek_r
                0x000000001ff65468       0x32 d:/software/yuyin/qiqiyinqiluntai/riscv-nuclei-elf-gcc-9.2.0.0/gcc_fix_raissrc/bin/../lib/gcc/riscv-nuclei-elf/9.2.0/../../../../riscv-nuclei-elf/lib/rv32imafc/ilp32f\libg_nano.a(lib_a-lseekr.o)
                0x000000001ff65468                _lseek_r
 .text._malloc_usable_size_r
                0x000000001ff6549a       0x14 d:/software/yuyin/qiqiyinqiluntai/riscv-nuclei-elf-gcc-9.2.0.0/gcc_fix_raissrc/bin/../lib/gcc/riscv-nuclei-elf/9.2.0/../../../../riscv-nuclei-elf/lib/rv32imafc/ilp32f\libg_nano.a(lib_a-nano-msizer.o)
                0x000000001ff6549a                _malloc_usable_size_r
 .text._read_r  0x000000001ff654ae       0x32 d:/software/yuyin/qiqiyinqiluntai/riscv-nuclei-elf-gcc-9.2.0.0/gcc_fix_raissrc/bin/../lib/gcc/riscv-nuclei-elf/9.2.0/../../../../riscv-nuclei-elf/lib/rv32imafc/ilp32f\libg_nano.a(lib_a-readr.o)
                0x000000001ff654ae                _read_r
 .text._exit    0x000000001ff654e0       0x2a d:/software/yuyin/qiqiyinqiluntai/riscv-nuclei-elf-gcc-9.2.0.0/gcc_fix_raissrc/bin/../lib/gcc/riscv-nuclei-elf/9.2.0/../../../../riscv-nuclei-elf/lib/rv32imafc/ilp32f\libgloss_nano.a(sys_exit.o)
                0x000000001ff654e0                _exit
 .text._close   0x000000001ff6550a       0x32 d:/software/yuyin/qiqiyinqiluntai/riscv-nuclei-elf-gcc-9.2.0.0/gcc_fix_raissrc/bin/../lib/gcc/riscv-nuclei-elf/9.2.0/../../../../riscv-nuclei-elf/lib/rv32imafc/ilp32f\libgloss_nano.a(sys_close.o)
                0x000000001ff6550a                _close
 .text._fstat   0x000000001ff6553c       0x3e d:/software/yuyin/qiqiyinqiluntai/riscv-nuclei-elf-gcc-9.2.0.0/gcc_fix_raissrc/bin/../lib/gcc/riscv-nuclei-elf/9.2.0/../../../../riscv-nuclei-elf/lib/rv32imafc/ilp32f\libgloss_nano.a(sys_fstat.o)
                0x000000001ff6553c                _fstat
 .text._isatty  0x000000001ff6557a       0x20 d:/software/yuyin/qiqiyinqiluntai/riscv-nuclei-elf-gcc-9.2.0.0/gcc_fix_raissrc/bin/../lib/gcc/riscv-nuclei-elf/9.2.0/../../../../riscv-nuclei-elf/lib/rv32imafc/ilp32f\libgloss_nano.a(sys_isatty.o)
                0x000000001ff6557a                _isatty
 .text._lseek   0x000000001ff6559a       0x2e d:/software/yuyin/qiqiyinqiluntai/riscv-nuclei-elf-gcc-9.2.0.0/gcc_fix_raissrc/bin/../lib/gcc/riscv-nuclei-elf/9.2.0/../../../../riscv-nuclei-elf/lib/rv32imafc/ilp32f\libgloss_nano.a(sys_lseek.o)
                0x000000001ff6559a                _lseek
 .text._read    0x000000001ff655c8       0x2e d:/software/yuyin/qiqiyinqiluntai/riscv-nuclei-elf-gcc-9.2.0.0/gcc_fix_raissrc/bin/../lib/gcc/riscv-nuclei-elf/9.2.0/../../../../riscv-nuclei-elf/lib/rv32imafc/ilp32f\libgloss_nano.a(sys_read.o)
                0x000000001ff655c8                _read
 .text._write   0x000000001ff655f6       0x2e d:/software/yuyin/qiqiyinqiluntai/riscv-nuclei-elf-gcc-9.2.0.0/gcc_fix_raissrc/bin/../lib/gcc/riscv-nuclei-elf/9.2.0/../../../../riscv-nuclei-elf/lib/rv32imafc/ilp32f\libgloss_nano.a(sys_write.o)
                0x000000001ff655f6                _write
 .text._conv_stat
                0x000000001ff65624       0x4e d:/software/yuyin/qiqiyinqiluntai/riscv-nuclei-elf-gcc-9.2.0.0/gcc_fix_raissrc/bin/../lib/gcc/riscv-nuclei-elf/9.2.0/../../../../riscv-nuclei-elf/lib/rv32imafc/ilp32f\libgloss_nano.a(sys_conv_stat.o)
                0x000000001ff65624                _conv_stat
 .text.__errno  0x000000001ff65672        0x6 d:/software/yuyin/qiqiyinqiluntai/riscv-nuclei-elf-gcc-9.2.0.0/gcc_fix_raissrc/bin/../lib/gcc/riscv-nuclei-elf/9.2.0/../../../../riscv-nuclei-elf/lib/rv32imafc/ilp32f\libc_nano.a(lib_a-errno.o)
                0x000000001ff65672                __errno
 .text          0x000000001ff65678      0x158 d:/software/yuyin/qiqiyinqiluntai/riscv-nuclei-elf-gcc-9.2.0.0/gcc_fix_raissrc/bin/../lib/gcc/riscv-nuclei-elf/9.2.0/../../../../riscv-nuclei-elf/lib/rv32imafc/ilp32f\libm.a(lib_a-s_floor.o)
                0x000000001ff65678                floor
 .text          0x000000001ff657d0       0xbe d:/software/yuyin/qiqiyinqiluntai/riscv-nuclei-elf-gcc-9.2.0.0/gcc_fix_raissrc/bin/../lib/gcc/riscv-nuclei-elf/9.2.0/../../../../riscv-nuclei-elf/lib/rv32imafc/ilp32f\libm.a(lib_a-w_acos.o)
                0x000000001ff657d0                acos
 .text          0x000000001ff6588e      0x10a d:/software/yuyin/qiqiyinqiluntai/riscv-nuclei-elf-gcc-9.2.0.0/gcc_fix_raissrc/bin/../lib/gcc/riscv-nuclei-elf/9.2.0/../../../../riscv-nuclei-elf/lib/rv32imafc/ilp32f\libm.a(lib_a-w_exp.o)
                0x000000001ff6588e                exp
 .text          0x000000001ff65998      0x31e d:/software/yuyin/qiqiyinqiluntai/riscv-nuclei-elf-gcc-9.2.0.0/gcc_fix_raissrc/bin/../lib/gcc/riscv-nuclei-elf/9.2.0/../../../../riscv-nuclei-elf/lib/rv32imafc/ilp32f\libm.a(lib_a-wf_pow.o)
                0x000000001ff65998                powf
 .text          0x000000001ff65cb6      0x112 d:/software/yuyin/qiqiyinqiluntai/riscv-nuclei-elf-gcc-9.2.0.0/gcc_fix_raissrc/bin/../lib/gcc/riscv-nuclei-elf/9.2.0/../../../../riscv-nuclei-elf/lib/rv32imafc/ilp32f\libm.a(lib_a-w_log.o)
                0x000000001ff65cb6                log
 .text          0x000000001ff65dc8       0xb6 d:/software/yuyin/qiqiyinqiluntai/riscv-nuclei-elf-gcc-9.2.0.0/gcc_fix_raissrc/bin/../lib/gcc/riscv-nuclei-elf/9.2.0/../../../../riscv-nuclei-elf/lib/rv32imafc/ilp32f\libm.a(lib_a-w_sqrt.o)
                0x000000001ff65dc8                sqrt
 .text          0x000000001ff65e7e      0x4e8 d:/software/yuyin/qiqiyinqiluntai/riscv-nuclei-elf-gcc-9.2.0.0/gcc_fix_raissrc/bin/../lib/gcc/riscv-nuclei-elf/9.2.0/../../../../riscv-nuclei-elf/lib/rv32imafc/ilp32f\libm.a(lib_a-e_acos.o)
                0x000000001ff65e7e                __ieee754_acos
 .text          0x000000001ff66366      0x3d4 d:/software/yuyin/qiqiyinqiluntai/riscv-nuclei-elf-gcc-9.2.0.0/gcc_fix_raissrc/bin/../lib/gcc/riscv-nuclei-elf/9.2.0/../../../../riscv-nuclei-elf/lib/rv32imafc/ilp32f\libm.a(lib_a-e_exp.o)
                0x000000001ff66366                __ieee754_exp
 .text          0x000000001ff6673a      0x652 d:/software/yuyin/qiqiyinqiluntai/riscv-nuclei-elf-gcc-9.2.0.0/gcc_fix_raissrc/bin/../lib/gcc/riscv-nuclei-elf/9.2.0/../../../../riscv-nuclei-elf/lib/rv32imafc/ilp32f\libm.a(lib_a-ef_pow.o)
                0x000000001ff6673a                __ieee754_powf
 .text          0x000000001ff66d8c       0xc6 d:/software/yuyin/qiqiyinqiluntai/riscv-nuclei-elf-gcc-9.2.0.0/gcc_fix_raissrc/bin/../lib/gcc/riscv-nuclei-elf/9.2.0/../../../../riscv-nuclei-elf/lib/rv32imafc/ilp32f\libm.a(lib_a-ef_sqrt.o)
                0x000000001ff66d8c                __ieee754_sqrtf
 .text          0x000000001ff66e52      0x41e d:/software/yuyin/qiqiyinqiluntai/riscv-nuclei-elf-gcc-9.2.0.0/gcc_fix_raissrc/bin/../lib/gcc/riscv-nuclei-elf/9.2.0/../../../../riscv-nuclei-elf/lib/rv32imafc/ilp32f\libm.a(lib_a-e_log.o)
                0x000000001ff66e52                __ieee754_log
 .text          0x000000001ff67270      0x1c4 d:/software/yuyin/qiqiyinqiluntai/riscv-nuclei-elf-gcc-9.2.0.0/gcc_fix_raissrc/bin/../lib/gcc/riscv-nuclei-elf/9.2.0/../../../../riscv-nuclei-elf/lib/rv32imafc/ilp32f\libm.a(lib_a-e_sqrt.o)
                0x000000001ff67270                __ieee754_sqrt
 .text          0x000000001ff67434        0x6 d:/software/yuyin/qiqiyinqiluntai/riscv-nuclei-elf-gcc-9.2.0.0/gcc_fix_raissrc/bin/../lib/gcc/riscv-nuclei-elf/9.2.0/../../../../riscv-nuclei-elf/lib/rv32imafc/ilp32f\libm.a(lib_a-s_fabs.o)
                0x000000001ff67434                fabs
 .text          0x000000001ff6743a       0x12 d:/software/yuyin/qiqiyinqiluntai/riscv-nuclei-elf-gcc-9.2.0.0/gcc_fix_raissrc/bin/../lib/gcc/riscv-nuclei-elf/9.2.0/../../../../riscv-nuclei-elf/lib/rv32imafc/ilp32f\libm.a(lib_a-sf_finite.o)
                0x000000001ff6743a                finitef
 .text          0x000000001ff6744c        0xe d:/software/yuyin/qiqiyinqiluntai/riscv-nuclei-elf-gcc-9.2.0.0/gcc_fix_raissrc/bin/../lib/gcc/riscv-nuclei-elf/9.2.0/../../../../riscv-nuclei-elf/lib/rv32imafc/ilp32f\libm.a(lib_a-s_finite.o)
                0x000000001ff6744c                finite
 .text          0x000000001ff6745a        0xa d:/software/yuyin/qiqiyinqiluntai/riscv-nuclei-elf-gcc-9.2.0.0/gcc_fix_raissrc/bin/../lib/gcc/riscv-nuclei-elf/9.2.0/../../../../riscv-nuclei-elf/lib/rv32imafc/ilp32f\libm.a(lib_a-sf_nan.o)
                0x000000001ff6745a                nanf
 .text          0x000000001ff67464       0xd2 d:/software/yuyin/qiqiyinqiluntai/riscv-nuclei-elf-gcc-9.2.0.0/gcc_fix_raissrc/bin/../lib/gcc/riscv-nuclei-elf/9.2.0/../../../../riscv-nuclei-elf/lib/rv32imafc/ilp32f\libm.a(lib_a-sf_rint.o)
                0x000000001ff67464                rintf
 .text          0x000000001ff67536       0xfe d:/software/yuyin/qiqiyinqiluntai/riscv-nuclei-elf-gcc-9.2.0.0/gcc_fix_raissrc/bin/../lib/gcc/riscv-nuclei-elf/9.2.0/../../../../riscv-nuclei-elf/lib/rv32imafc/ilp32f\libm.a(lib_a-sf_scalbn.o)
                0x000000001ff67536                scalbnf
 .text          0x000000001ff67634        0x4 d:/software/yuyin/qiqiyinqiluntai/riscv-nuclei-elf-gcc-9.2.0.0/gcc_fix_raissrc/bin/../lib/gcc/riscv-nuclei-elf/9.2.0/../../../../riscv-nuclei-elf/lib/rv32imafc/ilp32f\libm.a(lib_a-s_matherr.o)
                0x000000001ff67634                matherr
 .text          0x000000001ff67638        0xe d:/software/yuyin/qiqiyinqiluntai/riscv-nuclei-elf-gcc-9.2.0.0/gcc_fix_raissrc/bin/../lib/gcc/riscv-nuclei-elf/9.2.0/../../../../riscv-nuclei-elf/lib/rv32imafc/ilp32f\libm.a(lib_a-s_nan.o)
                0x000000001ff67638                nan
 .text          0x000000001ff67646       0x1c d:/software/yuyin/qiqiyinqiluntai/riscv-nuclei-elf-gcc-9.2.0.0/gcc_fix_raissrc/bin/../lib/gcc/riscv-nuclei-elf/9.2.0/../../../../riscv-nuclei-elf/lib/rv32imafc/ilp32f\libm.a(lib_a-sf_copysign.o)
                0x000000001ff67646                copysignf
 *(.gnu.linkonce.t.*)

.fini
 *(SORT_NONE(.fini))
                0x000000001ff67664                . = ALIGN (0x4)
                [!provide]                        PROVIDE (__etext = .)
                [!provide]                        PROVIDE (_etext = .)
                [!provide]                        PROVIDE (etext = .)
                0x000000001ff67664                PROVIDE (_eilm = .)

.preinit_array  0x000000001ff67662        0x0
                0x000000001ff67662                PROVIDE (__preinit_array_start = .)
 *(.preinit_array)
                0x000000001ff67662                PROVIDE (__preinit_array_end = .)

.init_array     0x000000001ff67662        0x0
                0x000000001ff67662                PROVIDE (__init_array_start = .)
 *(SORT_BY_INIT_PRIORITY(.init_array.*) SORT_BY_INIT_PRIORITY(.ctors.*))
 *(.init_array EXCLUDE_FILE(*crtend?.o *crtend.o *crtbegin?.o *crtbegin.o) .ctors)
                0x000000001ff67662                PROVIDE (__init_array_end = .)

.fini_array     0x000000001ff67662        0x0
                0x000000001ff67662                PROVIDE (__fini_array_start = .)
 *(SORT_BY_INIT_PRIORITY(.fini_array.*) SORT_BY_INIT_PRIORITY(.dtors.*))
 *(.fini_array EXCLUDE_FILE(*crtend?.o *crtend.o *crtbegin?.o *crtbegin.o) .dtors)
                0x000000001ff67662                PROVIDE (__fini_array_end = .)

.ctors
 *crtbegin.o(.ctors)
 *crtbegin?.o(.ctors)
 *(EXCLUDE_FILE(*crtend?.o *crtend.o) .ctors)
 *(SORT_BY_NAME(.ctors.*))
 *(.ctors)

.dtors
 *crtbegin.o(.dtors)
 *crtbegin?.o(.dtors)
 *(EXCLUDE_FILE(*crtend?.o *crtend.o) .dtors)
 *(SORT_BY_NAME(.dtors.*))
 *(.dtors)

.ro_data        0x000000001ff67668     0x4f40
 *(.rdata)
 *(.rodata .rodata.*)
 .rodata.speex_warning_int.lto_priv.0.str1.4
                0x000000001ff67668       0x10 C:\TMP\nn_denoise_rtc_sample.elf.ItDyV2.ltrans0.ltrans.o
 .rodata.nb_mode_query.str1.4
                0x000000001ff67678       0x20 C:\TMP\nn_denoise_rtc_sample.elf.ItDyV2.ltrans0.ltrans.o
 .rodata.wb_mode_query.str1.4
                0x000000001ff67698       0x20 C:\TMP\nn_denoise_rtc_sample.elf.ItDyV2.ltrans0.ltrans.o
 .rodata._speex_fatal.constprop.0.str1.4
                0x000000001ff676b8       0x5f C:\TMP\nn_denoise_rtc_sample.elf.ItDyV2.ltrans0.ltrans.o
 *fill*         0x000000001ff67717        0x1 
 .rodata.nb_decoder_ctl.str1.4
                0x000000001ff67718       0x19 C:\TMP\nn_denoise_rtc_sample.elf.ItDyV2.ltrans0.ltrans.o
 *fill*         0x000000001ff67731        0x3 
 .rodata.nb_decoder_ctl
                0x000000001ff67734       0xdc C:\TMP\nn_denoise_rtc_sample.elf.ItDyV2.ltrans0.ltrans.o
 .rodata.nb_encode.str1.4
                0x000000001ff67810       0x54 C:\TMP\nn_denoise_rtc_sample.elf.ItDyV2.ltrans0.ltrans.o
 .rodata.dpmu_set_io_reuse
                0x000000001ff67864       0x60 C:\TMP\nn_denoise_rtc_sample.elf.ItDyV2.ltrans0.ltrans.o
 .rodata.sb_decoder_ctl
                0x000000001ff678c4       0xdc C:\TMP\nn_denoise_rtc_sample.elf.ItDyV2.ltrans0.ltrans.o
 .rodata.sb_encoder_ctl
                0x000000001ff679a0       0xc8 C:\TMP\nn_denoise_rtc_sample.elf.ItDyV2.ltrans0.ltrans.o
 .rodata.nb_encoder_ctl
                0x000000001ff67a68       0xc8 C:\TMP\nn_denoise_rtc_sample.elf.ItDyV2.ltrans0.ltrans.o
 .rodata.speex_notify.lto_priv.0.lto_priv.0.str1.4
                0x000000001ff67b30       0x12 C:\TMP\nn_denoise_rtc_sample.elf.ItDyV2.ltrans0.ltrans.o
 *fill*         0x000000001ff67b42        0x2 
 .rodata.sb_decode.str1.4
                0x000000001ff67b44       0x33 C:\TMP\nn_denoise_rtc_sample.elf.ItDyV2.ltrans0.ltrans.o
 *fill*         0x000000001ff67b77        0x1 
 .rodata.nb_decode.str1.4
                0x000000001ff67b78       0x96 C:\TMP\nn_denoise_rtc_sample.elf.ItDyV2.ltrans0.ltrans.o
 *fill*         0x000000001ff67c0e        0x2 
 .rodata.prompt_play_by_cmd_string.constprop.0.str1.4
                0x000000001ff67c10       0x10 C:\TMP\nn_denoise_rtc_sample.elf.ItDyV2.ltrans0.ltrans.o
 .rodata.IISDMA_ChannelIntENConfig.constprop.0.str1.4
                0x000000001ff67c20       0x1f C:\TMP\nn_denoise_rtc_sample.elf.ItDyV2.ltrans0.ltrans.o
 *fill*         0x000000001ff67c3f        0x1 
 .rodata.cm_write_codec.constprop.0.str1.4
                0x000000001ff67c40       0x72 C:\TMP\nn_denoise_rtc_sample.elf.ItDyV2.ltrans0.ltrans.o
 *fill*         0x000000001ff67cb2        0x2 
 .rodata.cm_get_pcm_buffer.constprop.0.str1.4
                0x000000001ff67cb4        0xf C:\TMP\nn_denoise_rtc_sample.elf.ItDyV2.ltrans0.ltrans.o
 *fill*         0x000000001ff67cc3        0x1 
 .rodata.iis_audio_choose.constprop.0.str1.4
                0x000000001ff67cc4       0x20 C:\TMP\nn_denoise_rtc_sample.elf.ItDyV2.ltrans0.ltrans.o
 .rodata.iis_audio_choose.constprop.0
                0x000000001ff67ce4       0x14 C:\TMP\nn_denoise_rtc_sample.elf.ItDyV2.ltrans0.ltrans.o
 .rodata.rc_callee_alg_aes_type_tip.str1.4
                0x000000001ff67cf8       0x64 C:\TMP\nn_denoise_rtc_sample.elf.ItDyV2.ltrans0.ltrans.o
 .rodata.rc_callee_npu_ifft_data_handle_in_host.str1.4
                0x000000001ff67d5c       0x1a C:\TMP\nn_denoise_rtc_sample.elf.ItDyV2.ltrans0.ltrans.o
 *fill*         0x000000001ff67d76        0x2 
 .rodata.rc_callee_free_in_host.str1.4
                0x000000001ff67d78       0x12 C:\TMP\nn_denoise_rtc_sample.elf.ItDyV2.ltrans0.ltrans.o
                                         0x16 (size before relaxing)
 *fill*         0x000000001ff67d8a        0x2 
 .rodata.mailbox_send_msg.str1.4
                0x000000001ff67d8c       0x27 C:\TMP\nn_denoise_rtc_sample.elf.ItDyV2.ltrans0.ltrans.o
 *fill*         0x000000001ff67db3        0x1 
 .rodata.nuclear_com_send.constprop.0.str1.4
                0x000000001ff67db4        0xe C:\TMP\nn_denoise_rtc_sample.elf.ItDyV2.ltrans0.ltrans.o
 *fill*         0x000000001ff67dc2        0x2 
 .rodata.nuclear_com_irq_handler.str1.4
                0x000000001ff67dc4       0x20 C:\TMP\nn_denoise_rtc_sample.elf.ItDyV2.ltrans0.ltrans.o
 .rodata.flash_manage_req_wait_op_done_sem.str1.4
                0x000000001ff67de4        0xd C:\TMP\nn_denoise_rtc_sample.elf.ItDyV2.ltrans0.ltrans.o
 *fill*         0x000000001ff67df1        0x3 
 .rodata.post_erase_flash.constprop.0.str1.4
                0x000000001ff67df4       0x2b C:\TMP\nn_denoise_rtc_sample.elf.ItDyV2.ltrans0.ltrans.o
 *fill*         0x000000001ff67e1f        0x1 
 .rodata.decoder_rpmsg_serve_cb.str1.4
                0x000000001ff67e20        0xe C:\TMP\nn_denoise_rtc_sample.elf.ItDyV2.ltrans0.ltrans.o
 *fill*         0x000000001ff67e2e        0x2 
 .rodata.decoder_rpmsg_serve_cb
                0x000000001ff67e30       0x50 C:\TMP\nn_denoise_rtc_sample.elf.ItDyV2.ltrans0.ltrans.o
 .rodata.asr_top_outside_serve_cb.str1.4
                0x000000001ff67e80        0xd C:\TMP\nn_denoise_rtc_sample.elf.ItDyV2.ltrans0.ltrans.o
 *fill*         0x000000001ff67e8d        0x3 
 .rodata.sb_encoder_destroy.str1.4
                0x000000001ff67e90       0x35 C:\TMP\nn_denoise_rtc_sample.elf.ItDyV2.ltrans0.ltrans.o
 *fill*         0x000000001ff67ec5        0x3 
 .rodata.sb_encoder_init.str1.4
                0x000000001ff67ec8       0x13 C:\TMP\nn_denoise_rtc_sample.elf.ItDyV2.ltrans0.ltrans.o
 *fill*         0x000000001ff67edb        0x1 
 .rodata.nb_encoder_destroy.str1.4
                0x000000001ff67edc       0x19 C:\TMP\nn_denoise_rtc_sample.elf.ItDyV2.ltrans0.ltrans.o
 *fill*         0x000000001ff67ef5        0x3 
 .rodata.nb_encoder_init.str1.4
                0x000000001ff67ef8       0x13 C:\TMP\nn_denoise_rtc_sample.elf.ItDyV2.ltrans0.ltrans.o
 *fill*         0x000000001ff67f0b        0x1 
 .rodata        0x000000001ff67f0c       0x98 C:\TMP\nn_denoise_rtc_sample.elf.ItDyV2.ltrans0.ltrans.o
 .rodata.__FUNCTION__.5548
                0x000000001ff67fa4       0x17 C:\TMP\nn_denoise_rtc_sample.elf.ItDyV2.ltrans0.ltrans.o
 *fill*         0x000000001ff67fbb        0x1 
 .rodata.__FUNCTION__.5769
                0x000000001ff67fbc       0x11 C:\TMP\nn_denoise_rtc_sample.elf.ItDyV2.ltrans0.ltrans.o
 *fill*         0x000000001ff67fcd        0x3 
 .rodata.attenuation
                0x000000001ff67fd0       0x28 C:\TMP\nn_denoise_rtc_sample.elf.ItDyV2.ltrans0.ltrans.o
 .rodata.cdbk_nb
                0x000000001ff67ff8      0x280 C:\TMP\nn_denoise_rtc_sample.elf.ItDyV2.ltrans0.ltrans.o
 .rodata.cdbk_nb_high1
                0x000000001ff68278      0x140 C:\TMP\nn_denoise_rtc_sample.elf.ItDyV2.ltrans0.ltrans.o
 .rodata.cdbk_nb_high2
                0x000000001ff683b8      0x140 C:\TMP\nn_denoise_rtc_sample.elf.ItDyV2.ltrans0.ltrans.o
 .rodata.cdbk_nb_low1
                0x000000001ff684f8      0x140 C:\TMP\nn_denoise_rtc_sample.elf.ItDyV2.ltrans0.ltrans.o
 .rodata.cdbk_nb_low2
                0x000000001ff68638      0x140 C:\TMP\nn_denoise_rtc_sample.elf.ItDyV2.ltrans0.ltrans.o
 .rodata.exc_gain_quant_scal3
                0x000000001ff68778       0x20 C:\TMP\nn_denoise_rtc_sample.elf.ItDyV2.ltrans0.ltrans.o
 .rodata.exc_gain_quant_scal3_bound
                0x000000001ff68798       0x1c C:\TMP\nn_denoise_rtc_sample.elf.ItDyV2.ltrans0.ltrans.o
 .rodata.fold_quant_bound
                0x000000001ff687b4       0x80 C:\TMP\nn_denoise_rtc_sample.elf.ItDyV2.ltrans0.ltrans.o
 .rodata.gc_quant_bound
                0x000000001ff68834       0x40 C:\TMP\nn_denoise_rtc_sample.elf.ItDyV2.ltrans0.ltrans.o
 .rodata.h0     0x000000001ff68874      0x100 C:\TMP\nn_denoise_rtc_sample.elf.ItDyV2.ltrans0.ltrans.o
 .rodata.high_lsp_cdbk
                0x000000001ff68974      0x200 C:\TMP\nn_denoise_rtc_sample.elf.ItDyV2.ltrans0.ltrans.o
 .rodata.high_lsp_cdbk2
                0x000000001ff68b74      0x200 C:\TMP\nn_denoise_rtc_sample.elf.ItDyV2.ltrans0.ltrans.o
 .rodata.lag_window
                0x000000001ff68d74       0x2c C:\TMP\nn_denoise_rtc_sample.elf.ItDyV2.ltrans0.ltrans.o
 .rodata.lpc_window
                0x000000001ff68da0      0x320 C:\TMP\nn_denoise_rtc_sample.elf.ItDyV2.ltrans0.ltrans.o
 .rodata.shift_filt
                0x000000001ff690c0       0x54 C:\TMP\nn_denoise_rtc_sample.elf.ItDyV2.ltrans0.ltrans.o
 .rodata.wb_skip_table
                0x000000001ff69114       0x20 C:\TMP\nn_denoise_rtc_sample.elf.ItDyV2.ltrans0.ltrans.o
 .rodata.speex_warning.str1.4
                0x000000001ff69134        0xd C:\TMP\nn_denoise_rtc_sample.elf.ItDyV2.ltrans1.ltrans.o
 *fill*         0x000000001ff69141        0x3 
 .rodata.speex_bits_pack.str1.4
                0x000000001ff69144       0x71 C:\TMP\nn_denoise_rtc_sample.elf.ItDyV2.ltrans1.ltrans.o
 *fill*         0x000000001ff691b5        0x3 
 .rodata.UART2_IRQHandler.str1.4
                0x000000001ff691b8       0x1a C:\TMP\nn_denoise_rtc_sample.elf.ItDyV2.ltrans1.ltrans.o
 *fill*         0x000000001ff691d2        0x2 
 .rodata.IIC0_IRQHandler.str1.4
                0x000000001ff691d4       0x1a C:\TMP\nn_denoise_rtc_sample.elf.ItDyV2.ltrans1.ltrans.o
 *fill*         0x000000001ff691ee        0x2 
 .rodata.iis_wait_load_ctrl.str1.4
                0x000000001ff691f0       0x18 C:\TMP\nn_denoise_rtc_sample.elf.ItDyV2.ltrans1.ltrans.o
 .rodata.IISxDMA_TADDR1.part.0.str1.4
                0x000000001ff69208       0x1f C:\TMP\nn_denoise_rtc_sample.elf.ItDyV2.ltrans1.ltrans.o
 .rodata.IISDMA_ADDRRollBackINT.part.0.str1.4
                0x000000001ff69208       0x1d C:\TMP\nn_denoise_rtc_sample.elf.ItDyV2.ltrans1.ltrans.o
 .rodata.get_iis_dma_channel.str1.4
                0x000000001ff69225       0x16 C:\TMP\nn_denoise_rtc_sample.elf.ItDyV2.ltrans1.ltrans.o
 *fill*         0x000000001ff69225        0x3 
 .rodata.cm_reg_codec.part.0.str1.4
                0x000000001ff69228       0x11 C:\TMP\nn_denoise_rtc_sample.elf.ItDyV2.ltrans1.ltrans.o
 *fill*         0x000000001ff69239        0x3 
 .rodata.cinv_port_mutex_give.str1.4
                0x000000001ff6923c        0xb C:\TMP\nn_denoise_rtc_sample.elf.ItDyV2.ltrans1.ltrans.o
 *fill*         0x000000001ff69247        0x1 
 .rodata.cm_input_interrupt_handler.str1.4
                0x000000001ff69248       0x19 C:\TMP\nn_denoise_rtc_sample.elf.ItDyV2.ltrans1.ltrans.o
 *fill*         0x000000001ff69261        0x3 
 .rodata.realloc_buffer.str1.4
                0x000000001ff69264       0x1c C:\TMP\nn_denoise_rtc_sample.elf.ItDyV2.ltrans1.ltrans.o
 .rodata.get_file_addr.str1.4
                0x000000001ff69280       0x1f C:\TMP\nn_denoise_rtc_sample.elf.ItDyV2.ltrans1.ltrans.o
 *fill*         0x000000001ff6929f        0x1 
 .rodata.get_current_model_addr.str1.4
                0x000000001ff692a0       0x15 C:\TMP\nn_denoise_rtc_sample.elf.ItDyV2.ltrans1.ltrans.o
 *fill*         0x000000001ff692b5        0x3 
 .rodata.flash_control_inner_serve_cb.str1.4
                0x000000001ff692b8       0x1d C:\TMP\nn_denoise_rtc_sample.elf.ItDyV2.ltrans1.ltrans.o
 *fill*         0x000000001ff692d5        0x3 
 .rodata.speex_record_data_task.str1.4
                0x000000001ff692d8       0x51 C:\TMP\nn_denoise_rtc_sample.elf.ItDyV2.ltrans1.ltrans.o
 *fill*         0x000000001ff69329        0x3 
 .rodata.prvTimerTask
                0x000000001ff6932c       0x28 C:\TMP\nn_denoise_rtc_sample.elf.ItDyV2.ltrans1.ltrans.o
 .rodata.speex_play_data_task.str1.4
                0x000000001ff69354       0x23 C:\TMP\nn_denoise_rtc_sample.elf.ItDyV2.ltrans1.ltrans.o
 *fill*         0x000000001ff69377        0x1 
 .rodata.audio_pre_rslt_write_data.str1.4
                0x000000001ff69378       0x29 C:\TMP\nn_denoise_rtc_sample.elf.ItDyV2.ltrans1.ltrans.o
 *fill*         0x000000001ff693a1        0x3 
 .rodata.ifft_data_handle_task_rtc.str1.4
                0x000000001ff693a4       0x20 C:\TMP\nn_denoise_rtc_sample.elf.ItDyV2.ltrans1.ltrans.o
 .rodata.codec_manage_inner_serve_cb
                0x000000001ff693c4       0x14 C:\TMP\nn_denoise_rtc_sample.elf.ItDyV2.ltrans1.ltrans.o
 .rodata.uart_eq_param_cfg_task.str1.4
                0x000000001ff693d8      0x2e7 C:\TMP\nn_denoise_rtc_sample.elf.ItDyV2.ltrans1.ltrans.o
                                        0x2eb (size before relaxing)
 *fill*         0x000000001ff696bf        0x1 
 .rodata.handle_trap.str1.4
                0x000000001ff696c0       0x5d C:\TMP\nn_denoise_rtc_sample.elf.ItDyV2.ltrans1.ltrans.o
 *fill*         0x000000001ff6971d        0x3 
 .rodata.speex_recv_data_task.str1.4
                0x000000001ff69720       0xf6 C:\TMP\nn_denoise_rtc_sample.elf.ItDyV2.ltrans1.ltrans.o
 *fill*         0x000000001ff69816        0x2 
 .rodata.main.str1.4
                0x000000001ff69818       0xcc C:\TMP\nn_denoise_rtc_sample.elf.ItDyV2.ltrans1.ltrans.o
 .rodata.GPIO_IRQ_Default_proc.str1.4
                0x000000001ff698e4       0x26 C:\TMP\nn_denoise_rtc_sample.elf.ItDyV2.ltrans1.ltrans.o
 *fill*         0x000000001ff6990a        0x2 
 .rodata.task_init.str1.4
                0x000000001ff6990c      0x5f7 C:\TMP\nn_denoise_rtc_sample.elf.ItDyV2.ltrans1.ltrans.o
                                        0x637 (size before relaxing)
 *fill*         0x000000001ff69f03        0x1 
 .rodata.audio_pre_rslt_out_play_card_init.str1.4
                0x000000001ff69f04       0x60 C:\TMP\nn_denoise_rtc_sample.elf.ItDyV2.ltrans1.ltrans.o
 .rodata.audio_in_manage_inner_task_rtc.str1.4
                0x000000001ff69f64       0x15 C:\TMP\nn_denoise_rtc_sample.elf.ItDyV2.ltrans1.ltrans.o
                                         0x49 (size before relaxing)
 *fill*         0x000000001ff69f79        0x3 
 .rodata.str1.4
                0x000000001ff69f7c        0xb C:\TMP\nn_denoise_rtc_sample.elf.ItDyV2.ltrans1.ltrans.o
 *fill*         0x000000001ff69f87        0x1 
 .rodata        0x000000001ff69f88      0x118 C:\TMP\nn_denoise_rtc_sample.elf.ItDyV2.ltrans1.ltrans.o
 .rodata.CRC_table
                0x000000001ff6a0a0      0x400 C:\TMP\nn_denoise_rtc_sample.elf.ItDyV2.ltrans1.ltrans.o
 .rodata.__FUNCTION__.3222
                0x000000001ff6a4a0       0x13 C:\TMP\nn_denoise_rtc_sample.elf.ItDyV2.ltrans1.ltrans.o
 *fill*         0x000000001ff6a4b3        0x1 
 .rodata.__FUNCTION__.5447
                0x000000001ff6a4b4        0xa C:\TMP\nn_denoise_rtc_sample.elf.ItDyV2.ltrans1.ltrans.o
 *fill*         0x000000001ff6a4be        0x2 
 .rodata.__FUNCTION__.6069
                0x000000001ff6a4c0       0x14 C:\TMP\nn_denoise_rtc_sample.elf.ItDyV2.ltrans1.ltrans.o
 .rodata.__FUNCTION__.6071
                0x000000001ff6a4d4        0xf C:\TMP\nn_denoise_rtc_sample.elf.ItDyV2.ltrans1.ltrans.o
 *fill*         0x000000001ff6a4e3        0x1 
 .rodata.__FUNCTION__.6117
                0x000000001ff6a4e4       0x1e C:\TMP\nn_denoise_rtc_sample.elf.ItDyV2.ltrans1.ltrans.o
 *fill*         0x000000001ff6a502        0x2 
 .rodata.__FUNCTION__.6124
                0x000000001ff6a504       0x25 C:\TMP\nn_denoise_rtc_sample.elf.ItDyV2.ltrans1.ltrans.o
 *fill*         0x000000001ff6a529        0x3 
 .rodata.__FUNCTION__.6183
                0x000000001ff6a52c       0x10 C:\TMP\nn_denoise_rtc_sample.elf.ItDyV2.ltrans1.ltrans.o
 .rodata.__FUNCTION__.6668
                0x000000001ff6a53c       0x22 C:\TMP\nn_denoise_rtc_sample.elf.ItDyV2.ltrans1.ltrans.o
 *fill*         0x000000001ff6a55e        0x2 
 .rodata.__FUNCTION__.7597
                0x000000001ff6a560       0x1f C:\TMP\nn_denoise_rtc_sample.elf.ItDyV2.ltrans1.ltrans.o
 *fill*         0x000000001ff6a57f        0x1 
 .rodata.__func__.4151
                0x000000001ff6a580       0x16 C:\TMP\nn_denoise_rtc_sample.elf.ItDyV2.ltrans1.ltrans.o
 *fill*         0x000000001ff6a596        0x2 
 .rodata.__func__.4155
                0x000000001ff6a598       0x15 C:\TMP\nn_denoise_rtc_sample.elf.ItDyV2.ltrans1.ltrans.o
 *fill*         0x000000001ff6a5ad        0x3 
 .rodata.__func__.4159
                0x000000001ff6a5b0       0x15 C:\TMP\nn_denoise_rtc_sample.elf.ItDyV2.ltrans1.ltrans.o
 *fill*         0x000000001ff6a5c5        0x3 
 .rodata.aec_config
                0x000000001ff6a5c8       0x54 C:\TMP\nn_denoise_rtc_sample.elf.ItDyV2.ltrans1.ltrans.o
 .rodata.exc_10_16_table
                0x000000001ff6a61c       0xa0 C:\TMP\nn_denoise_rtc_sample.elf.ItDyV2.ltrans1.ltrans.o
 .rodata.exc_10_32_table
                0x000000001ff6a6bc      0x140 C:\TMP\nn_denoise_rtc_sample.elf.ItDyV2.ltrans1.ltrans.o
 .rodata.exc_20_32_table
                0x000000001ff6a7fc      0x280 C:\TMP\nn_denoise_rtc_sample.elf.ItDyV2.ltrans1.ltrans.o
 .rodata.exc_5_256_table
                0x000000001ff6aa7c      0x500 C:\TMP\nn_denoise_rtc_sample.elf.ItDyV2.ltrans1.ltrans.o
 .rodata.exc_5_64_table
                0x000000001ff6af7c      0x140 C:\TMP\nn_denoise_rtc_sample.elf.ItDyV2.ltrans1.ltrans.o
 .rodata.exc_8_128_table
                0x000000001ff6b0bc      0x400 C:\TMP\nn_denoise_rtc_sample.elf.ItDyV2.ltrans1.ltrans.o
 .rodata.gain_cdbk_lbr
                0x000000001ff6b4bc       0x80 C:\TMP\nn_denoise_rtc_sample.elf.ItDyV2.ltrans1.ltrans.o
 .rodata.gain_cdbk_nb
                0x000000001ff6b53c      0x200 C:\TMP\nn_denoise_rtc_sample.elf.ItDyV2.ltrans1.ltrans.o
 .rodata.hexc_10_32_table
                0x000000001ff6b73c      0x140 C:\TMP\nn_denoise_rtc_sample.elf.ItDyV2.ltrans1.ltrans.o
 .rodata.hexc_table
                0x000000001ff6b87c      0x400 C:\TMP\nn_denoise_rtc_sample.elf.ItDyV2.ltrans1.ltrans.o
 .rodata.host_mic_hw_info
                0x000000001ff6bc7c       0x54 C:\TMP\nn_denoise_rtc_sample.elf.ItDyV2.ltrans1.ltrans.o
 .rodata.ltp_params_lbr
                0x000000001ff6bcd0        0xc C:\TMP\nn_denoise_rtc_sample.elf.ItDyV2.ltrans1.ltrans.o
 .rodata.ltp_params_med
                0x000000001ff6bcdc        0xc C:\TMP\nn_denoise_rtc_sample.elf.ItDyV2.ltrans1.ltrans.o
 .rodata.ltp_params_nb
                0x000000001ff6bce8        0xc C:\TMP\nn_denoise_rtc_sample.elf.ItDyV2.ltrans1.ltrans.o
 .rodata.ltp_params_vlbr
                0x000000001ff6bcf4        0xc C:\TMP\nn_denoise_rtc_sample.elf.ItDyV2.ltrans1.ltrans.o
 .rodata.nb_mode
                0x000000001ff6bd00       0x90 C:\TMP\nn_denoise_rtc_sample.elf.ItDyV2.ltrans1.ltrans.o
 .rodata.nb_submode1
                0x000000001ff6bd90       0x38 C:\TMP\nn_denoise_rtc_sample.elf.ItDyV2.ltrans1.ltrans.o
 .rodata.nb_submode2
                0x000000001ff6bdc8       0x38 C:\TMP\nn_denoise_rtc_sample.elf.ItDyV2.ltrans1.ltrans.o
 .rodata.nb_submode3
                0x000000001ff6be00       0x38 C:\TMP\nn_denoise_rtc_sample.elf.ItDyV2.ltrans1.ltrans.o
 .rodata.nb_submode4
                0x000000001ff6be38       0x38 C:\TMP\nn_denoise_rtc_sample.elf.ItDyV2.ltrans1.ltrans.o
 .rodata.nb_submode5
                0x000000001ff6be70       0x38 C:\TMP\nn_denoise_rtc_sample.elf.ItDyV2.ltrans1.ltrans.o
 .rodata.nb_submode6
                0x000000001ff6bea8       0x38 C:\TMP\nn_denoise_rtc_sample.elf.ItDyV2.ltrans1.ltrans.o
 .rodata.nb_submode7
                0x000000001ff6bee0       0x38 C:\TMP\nn_denoise_rtc_sample.elf.ItDyV2.ltrans1.ltrans.o
 .rodata.nb_submode8
                0x000000001ff6bf18       0x38 C:\TMP\nn_denoise_rtc_sample.elf.ItDyV2.ltrans1.ltrans.o
 .rodata.over_sample_table.6100
                0x000000001ff6bf50       0x10 C:\TMP\nn_denoise_rtc_sample.elf.ItDyV2.ltrans1.ltrans.o
 .rodata.sb_wb_mode
                0x000000001ff6bf60       0xa0 C:\TMP\nn_denoise_rtc_sample.elf.ItDyV2.ltrans1.ltrans.o
 .rodata.speex_nb_mode
                0x000000001ff6c000       0x34 C:\TMP\nn_denoise_rtc_sample.elf.ItDyV2.ltrans1.ltrans.o
 .rodata.split_cb_high
                0x000000001ff6c034       0x14 C:\TMP\nn_denoise_rtc_sample.elf.ItDyV2.ltrans1.ltrans.o
 .rodata.split_cb_high_lbr
                0x000000001ff6c048       0x14 C:\TMP\nn_denoise_rtc_sample.elf.ItDyV2.ltrans1.ltrans.o
 .rodata.split_cb_nb
                0x000000001ff6c05c       0x14 C:\TMP\nn_denoise_rtc_sample.elf.ItDyV2.ltrans1.ltrans.o
 .rodata.split_cb_nb_lbr
                0x000000001ff6c070       0x14 C:\TMP\nn_denoise_rtc_sample.elf.ItDyV2.ltrans1.ltrans.o
 .rodata.split_cb_nb_med
                0x000000001ff6c084       0x14 C:\TMP\nn_denoise_rtc_sample.elf.ItDyV2.ltrans1.ltrans.o
 .rodata.split_cb_nb_ulbr
                0x000000001ff6c098       0x14 C:\TMP\nn_denoise_rtc_sample.elf.ItDyV2.ltrans1.ltrans.o
 .rodata.split_cb_nb_vlbr
                0x000000001ff6c0ac       0x14 C:\TMP\nn_denoise_rtc_sample.elf.ItDyV2.ltrans1.ltrans.o
 .rodata.split_cb_sb
                0x000000001ff6c0c0       0x14 C:\TMP\nn_denoise_rtc_sample.elf.ItDyV2.ltrans1.ltrans.o
 .rodata.stft_istft_config
                0x000000001ff6c0d4       0x20 C:\TMP\nn_denoise_rtc_sample.elf.ItDyV2.ltrans1.ltrans.o
 .rodata.table_crc8
                0x000000001ff6c0f4      0x100 C:\TMP\nn_denoise_rtc_sample.elf.ItDyV2.ltrans1.ltrans.o
 .rodata.wb_submode1
                0x000000001ff6c1f4       0x38 C:\TMP\nn_denoise_rtc_sample.elf.ItDyV2.ltrans1.ltrans.o
 .rodata.wb_submode2
                0x000000001ff6c22c       0x38 C:\TMP\nn_denoise_rtc_sample.elf.ItDyV2.ltrans1.ltrans.o
 .rodata.wb_submode3
                0x000000001ff6c264       0x38 C:\TMP\nn_denoise_rtc_sample.elf.ItDyV2.ltrans1.ltrans.o
 .rodata.wb_submode4
                0x000000001ff6c29c       0x38 C:\TMP\nn_denoise_rtc_sample.elf.ItDyV2.ltrans1.ltrans.o
 .rodata.sbrk.str1.4
                0x000000001ff6c2d4       0x18 ../../../libs\libnewlib_port.a(sbrk.o)
 .rodata        0x000000001ff6c2ec       0x3c d:/software/yuyin/qiqiyinqiluntai/riscv-nuclei-elf-gcc-9.2.0.0/gcc_fix_raissrc/bin/../lib/gcc/riscv-nuclei-elf/9.2.0/rv32imafc/ilp32f\libgcc.a(divdf3.o)
 .rodata        0x000000001ff6c328       0x3c d:/software/yuyin/qiqiyinqiluntai/riscv-nuclei-elf-gcc-9.2.0.0/gcc_fix_raissrc/bin/../lib/gcc/riscv-nuclei-elf/9.2.0/rv32imafc/ilp32f\libgcc.a(muldf3.o)
 .rodata        0x000000001ff6c364      0x100 d:/software/yuyin/qiqiyinqiluntai/riscv-nuclei-elf-gcc-9.2.0.0/gcc_fix_raissrc/bin/../lib/gcc/riscv-nuclei-elf/9.2.0/rv32imafc/ilp32f\libgcc.a(_clz.o)
                0x000000001ff6c364                __clz_tab
 .rodata._vfprintf_r.str1.4
                0x000000001ff6c464       0x13 d:/software/yuyin/qiqiyinqiluntai/riscv-nuclei-elf-gcc-9.2.0.0/gcc_fix_raissrc/bin/../lib/gcc/riscv-nuclei-elf/9.2.0/../../../../riscv-nuclei-elf/lib/rv32imafc/ilp32f\libg_nano.a(lib_a-nano-vfprintf.o)
 *fill*         0x000000001ff6c477        0x1 
 .rodata.__sf_fake_stderr
                0x000000001ff6c478       0x20 d:/software/yuyin/qiqiyinqiluntai/riscv-nuclei-elf-gcc-9.2.0.0/gcc_fix_raissrc/bin/../lib/gcc/riscv-nuclei-elf/9.2.0/../../../../riscv-nuclei-elf/lib/rv32imafc/ilp32f\libg_nano.a(lib_a-findfp.o)
                0x000000001ff6c478                __sf_fake_stderr
 .rodata.__sf_fake_stdin
                0x000000001ff6c498       0x20 d:/software/yuyin/qiqiyinqiluntai/riscv-nuclei-elf-gcc-9.2.0.0/gcc_fix_raissrc/bin/../lib/gcc/riscv-nuclei-elf/9.2.0/../../../../riscv-nuclei-elf/lib/rv32imafc/ilp32f\libg_nano.a(lib_a-findfp.o)
                0x000000001ff6c498                __sf_fake_stdin
 .rodata.__sf_fake_stdout
                0x000000001ff6c4b8       0x20 d:/software/yuyin/qiqiyinqiluntai/riscv-nuclei-elf-gcc-9.2.0.0/gcc_fix_raissrc/bin/../lib/gcc/riscv-nuclei-elf/9.2.0/../../../../riscv-nuclei-elf/lib/rv32imafc/ilp32f\libg_nano.a(lib_a-findfp.o)
                0x000000001ff6c4b8                __sf_fake_stdout
 .rodata._printf_i.str1.4
                0x000000001ff6c4d8       0x28 d:/software/yuyin/qiqiyinqiluntai/riscv-nuclei-elf-gcc-9.2.0.0/gcc_fix_raissrc/bin/../lib/gcc/riscv-nuclei-elf/9.2.0/../../../../riscv-nuclei-elf/lib/rv32imafc/ilp32f\libg_nano.a(lib_a-nano-vfprintf_i.o)
                                         0x25 (size before relaxing)
 .rodata._printf_i
                0x000000001ff6c500       0x58 d:/software/yuyin/qiqiyinqiluntai/riscv-nuclei-elf-gcc-9.2.0.0/gcc_fix_raissrc/bin/../lib/gcc/riscv-nuclei-elf/9.2.0/../../../../riscv-nuclei-elf/lib/rv32imafc/ilp32f\libg_nano.a(lib_a-nano-vfprintf_i.o)
 .rodata.str1.4
                0x000000001ff6c558        0x5 d:/software/yuyin/qiqiyinqiluntai/riscv-nuclei-elf-gcc-9.2.0.0/gcc_fix_raissrc/bin/../lib/gcc/riscv-nuclei-elf/9.2.0/../../../../riscv-nuclei-elf/lib/rv32imafc/ilp32f\libm.a(lib_a-w_acos.o)
                                          0x9 (size before relaxing)
 *fill*         0x000000001ff6c55d        0x3 
 .rodata.str1.4
                0x000000001ff6c560        0x4 d:/software/yuyin/qiqiyinqiluntai/riscv-nuclei-elf-gcc-9.2.0.0/gcc_fix_raissrc/bin/../lib/gcc/riscv-nuclei-elf/9.2.0/../../../../riscv-nuclei-elf/lib/rv32imafc/ilp32f\libm.a(lib_a-w_exp.o)
 .rodata.str1.4
                0x000000001ff6c564        0x5 d:/software/yuyin/qiqiyinqiluntai/riscv-nuclei-elf-gcc-9.2.0.0/gcc_fix_raissrc/bin/../lib/gcc/riscv-nuclei-elf/9.2.0/../../../../riscv-nuclei-elf/lib/rv32imafc/ilp32f\libm.a(lib_a-wf_pow.o)
 *fill*         0x000000001ff6c569        0x3 
 .rodata.str1.4
                0x000000001ff6c56c        0x4 d:/software/yuyin/qiqiyinqiluntai/riscv-nuclei-elf-gcc-9.2.0.0/gcc_fix_raissrc/bin/../lib/gcc/riscv-nuclei-elf/9.2.0/../../../../riscv-nuclei-elf/lib/rv32imafc/ilp32f\libm.a(lib_a-w_log.o)
                                          0x5 (size before relaxing)
 .rodata.str1.4
                0x000000001ff6c570        0x5 d:/software/yuyin/qiqiyinqiluntai/riscv-nuclei-elf-gcc-9.2.0.0/gcc_fix_raissrc/bin/../lib/gcc/riscv-nuclei-elf/9.2.0/../../../../riscv-nuclei-elf/lib/rv32imafc/ilp32f\libm.a(lib_a-w_sqrt.o)
 *fill*         0x000000001ff6c575        0x3 
 .rodata        0x000000001ff6c578       0x30 d:/software/yuyin/qiqiyinqiluntai/riscv-nuclei-elf-gcc-9.2.0.0/gcc_fix_raissrc/bin/../lib/gcc/riscv-nuclei-elf/9.2.0/../../../../riscv-nuclei-elf/lib/rv32imafc/ilp32f\libm.a(lib_a-e_exp.o)
 .rodata.str1.4
                0x000000001ff6c5a8        0x1 d:/software/yuyin/qiqiyinqiluntai/riscv-nuclei-elf-gcc-9.2.0.0/gcc_fix_raissrc/bin/../lib/gcc/riscv-nuclei-elf/9.2.0/../../../../riscv-nuclei-elf/lib/rv32imafc/ilp32f\libm.a(lib_a-ef_pow.o)

.rela.dyn       0x000000001ff6c5a8        0x0
 .rela.init     0x000000001ff6c5a8        0x0 build/objs/ci130x_vtable.o
 .rela.load_addr
                0x000000001ff6c5a8        0x0 build/objs/ci130x_vtable.o
 .rela.text.sbrk
                0x000000001ff6c5a8        0x0 build/objs/ci130x_vtable.o
 .rela.sdata.currentHeapEnd.5595
                0x000000001ff6c5a8        0x0 build/objs/ci130x_vtable.o
 .rela.text.entry
                0x000000001ff6c5a8        0x0 build/objs/ci130x_vtable.o
 .rela.text.__libc_fini_array
                0x000000001ff6c5a8        0x0 build/objs/ci130x_vtable.o
 .rela.text.__libc_init_array
                0x000000001ff6c5a8        0x0 build/objs/ci130x_vtable.o
 .rela.text.__register_exitproc
                0x000000001ff6c5a8        0x0 build/objs/ci130x_vtable.o
 .rela.text.pvPortMalloc
                0x000000001ff6c5a8        0x0 build/objs/ci130x_vtable.o
 .rela.text.handle_trap
                0x000000001ff6c5a8        0x0 build/objs/ci130x_vtable.o
 .rela.text.startup.main
                0x000000001ff6c5a8        0x0 build/objs/ci130x_vtable.o
 .rela.text.task_init
                0x000000001ff6c5a8        0x0 build/objs/ci130x_vtable.o
 .rela.text._init
                0x000000001ff6c5a8        0x0 build/objs/ci130x_vtable.o
 .rela.text._vfprintf_r
                0x000000001ff6c5a8        0x0 build/objs/ci130x_vtable.o
 .rela.text._sbrk_r
                0x000000001ff6c5a8        0x0 build/objs/ci130x_vtable.o
 .rela.text._write_r
                0x000000001ff6c5a8        0x0 build/objs/ci130x_vtable.o
 .rela.text._close_r
                0x000000001ff6c5a8        0x0 build/objs/ci130x_vtable.o
 .rela.text._fstat_r
                0x000000001ff6c5a8        0x0 build/objs/ci130x_vtable.o
 .rela.text._isatty_r
                0x000000001ff6c5a8        0x0 build/objs/ci130x_vtable.o
 .rela.text._lseek_r
                0x000000001ff6c5a8        0x0 build/objs/ci130x_vtable.o
 .rela.text._read_r
                0x000000001ff6c5a8        0x0 build/objs/ci130x_vtable.o

.lalign         0x000000001ff6c5a8        0x0
                0x000000001ff6c5a8                . = ALIGN (0x4)
                0x000000001ff6c5a8                PROVIDE (_data_lma = .)

.dalign         0x000000001ff6c5a8        0x0
                0x000000001ff6c5a8                . = ALIGN (0x4)
                0x000000001ff6c5a8                PROVIDE (_data = .)

.data           0x000000001ff6c5a8      0x6e0
 *(.gnu.linkonce.r.*)
 *(.data .data.*)
 .data.audio_capture
                0x000000001ff6c5a8        0xc C:\TMP\nn_denoise_rtc_sample.elf.ItDyV2.ltrans1.ltrans.o
 .data.audio_pre_tslt_out_info
                0x000000001ff6c5b4       0x54 C:\TMP\nn_denoise_rtc_sample.elf.ItDyV2.ltrans1.ltrans.o
 .data.ci_ssp   0x000000001ff6c608       0xe0 C:\TMP\nn_denoise_rtc_sample.elf.ItDyV2.ltrans1.ltrans.o
 .data.eq_config
                0x000000001ff6c6e8       0x78 C:\TMP\nn_denoise_rtc_sample.elf.ItDyV2.ltrans1.ltrans.o
 .data.impure_data
                0x000000001ff6c760       0x60 d:/software/yuyin/qiqiyinqiluntai/riscv-nuclei-elf-gcc-9.2.0.0/gcc_fix_raissrc/bin/../lib/gcc/riscv-nuclei-elf/9.2.0/../../../../riscv-nuclei-elf/lib/rv32imafc/ilp32f\libg_nano.a(lib_a-impure.o)
 *(.gnu.linkonce.d.*)
                0x000000001ff6c7c0                . = ALIGN (0x8)
                0x000000001ff6cfc0                PROVIDE (__global_pointer$ = (. + 0x800))
 *(.sdata .sdata.* .sdata*)
 .sdata.uxCriticalNesting
                0x000000001ff6c7c0        0x4 C:\TMP\nn_denoise_rtc_sample.elf.ItDyV2.ltrans0.ltrans.o
 .sdata2.exc_gain_quant_scal1
                0x000000001ff6c7c4        0x8 C:\TMP\nn_denoise_rtc_sample.elf.ItDyV2.ltrans0.ltrans.o
 .sdata2.mailbox_ports
                0x000000001ff6c7cc        0x8 C:\TMP\nn_denoise_rtc_sample.elf.ItDyV2.ltrans0.ltrans.o
 .sdata.a0_string
                0x000000001ff6c7d4        0x3 C:\TMP\nn_denoise_rtc_sample.elf.ItDyV2.ltrans1.ltrans.o
 *fill*         0x000000001ff6c7d7        0x1 
 .sdata.a1_string
                0x000000001ff6c7d8        0x3 C:\TMP\nn_denoise_rtc_sample.elf.ItDyV2.ltrans1.ltrans.o
 *fill*         0x000000001ff6c7db        0x1 
 .sdata.a2_string
                0x000000001ff6c7dc        0x3 C:\TMP\nn_denoise_rtc_sample.elf.ItDyV2.ltrans1.ltrans.o
 *fill*         0x000000001ff6c7df        0x1 
 .sdata.a3_string
                0x000000001ff6c7e0        0x3 C:\TMP\nn_denoise_rtc_sample.elf.ItDyV2.ltrans1.ltrans.o
 *fill*         0x000000001ff6c7e3        0x1 
 .sdata.a4_string
                0x000000001ff6c7e4        0x3 C:\TMP\nn_denoise_rtc_sample.elf.ItDyV2.ltrans1.ltrans.o
 *fill*         0x000000001ff6c7e7        0x1 
 .sdata.a5_string
                0x000000001ff6c7e8        0x3 C:\TMP\nn_denoise_rtc_sample.elf.ItDyV2.ltrans1.ltrans.o
 *fill*         0x000000001ff6c7eb        0x1 
 .sdata.a6_string
                0x000000001ff6c7ec        0x3 C:\TMP\nn_denoise_rtc_sample.elf.ItDyV2.ltrans1.ltrans.o
 *fill*         0x000000001ff6c7ef        0x1 
 .sdata.a7_string
                0x000000001ff6c7f0        0x3 C:\TMP\nn_denoise_rtc_sample.elf.ItDyV2.ltrans1.ltrans.o
 *fill*         0x000000001ff6c7f3        0x1 
 .sdata.ai_denoise_config
                0x000000001ff6c7f4        0x8 C:\TMP\nn_denoise_rtc_sample.elf.ItDyV2.ltrans1.ltrans.o
 .sdata.cmd_file_start_addr_in_flash
                0x000000001ff6c7fc        0x4 C:\TMP\nn_denoise_rtc_sample.elf.ItDyV2.ltrans1.ltrans.o
 .sdata.fp_string
                0x000000001ff6c800        0x3 C:\TMP\nn_denoise_rtc_sample.elf.ItDyV2.ltrans1.ltrans.o
 *fill*         0x000000001ff6c803        0x1 
 .sdata.gp_string
                0x000000001ff6c804        0x3 C:\TMP\nn_denoise_rtc_sample.elf.ItDyV2.ltrans1.ltrans.o
 *fill*         0x000000001ff6c807        0x1 
 .sdata.mcause_string
                0x000000001ff6c808        0x7 C:\TMP\nn_denoise_rtc_sample.elf.ItDyV2.ltrans1.ltrans.o
 *fill*         0x000000001ff6c80f        0x1 
 .sdata.mepc_string
                0x000000001ff6c810        0x5 C:\TMP\nn_denoise_rtc_sample.elf.ItDyV2.ltrans1.ltrans.o
 *fill*         0x000000001ff6c815        0x3 
 .sdata.mstatus_string
                0x000000001ff6c818        0x8 C:\TMP\nn_denoise_rtc_sample.elf.ItDyV2.ltrans1.ltrans.o
 .sdata.msubm_string
                0x000000001ff6c820        0x6 C:\TMP\nn_denoise_rtc_sample.elf.ItDyV2.ltrans1.ltrans.o
 *fill*         0x000000001ff6c826        0x2 
 .sdata.pre_rslt_out_sound_info
                0x000000001ff6c828        0x8 C:\TMP\nn_denoise_rtc_sample.elf.ItDyV2.ltrans1.ltrans.o
 .sdata.ra_string
                0x000000001ff6c830        0x3 C:\TMP\nn_denoise_rtc_sample.elf.ItDyV2.ltrans1.ltrans.o
 .sdata.rtc_denoise_func_status.6068
                0x000000001ff6c833        0x1 C:\TMP\nn_denoise_rtc_sample.elf.ItDyV2.ltrans1.ltrans.o
 .sdata.s10_string
                0x000000001ff6c834        0x4 C:\TMP\nn_denoise_rtc_sample.elf.ItDyV2.ltrans1.ltrans.o
 .sdata.s11_string
                0x000000001ff6c838        0x4 C:\TMP\nn_denoise_rtc_sample.elf.ItDyV2.ltrans1.ltrans.o
 .sdata.s1_string
                0x000000001ff6c83c        0x3 C:\TMP\nn_denoise_rtc_sample.elf.ItDyV2.ltrans1.ltrans.o
 *fill*         0x000000001ff6c83f        0x1 
 .sdata.s2_string
                0x000000001ff6c840        0x3 C:\TMP\nn_denoise_rtc_sample.elf.ItDyV2.ltrans1.ltrans.o
 *fill*         0x000000001ff6c843        0x1 
 .sdata.s3_string
                0x000000001ff6c844        0x3 C:\TMP\nn_denoise_rtc_sample.elf.ItDyV2.ltrans1.ltrans.o
 *fill*         0x000000001ff6c847        0x1 
 .sdata.s4_string
                0x000000001ff6c848        0x3 C:\TMP\nn_denoise_rtc_sample.elf.ItDyV2.ltrans1.ltrans.o
 *fill*         0x000000001ff6c84b        0x1 
 .sdata.s5_string
                0x000000001ff6c84c        0x3 C:\TMP\nn_denoise_rtc_sample.elf.ItDyV2.ltrans1.ltrans.o
 *fill*         0x000000001ff6c84f        0x1 
 .sdata.s6_string
                0x000000001ff6c850        0x3 C:\TMP\nn_denoise_rtc_sample.elf.ItDyV2.ltrans1.ltrans.o
 *fill*         0x000000001ff6c853        0x1 
 .sdata.s7_string
                0x000000001ff6c854        0x3 C:\TMP\nn_denoise_rtc_sample.elf.ItDyV2.ltrans1.ltrans.o
 *fill*         0x000000001ff6c857        0x1 
 .sdata.s8_string
                0x000000001ff6c858        0x3 C:\TMP\nn_denoise_rtc_sample.elf.ItDyV2.ltrans1.ltrans.o
 *fill*         0x000000001ff6c85b        0x1 
 .sdata.s9_string
                0x000000001ff6c85c        0x3 C:\TMP\nn_denoise_rtc_sample.elf.ItDyV2.ltrans1.ltrans.o
 *fill*         0x000000001ff6c85f        0x1 
 .sdata.sp_string
                0x000000001ff6c860        0x3 C:\TMP\nn_denoise_rtc_sample.elf.ItDyV2.ltrans1.ltrans.o
 *fill*         0x000000001ff6c863        0x1 
 .sdata.t0_string
                0x000000001ff6c864        0x3 C:\TMP\nn_denoise_rtc_sample.elf.ItDyV2.ltrans1.ltrans.o
 *fill*         0x000000001ff6c867        0x1 
 .sdata.t1_string
                0x000000001ff6c868        0x3 C:\TMP\nn_denoise_rtc_sample.elf.ItDyV2.ltrans1.ltrans.o
 *fill*         0x000000001ff6c86b        0x1 
 .sdata.t2_string
                0x000000001ff6c86c        0x3 C:\TMP\nn_denoise_rtc_sample.elf.ItDyV2.ltrans1.ltrans.o
 *fill*         0x000000001ff6c86f        0x1 
 .sdata.t3_string
                0x000000001ff6c870        0x3 C:\TMP\nn_denoise_rtc_sample.elf.ItDyV2.ltrans1.ltrans.o
 *fill*         0x000000001ff6c873        0x1 
 .sdata.t4_string
                0x000000001ff6c874        0x3 C:\TMP\nn_denoise_rtc_sample.elf.ItDyV2.ltrans1.ltrans.o
 *fill*         0x000000001ff6c877        0x1 
 .sdata.t5_string
                0x000000001ff6c878        0x3 C:\TMP\nn_denoise_rtc_sample.elf.ItDyV2.ltrans1.ltrans.o
 *fill*         0x000000001ff6c87b        0x1 
 .sdata.t6_string
                0x000000001ff6c87c        0x3 C:\TMP\nn_denoise_rtc_sample.elf.ItDyV2.ltrans1.ltrans.o
 *fill*         0x000000001ff6c87f        0x1 
 .sdata.tp_string
                0x000000001ff6c880        0x3 C:\TMP\nn_denoise_rtc_sample.elf.ItDyV2.ltrans1.ltrans.o
 *fill*         0x000000001ff6c883        0x1 
 .sdata.trans_blk
                0x000000001ff6c884        0x2 C:\TMP\nn_denoise_rtc_sample.elf.ItDyV2.ltrans1.ltrans.o
 .sdata.trans_off
                0x000000001ff6c886        0x2 C:\TMP\nn_denoise_rtc_sample.elf.ItDyV2.ltrans1.ltrans.o
 .sdata2.host_mic_sound_info
                0x000000001ff6c888        0x8 C:\TMP\nn_denoise_rtc_sample.elf.ItDyV2.ltrans1.ltrans.o
 .sdata2.iis_out_audio_config
                0x000000001ff6c890        0x5 C:\TMP\nn_denoise_rtc_sample.elf.ItDyV2.ltrans1.ltrans.o
 *fill*         0x000000001ff6c895        0x3 
 .sdata.currentHeapEnd.5595
                0x000000001ff6c898        0x4 ../../../libs\libnewlib_port.a(sbrk.o)
 .sdata._impure_ptr
                0x000000001ff6c89c        0x4 d:/software/yuyin/qiqiyinqiluntai/riscv-nuclei-elf-gcc-9.2.0.0/gcc_fix_raissrc/bin/../lib/gcc/riscv-nuclei-elf/9.2.0/../../../../riscv-nuclei-elf/lib/rv32imafc/ilp32f\libg_nano.a(lib_a-impure.o)
                0x000000001ff6c89c                _impure_ptr
 .sdata2._global_impure_ptr
                0x000000001ff6c8a0        0x4 d:/software/yuyin/qiqiyinqiluntai/riscv-nuclei-elf-gcc-9.2.0.0/gcc_fix_raissrc/bin/../lib/gcc/riscv-nuclei-elf/9.2.0/../../../../riscv-nuclei-elf/lib/rv32imafc/ilp32f\libg_nano.a(lib_a-impure.o)
                0x000000001ff6c8a0                _global_impure_ptr
 .sdata         0x000000001ff6c8a4        0x4 d:/software/yuyin/qiqiyinqiluntai/riscv-nuclei-elf-gcc-9.2.0.0/gcc_fix_raissrc/bin/../lib/gcc/riscv-nuclei-elf/9.2.0/../../../../riscv-nuclei-elf/lib/rv32imafc/ilp32f\libm.a(lib_a-s_lib_ver.o)
                0x000000001ff6c8a4                __fdlib_version
 *(.gnu.linkonce.s.*)
                0x000000001ff6c8a8                . = ALIGN (0x8)
 *(.srodata.cst16)
 *(.srodata.cst8)
 .srodata.cst8  0x000000001ff6c8a8      0x138 C:\TMP\nn_denoise_rtc_sample.elf.ItDyV2.ltrans0.ltrans.o
 .srodata.cst8  0x000000001ff6c9e0        0x8 d:/software/yuyin/qiqiyinqiluntai/riscv-nuclei-elf-gcc-9.2.0.0/gcc_fix_raissrc/bin/../lib/gcc/riscv-nuclei-elf/9.2.0/../../../../riscv-nuclei-elf/lib/rv32imafc/ilp32f\libm.a(lib_a-s_floor.o)
 .srodata.cst8  0x000000001ff6c9e8        0x8 d:/software/yuyin/qiqiyinqiluntai/riscv-nuclei-elf-gcc-9.2.0.0/gcc_fix_raissrc/bin/../lib/gcc/riscv-nuclei-elf/9.2.0/../../../../riscv-nuclei-elf/lib/rv32imafc/ilp32f\libm.a(lib_a-w_acos.o)
 .srodata.cst8  0x000000001ff6c9e8       0x20 d:/software/yuyin/qiqiyinqiluntai/riscv-nuclei-elf-gcc-9.2.0.0/gcc_fix_raissrc/bin/../lib/gcc/riscv-nuclei-elf/9.2.0/../../../../riscv-nuclei-elf/lib/rv32imafc/ilp32f\libm.a(lib_a-w_exp.o)
 .srodata.cst8  0x000000001ff6ca08       0x10 d:/software/yuyin/qiqiyinqiluntai/riscv-nuclei-elf-gcc-9.2.0.0/gcc_fix_raissrc/bin/../lib/gcc/riscv-nuclei-elf/9.2.0/../../../../riscv-nuclei-elf/lib/rv32imafc/ilp32f\libm.a(lib_a-wf_pow.o)
                                         0x28 (size before relaxing)
 .srodata.cst8  0x000000001ff6ca18       0x10 d:/software/yuyin/qiqiyinqiluntai/riscv-nuclei-elf-gcc-9.2.0.0/gcc_fix_raissrc/bin/../lib/gcc/riscv-nuclei-elf/9.2.0/../../../../riscv-nuclei-elf/lib/rv32imafc/ilp32f\libm.a(lib_a-w_log.o)
 .srodata.cst8  0x000000001ff6ca18       0x60 d:/software/yuyin/qiqiyinqiluntai/riscv-nuclei-elf-gcc-9.2.0.0/gcc_fix_raissrc/bin/../lib/gcc/riscv-nuclei-elf/9.2.0/../../../../riscv-nuclei-elf/lib/rv32imafc/ilp32f\libm.a(lib_a-e_acos.o)
                                         0x78 (size before relaxing)
 .srodata.cst8  0x000000001ff6ca78       0x50 d:/software/yuyin/qiqiyinqiluntai/riscv-nuclei-elf-gcc-9.2.0.0/gcc_fix_raissrc/bin/../lib/gcc/riscv-nuclei-elf/9.2.0/../../../../riscv-nuclei-elf/lib/rv32imafc/ilp32f\libm.a(lib_a-e_exp.o)
                                         0x70 (size before relaxing)
 .srodata.cst8  0x000000001ff6cac8       0x50 d:/software/yuyin/qiqiyinqiluntai/riscv-nuclei-elf-gcc-9.2.0.0/gcc_fix_raissrc/bin/../lib/gcc/riscv-nuclei-elf/9.2.0/../../../../riscv-nuclei-elf/lib/rv32imafc/ilp32f\libm.a(lib_a-e_log.o)
                                         0x78 (size before relaxing)
 .srodata.cst8  0x000000001ff6cb18        0x8 d:/software/yuyin/qiqiyinqiluntai/riscv-nuclei-elf-gcc-9.2.0.0/gcc_fix_raissrc/bin/../lib/gcc/riscv-nuclei-elf/9.2.0/../../../../riscv-nuclei-elf/lib/rv32imafc/ilp32f\libm.a(lib_a-s_nan.o)
 *(.srodata.cst4)
 .srodata.cst4  0x000000001ff6cb20       0xe0 C:\TMP\nn_denoise_rtc_sample.elf.ItDyV2.ltrans0.ltrans.o
 .srodata.cst4  0x000000001ff6cc00        0x8 C:\TMP\nn_denoise_rtc_sample.elf.ItDyV2.ltrans1.ltrans.o
                                         0x14 (size before relaxing)
 .srodata.cst4  0x000000001ff6cc08        0x8 d:/software/yuyin/qiqiyinqiluntai/riscv-nuclei-elf-gcc-9.2.0.0/gcc_fix_raissrc/bin/../lib/gcc/riscv-nuclei-elf/9.2.0/../../../../riscv-nuclei-elf/lib/rv32imafc/ilp32f\libm.a(lib_a-wf_pow.o)
 .srodata.cst4  0x000000001ff6cc08       0x6c d:/software/yuyin/qiqiyinqiluntai/riscv-nuclei-elf-gcc-9.2.0.0/gcc_fix_raissrc/bin/../lib/gcc/riscv-nuclei-elf/9.2.0/../../../../riscv-nuclei-elf/lib/rv32imafc/ilp32f\libm.a(lib_a-ef_pow.o)
                                         0x84 (size before relaxing)
 .srodata.cst4  0x000000001ff6cc74        0x4 d:/software/yuyin/qiqiyinqiluntai/riscv-nuclei-elf-gcc-9.2.0.0/gcc_fix_raissrc/bin/../lib/gcc/riscv-nuclei-elf/9.2.0/../../../../riscv-nuclei-elf/lib/rv32imafc/ilp32f\libm.a(lib_a-sf_nan.o)
 .srodata.cst4  0x000000001ff6cc78        0x8 d:/software/yuyin/qiqiyinqiluntai/riscv-nuclei-elf-gcc-9.2.0.0/gcc_fix_raissrc/bin/../lib/gcc/riscv-nuclei-elf/9.2.0/../../../../riscv-nuclei-elf/lib/rv32imafc/ilp32f\libm.a(lib_a-sf_scalbn.o)
                                         0x10 (size before relaxing)
 *(.srodata.cst2)
 *(.srodata .srodata.*)
 .srodata       0x000000001ff6cc80        0x8 d:/software/yuyin/qiqiyinqiluntai/riscv-nuclei-elf-gcc-9.2.0.0/gcc_fix_raissrc/bin/../lib/gcc/riscv-nuclei-elf/9.2.0/../../../../riscv-nuclei-elf/lib/rv32imafc/ilp32f\libm.a(lib_a-sf_rint.o)
                0x000000001ff6cc88                . = ALIGN (0x4)
                0x000000001ff6cc88                PROVIDE (_edata = .)
                [!provide]                        PROVIDE (edata = .)
                [!provide]                        PROVIDE (_fbss = .)
                0x000000001ff6cc88                PROVIDE (__bss_start = .)

.bss            0x000000001ff6cc88     0x1ec4
 *(.sbss*)
 .sbss.asrtop_asr_system_continue_semaphore
                0x000000001ff6cc88        0x4 C:\TMP\nn_denoise_rtc_sample.elf.ItDyV2.ltrans0.ltrans.o
                0x000000001ff6cc88                asrtop_asr_system_continue_semaphore
 .sbss.asrtop_asr_system_create_model_semaphore
                0x000000001ff6cc8c        0x4 C:\TMP\nn_denoise_rtc_sample.elf.ItDyV2.ltrans0.ltrans.o
                0x000000001ff6cc8c                asrtop_asr_system_create_model_semaphore
 .sbss.asrtop_asr_system_pause_semaphore
                0x000000001ff6cc90        0x4 C:\TMP\nn_denoise_rtc_sample.elf.ItDyV2.ltrans0.ltrans.o
                0x000000001ff6cc90                asrtop_asr_system_pause_semaphore
 .sbss.boot_sync_bnpu.lto_priv.0
                0x000000001ff6cc94        0x4 C:\TMP\nn_denoise_rtc_sample.elf.ItDyV2.ltrans0.ltrans.o
                0x000000001ff6cc94                boot_sync_bnpu.lto_priv.0
 .sbss.boot_sync_host.lto_priv.0
                0x000000001ff6cc98        0x4 C:\TMP\nn_denoise_rtc_sample.elf.ItDyV2.ltrans0.ltrans.o
                0x000000001ff6cc98                boot_sync_host.lto_priv.0
 .sbss.cinv_hotid_m.lto_priv.0
                0x000000001ff6cc9c        0x4 C:\TMP\nn_denoise_rtc_sample.elf.ItDyV2.ltrans0.ltrans.o
                0x000000001ff6cc9c                cinv_hotid_m.lto_priv.0
 .sbss.decoder_createmodel_done_flag
                0x000000001ff6cca0        0x1 C:\TMP\nn_denoise_rtc_sample.elf.ItDyV2.ltrans0.ltrans.o
 .sbss.decoder_manage_is_decodeing
                0x000000001ff6cca1        0x1 C:\TMP\nn_denoise_rtc_sample.elf.ItDyV2.ltrans0.ltrans.o
 .sbss.decoder_task_could_init
                0x000000001ff6cca2        0x1 C:\TMP\nn_denoise_rtc_sample.elf.ItDyV2.ltrans0.ltrans.o
 .sbss.decoder_task_vadfe_clear_done_flag
                0x000000001ff6cca3        0x1 C:\TMP\nn_denoise_rtc_sample.elf.ItDyV2.ltrans0.ltrans.o
 .sbss.flash_ctl_xSemaphore
                0x000000001ff6cca4        0x4 C:\TMP\nn_denoise_rtc_sample.elf.ItDyV2.ltrans0.ltrans.o
                0x000000001ff6cca4                flash_ctl_xSemaphore
 .sbss.flash_req_op_done_event_group.lto_priv.0
                0x000000001ff6cca8        0x4 C:\TMP\nn_denoise_rtc_sample.elf.ItDyV2.ltrans0.ltrans.o
                0x000000001ff6cca8                flash_req_op_done_event_group.lto_priv.0
 .sbss.g_feb_total_count.lto_priv.0
                0x000000001ff6ccac        0x2 C:\TMP\nn_denoise_rtc_sample.elf.ItDyV2.ltrans0.ltrans.o
                0x000000001ff6ccac                g_feb_total_count.lto_priv.0
 *fill*         0x000000001ff6ccae        0x2 
 .sbss.g_flash_base_addr.lto_priv.0
                0x000000001ff6ccb0        0x4 C:\TMP\nn_denoise_rtc_sample.elf.ItDyV2.ltrans0.ltrans.o
                0x000000001ff6ccb0                g_flash_base_addr.lto_priv.0
 .sbss.g_prun_count_max
                0x000000001ff6ccb4        0x4 C:\TMP\nn_denoise_rtc_sample.elf.ItDyV2.ltrans0.ltrans.o
 .sbss.ifft_data_queue
                0x000000001ff6ccb8        0x4 C:\TMP\nn_denoise_rtc_sample.elf.ItDyV2.ltrans0.ltrans.o
                0x000000001ff6ccb8                ifft_data_queue
 .sbss.is_burn_down
                0x000000001ff6ccbc        0x1 C:\TMP\nn_denoise_rtc_sample.elf.ItDyV2.ltrans0.ltrans.o
 .sbss.is_check_err
                0x000000001ff6ccbd        0x1 C:\TMP\nn_denoise_rtc_sample.elf.ItDyV2.ltrans0.ltrans.o
 .sbss.is_dnn_err
                0x000000001ff6ccbe        0x1 C:\TMP\nn_denoise_rtc_sample.elf.ItDyV2.ltrans0.ltrans.o
 .sbss.is_por_err
                0x000000001ff6ccbf        0x1 C:\TMP\nn_denoise_rtc_sample.elf.ItDyV2.ltrans0.ltrans.o
 .sbss.is_read_down
                0x000000001ff6ccc0        0x1 C:\TMP\nn_denoise_rtc_sample.elf.ItDyV2.ltrans0.ltrans.o
 .sbss.mailbox_is_busy
                0x000000001ff6ccc1        0x1 C:\TMP\nn_denoise_rtc_sample.elf.ItDyV2.ltrans0.ltrans.o
 *fill*         0x000000001ff6ccc2        0x2 
 .sbss.mailbox_semaphore.lto_priv.0
                0x000000001ff6ccc4        0x4 C:\TMP\nn_denoise_rtc_sample.elf.ItDyV2.ltrans0.ltrans.o
                0x000000001ff6ccc4                mailbox_semaphore.lto_priv.0
 .sbss.nuclear_com_callback_func.lto_priv.0
                0x000000001ff6ccc8        0x4 C:\TMP\nn_denoise_rtc_sample.elf.ItDyV2.ltrans0.ltrans.o
                0x000000001ff6ccc8                nuclear_com_callback_func.lto_priv.0
 .sbss.nuclear_com_semaphore
                0x000000001ff6cccc        0x4 C:\TMP\nn_denoise_rtc_sample.elf.ItDyV2.ltrans0.ltrans.o
                0x000000001ff6cccc                nuclear_com_semaphore
 .sbss.pxCurrentTCB
                0x000000001ff6ccd0        0x4 C:\TMP\nn_denoise_rtc_sample.elf.ItDyV2.ltrans0.ltrans.o
                0x000000001ff6ccd0                pxCurrentTCB
 .sbss.pxDelayedTaskList.lto_priv.0
                0x000000001ff6ccd4        0x4 C:\TMP\nn_denoise_rtc_sample.elf.ItDyV2.ltrans0.ltrans.o
                0x000000001ff6ccd4                pxDelayedTaskList.lto_priv.0
 .sbss.pxOverflowDelayedTaskList.lto_priv.0
                0x000000001ff6ccd8        0x4 C:\TMP\nn_denoise_rtc_sample.elf.ItDyV2.ltrans0.ltrans.o
                0x000000001ff6ccd8                pxOverflowDelayedTaskList.lto_priv.0
 .sbss.sg_req_change_model
                0x000000001ff6ccdc        0x1 C:\TMP\nn_denoise_rtc_sample.elf.ItDyV2.ltrans0.ltrans.o
 *fill*         0x000000001ff6ccdd        0x3 
 .sbss.sys_err_flag
                0x000000001ff6cce0        0x4 C:\TMP\nn_denoise_rtc_sample.elf.ItDyV2.ltrans0.ltrans.o
 .sbss.uxCurrentNumberOfTasks.lto_priv.0
                0x000000001ff6cce4        0x4 C:\TMP\nn_denoise_rtc_sample.elf.ItDyV2.ltrans0.ltrans.o
                0x000000001ff6cce4                uxCurrentNumberOfTasks.lto_priv.0
 .sbss.uxSchedulerSuspended.lto_priv.0
                0x000000001ff6cce8        0x4 C:\TMP\nn_denoise_rtc_sample.elf.ItDyV2.ltrans0.ltrans.o
                0x000000001ff6cce8                uxSchedulerSuspended.lto_priv.0
 .sbss.uxTaskNumber.lto_priv.0
                0x000000001ff6ccec        0x4 C:\TMP\nn_denoise_rtc_sample.elf.ItDyV2.ltrans0.ltrans.o
                0x000000001ff6ccec                uxTaskNumber.lto_priv.0
 .sbss.uxTopReadyPriority.lto_priv.0
                0x000000001ff6ccf0        0x4 C:\TMP\nn_denoise_rtc_sample.elf.ItDyV2.ltrans0.ltrans.o
                0x000000001ff6ccf0                uxTopReadyPriority.lto_priv.0
 .sbss.xNumOfOverflows.lto_priv.0
                0x000000001ff6ccf4        0x4 C:\TMP\nn_denoise_rtc_sample.elf.ItDyV2.ltrans0.ltrans.o
                0x000000001ff6ccf4                xNumOfOverflows.lto_priv.0
 .sbss.xSchedulerRunning.lto_priv.0
                0x000000001ff6ccf8        0x4 C:\TMP\nn_denoise_rtc_sample.elf.ItDyV2.ltrans0.ltrans.o
                0x000000001ff6ccf8                xSchedulerRunning.lto_priv.0
 .sbss.xTickCount.lto_priv.0
                0x000000001ff6ccfc        0x4 C:\TMP\nn_denoise_rtc_sample.elf.ItDyV2.ltrans0.ltrans.o
                0x000000001ff6ccfc                xTickCount.lto_priv.0
 .sbss.xTimerQueue.lto_priv.0
                0x000000001ff6cd00        0x4 C:\TMP\nn_denoise_rtc_sample.elf.ItDyV2.ltrans0.ltrans.o
                0x000000001ff6cd00                xTimerQueue.lto_priv.0
 .sbss.xYieldPending.lto_priv.0
                0x000000001ff6cd04        0x4 C:\TMP\nn_denoise_rtc_sample.elf.ItDyV2.ltrans0.ltrans.o
                0x000000001ff6cd04                xYieldPending.lto_priv.0
 .sbss.LDO_trim_value_crc
                0x000000001ff6cd08        0x1 C:\TMP\nn_denoise_rtc_sample.elf.ItDyV2.ltrans1.ltrans.o
 *fill*         0x000000001ff6cd09        0x3 
 .sbss.UART_CLK
                0x000000001ff6cd0c        0x4 C:\TMP\nn_denoise_rtc_sample.elf.ItDyV2.ltrans1.ltrans.o
 .sbss.ci_flash_data_info_init_flag
                0x000000001ff6cd10        0x1 C:\TMP\nn_denoise_rtc_sample.elf.ItDyV2.ltrans1.ltrans.o
 *fill*         0x000000001ff6cd11        0x3 
 .sbss.ci_speex_decode_hander
                0x000000001ff6cd14        0x4 C:\TMP\nn_denoise_rtc_sample.elf.ItDyV2.ltrans1.ltrans.o
 .sbss.ci_speex_encode_hander
                0x000000001ff6cd18        0x4 C:\TMP\nn_denoise_rtc_sample.elf.ItDyV2.ltrans1.ltrans.o
 .sbss.cinv_mutex
                0x000000001ff6cd1c        0x4 C:\TMP\nn_denoise_rtc_sample.elf.ItDyV2.ltrans1.ltrans.o
 .sbss.cnt.7384
                0x000000001ff6cd20        0x4 C:\TMP\nn_denoise_rtc_sample.elf.ItDyV2.ltrans1.ltrans.o
 .sbss.efuse_writer
                0x000000001ff6cd24        0x4 C:\TMP\nn_denoise_rtc_sample.elf.ItDyV2.ltrans1.ltrans.o
 .sbss.eq_msg_recv_queue
                0x000000001ff6cd28        0x4 C:\TMP\nn_denoise_rtc_sample.elf.ItDyV2.ltrans1.ltrans.o
 .sbss.eq_port  0x000000001ff6cd2c        0x1 C:\TMP\nn_denoise_rtc_sample.elf.ItDyV2.ltrans1.ltrans.o
 *fill*         0x000000001ff6cd2d        0x3 
 .sbss.g_audio_rx_index
                0x000000001ff6cd30        0x4 C:\TMP\nn_denoise_rtc_sample.elf.ItDyV2.ltrans1.ltrans.o
 .sbss.g_dma_channel_callback
                0x000000001ff6cd34        0x8 C:\TMP\nn_denoise_rtc_sample.elf.ItDyV2.ltrans1.ltrans.o
 .sbss.g_dma_translate_ok
                0x000000001ff6cd3c        0x8 C:\TMP\nn_denoise_rtc_sample.elf.ItDyV2.ltrans1.ltrans.o
 .sbss.g_drc_param
                0x000000001ff6cd44        0x4 C:\TMP\nn_denoise_rtc_sample.elf.ItDyV2.ltrans1.ltrans.o
 .sbss.g_eq_param
                0x000000001ff6cd48        0x4 C:\TMP\nn_denoise_rtc_sample.elf.ItDyV2.ltrans1.ltrans.o
 .sbss.g_pa_pin_valid_level
                0x000000001ff6cd4c        0x4 C:\TMP\nn_denoise_rtc_sample.elf.ItDyV2.ltrans1.ltrans.o
 .sbss.g_start_handle_ifft_data_flag
                0x000000001ff6cd50        0x1 C:\TMP\nn_denoise_rtc_sample.elf.ItDyV2.ltrans1.ltrans.o
 .sbss.iis_pad_for_clk_input_flag
                0x000000001ff6cd51        0x1 C:\TMP\nn_denoise_rtc_sample.elf.ItDyV2.ltrans1.ltrans.o
 .sbss.is_convert_left_right
                0x000000001ff6cd52        0x1 C:\TMP\nn_denoise_rtc_sample.elf.ItDyV2.ltrans1.ltrans.o
 *fill*         0x000000001ff6cd53        0x1 
 .sbss.max_cmd_string_table_size
                0x000000001ff6cd54        0x4 C:\TMP\nn_denoise_rtc_sample.elf.ItDyV2.ltrans1.ltrans.o
 .sbss.max_command_number
                0x000000001ff6cd58        0x2 C:\TMP\nn_denoise_rtc_sample.elf.ItDyV2.ltrans1.ltrans.o
 .sbss.max_special_word_number
                0x000000001ff6cd5a        0x2 C:\TMP\nn_denoise_rtc_sample.elf.ItDyV2.ltrans1.ltrans.o
 .sbss.network_msg_recv_queue
                0x000000001ff6cd5c        0x4 C:\TMP\nn_denoise_rtc_sample.elf.ItDyV2.ltrans1.ltrans.o
 .sbss.pxCurrentTimerList
                0x000000001ff6cd60        0x4 C:\TMP\nn_denoise_rtc_sample.elf.ItDyV2.ltrans1.ltrans.o
 .sbss.pxEnd    0x000000001ff6cd64        0x4 C:\TMP\nn_denoise_rtc_sample.elf.ItDyV2.ltrans1.ltrans.o
 .sbss.pxOverflowTimerList
                0x000000001ff6cd68        0x4 C:\TMP\nn_denoise_rtc_sample.elf.ItDyV2.ltrans1.ltrans.o
 .sbss.tmp_voice_addr
                0x000000001ff6cd6c        0x4 C:\TMP\nn_denoise_rtc_sample.elf.ItDyV2.ltrans1.ltrans.o
 .sbss.trans_id
                0x000000001ff6cd70        0x4 C:\TMP\nn_denoise_rtc_sample.elf.ItDyV2.ltrans1.ltrans.o
 .sbss.uart_dma_trans_done
                0x000000001ff6cd74        0x1 C:\TMP\nn_denoise_rtc_sample.elf.ItDyV2.ltrans1.ltrans.o
 *fill*         0x000000001ff6cd75        0x3 
 .sbss.uxDeletedTasksWaitingCleanUp
                0x000000001ff6cd78        0x4 C:\TMP\nn_denoise_rtc_sample.elf.ItDyV2.ltrans1.ltrans.o
 .sbss.uxPendedTicks
                0x000000001ff6cd7c        0x4 C:\TMP\nn_denoise_rtc_sample.elf.ItDyV2.ltrans1.ltrans.o
 .sbss.xBlockAllocatedBit
                0x000000001ff6cd80        0x4 C:\TMP\nn_denoise_rtc_sample.elf.ItDyV2.ltrans1.ltrans.o
 .sbss.xFreeBytesRemaining
                0x000000001ff6cd84        0x4 C:\TMP\nn_denoise_rtc_sample.elf.ItDyV2.ltrans1.ltrans.o
 .sbss.xIdleTaskHandle
                0x000000001ff6cd88        0x4 C:\TMP\nn_denoise_rtc_sample.elf.ItDyV2.ltrans1.ltrans.o
 .sbss.xLastTime.4367
                0x000000001ff6cd8c        0x4 C:\TMP\nn_denoise_rtc_sample.elf.ItDyV2.ltrans1.ltrans.o
 .sbss.xMinimumEverFreeBytesRemaining
                0x000000001ff6cd90        0x4 C:\TMP\nn_denoise_rtc_sample.elf.ItDyV2.ltrans1.ltrans.o
 .sbss.xNextTaskUnblockTime
                0x000000001ff6cd94        0x4 C:\TMP\nn_denoise_rtc_sample.elf.ItDyV2.ltrans1.ltrans.o
 .sbss.xSpeexPlayStreamBuffer
                0x000000001ff6cd98        0x4 C:\TMP\nn_denoise_rtc_sample.elf.ItDyV2.ltrans1.ltrans.o
 .sbss.xSpeexRecordStreamBuffer
                0x000000001ff6cd9c        0x4 C:\TMP\nn_denoise_rtc_sample.elf.ItDyV2.ltrans1.ltrans.o
 .sbss.xStart   0x000000001ff6cda0        0x8 C:\TMP\nn_denoise_rtc_sample.elf.ItDyV2.ltrans1.ltrans.o
 .sbss.xTimerTaskHandle
                0x000000001ff6cda8        0x4 C:\TMP\nn_denoise_rtc_sample.elf.ItDyV2.ltrans1.ltrans.o
 .sbss.heapBytesRemaining
                0x000000001ff6cdac        0x4 ../../../libs\libnewlib_port.a(sbrk.o)
 .sbss._global_atexit
                0x000000001ff6cdb0        0x4 d:/software/yuyin/qiqiyinqiluntai/riscv-nuclei-elf-gcc-9.2.0.0/gcc_fix_raissrc/bin/../lib/gcc/riscv-nuclei-elf/9.2.0/../../../../riscv-nuclei-elf/lib/rv32imafc/ilp32f\libg_nano.a(lib_a-__call_atexit.o)
                0x000000001ff6cdb0                _global_atexit
 .sbss.__malloc_free_list
                0x000000001ff6cdb4        0x4 d:/software/yuyin/qiqiyinqiluntai/riscv-nuclei-elf-gcc-9.2.0.0/gcc_fix_raissrc/bin/../lib/gcc/riscv-nuclei-elf/9.2.0/../../../../riscv-nuclei-elf/lib/rv32imafc/ilp32f\libg_nano.a(lib_a-nano-mallocr.o)
                0x000000001ff6cdb4                __malloc_free_list
 .sbss.__malloc_sbrk_start
                0x000000001ff6cdb8        0x4 d:/software/yuyin/qiqiyinqiluntai/riscv-nuclei-elf-gcc-9.2.0.0/gcc_fix_raissrc/bin/../lib/gcc/riscv-nuclei-elf/9.2.0/../../../../riscv-nuclei-elf/lib/rv32imafc/ilp32f\libg_nano.a(lib_a-nano-mallocr.o)
                0x000000001ff6cdb8                __malloc_sbrk_start
 *(.gnu.linkonce.sb.*)
 *(.bss .bss.*)
 .bss.cinv_mang_r.lto_priv.0
                0x000000001ff6cdbc        0xc C:\TMP\nn_denoise_rtc_sample.elf.ItDyV2.ltrans0.ltrans.o
                0x000000001ff6cdbc                cinv_mang_r.lto_priv.0
 .bss.cinv_rd_io_buf.lto_priv.0
                0x000000001ff6cdc8      0x100 C:\TMP\nn_denoise_rtc_sample.elf.ItDyV2.ltrans0.ltrans.o
                0x000000001ff6cdc8                cinv_rd_io_buf.lto_priv.0
 .bss.cinv_wr_io_buf.lto_priv.0
                0x000000001ff6cec8      0x100 C:\TMP\nn_denoise_rtc_sample.elf.ItDyV2.ltrans0.ltrans.o
                0x000000001ff6cec8                cinv_wr_io_buf.lto_priv.0
 .bss.cm.lto_priv.0
                0x000000001ff6cfc8      0x554 C:\TMP\nn_denoise_rtc_sample.elf.ItDyV2.ltrans0.ltrans.o
                0x000000001ff6cfc8                cm.lto_priv.0
 .bss.cmd_info_variable
                0x000000001ff6d51c       0x34 C:\TMP\nn_denoise_rtc_sample.elf.ItDyV2.ltrans0.ltrans.o
                0x000000001ff6d51c                cmd_info_variable
 .bss.eq_gain_str
                0x000000001ff6d550       0x28 C:\TMP\nn_denoise_rtc_sample.elf.ItDyV2.ltrans0.ltrans.o
 .bss.g_model_parameter_info
                0x000000001ff6d578       0x1c C:\TMP\nn_denoise_rtc_sample.elf.ItDyV2.ltrans0.ltrans.o
 .bss.init_eq_drc_val
                0x000000001ff6d594       0x44 C:\TMP\nn_denoise_rtc_sample.elf.ItDyV2.ltrans0.ltrans.o
                0x000000001ff6d594                init_eq_drc_val
 .bss.nuclear_com_serve_irq_cal
                0x000000001ff6d5d8       0x24 C:\TMP\nn_denoise_rtc_sample.elf.ItDyV2.ltrans0.ltrans.o
                0x000000001ff6d5d8                nuclear_com_serve_irq_cal
 .bss.pxReadyTasksLists.lto_priv.0
                0x000000001ff6d5fc       0x78 C:\TMP\nn_denoise_rtc_sample.elf.ItDyV2.ltrans0.ltrans.o
                0x000000001ff6d5fc                pxReadyTasksLists.lto_priv.0
 .bss.rcv_ifft_data_msg
                0x000000001ff6d674      0x2bc C:\TMP\nn_denoise_rtc_sample.elf.ItDyV2.ltrans0.ltrans.o
                0x000000001ff6d674                rcv_ifft_data_msg
 .bss.remote_call_module
                0x000000001ff6d930       0x5c C:\TMP\nn_denoise_rtc_sample.elf.ItDyV2.ltrans0.ltrans.o
                0x000000001ff6d930                remote_call_module
 .bss.send_ifft_data_msg
                0x000000001ff6d98c      0x2bc C:\TMP\nn_denoise_rtc_sample.elf.ItDyV2.ltrans0.ltrans.o
 .bss.speexOutDecFrame
                0x000000001ff6dc48      0x280 C:\TMP\nn_denoise_rtc_sample.elf.ItDyV2.ltrans0.ltrans.o
                0x000000001ff6dc48                speexOutDecFrame
 .bss.speex_dst_addr
                0x000000001ff6dec8       0x40 C:\TMP\nn_denoise_rtc_sample.elf.ItDyV2.ltrans0.ltrans.o
                0x000000001ff6dec8                speex_dst_addr
 .bss.speex_rx_temp
                0x000000001ff6df08      0x280 C:\TMP\nn_denoise_rtc_sample.elf.ItDyV2.ltrans0.ltrans.o
                0x000000001ff6df08                speex_rx_temp
 .bss.xDelayedTaskList1.5214
                0x000000001ff6e188       0x14 C:\TMP\nn_denoise_rtc_sample.elf.ItDyV2.ltrans0.ltrans.o
 .bss.xDelayedTaskList2.5215
                0x000000001ff6e19c       0x14 C:\TMP\nn_denoise_rtc_sample.elf.ItDyV2.ltrans0.ltrans.o
 .bss.xPendingReadyList.lto_priv.0
                0x000000001ff6e1b0       0x14 C:\TMP\nn_denoise_rtc_sample.elf.ItDyV2.ltrans0.ltrans.o
                0x000000001ff6e1b0                xPendingReadyList.lto_priv.0
 .bss.xSuspendedTaskList.lto_priv.0
                0x000000001ff6e1c4       0x14 C:\TMP\nn_denoise_rtc_sample.elf.ItDyV2.ltrans0.ltrans.o
                0x000000001ff6e1c4                xSuspendedTaskList.lto_priv.0
 .bss.xTasksWaitingTermination.lto_priv.0
                0x000000001ff6e1d8       0x14 C:\TMP\nn_denoise_rtc_sample.elf.ItDyV2.ltrans0.ltrans.o
                0x000000001ff6e1d8                xTasksWaitingTermination.lto_priv.0
 .bss.cias_speex_wb_mode
                0x000000001ff6e1ec       0x34 C:\TMP\nn_denoise_rtc_sample.elf.ItDyV2.ltrans1.ltrans.o
 .bss.cmd_file_header
                0x000000001ff6e220       0x19 C:\TMP\nn_denoise_rtc_sample.elf.ItDyV2.ltrans1.ltrans.o
 *fill*         0x000000001ff6e239        0x3 
 .bss.g_audio_rx_temp
                0x000000001ff6e23c       0x2b C:\TMP\nn_denoise_rtc_sample.elf.ItDyV2.ltrans1.ltrans.o
 *fill*         0x000000001ff6e267        0x1 
 .bss.g_gpio_callback_list_root
                0x000000001ff6e268       0x30 C:\TMP\nn_denoise_rtc_sample.elf.ItDyV2.ltrans1.ltrans.o
 .bss.iic0_status
                0x000000001ff6e298       0x28 C:\TMP\nn_denoise_rtc_sample.elf.ItDyV2.ltrans1.ltrans.o
 .bss.model_header
                0x000000001ff6e2c0       0x1c C:\TMP\nn_denoise_rtc_sample.elf.ItDyV2.ltrans1.ltrans.o
 .bss.partition_table
                0x000000001ff6e2dc      0x116 C:\TMP\nn_denoise_rtc_sample.elf.ItDyV2.ltrans1.ltrans.o
 *fill*         0x000000001ff6e3f2        0x2 
 .bss.printk_string
                0x000000001ff6e3f4      0x200 C:\TMP\nn_denoise_rtc_sample.elf.ItDyV2.ltrans1.ltrans.o
 .bss.recv_pcm_buf
                0x000000001ff6e5f4       0x2b C:\TMP\nn_denoise_rtc_sample.elf.ItDyV2.ltrans1.ltrans.o
 *fill*         0x000000001ff6e61f        0x1 
 .bss.sg_init_tmp_str
                0x000000001ff6e620       0x14 C:\TMP\nn_denoise_rtc_sample.elf.ItDyV2.ltrans1.ltrans.o
 .bss.speex_play_data
                0x000000001ff6e634      0x200 C:\TMP\nn_denoise_rtc_sample.elf.ItDyV2.ltrans1.ltrans.o
 .bss.speex_play_temp
                0x000000001ff6e834      0x200 C:\TMP\nn_denoise_rtc_sample.elf.ItDyV2.ltrans1.ltrans.o
 .bss.xActiveTimerList1.4413
                0x000000001ff6ea34       0x14 C:\TMP\nn_denoise_rtc_sample.elf.ItDyV2.ltrans1.ltrans.o
 .bss.xActiveTimerList2.4414
                0x000000001ff6ea48       0x14 C:\TMP\nn_denoise_rtc_sample.elf.ItDyV2.ltrans1.ltrans.o
 .bss.xQueueRegistry
                0x000000001ff6ea5c       0x50 C:\TMP\nn_denoise_rtc_sample.elf.ItDyV2.ltrans1.ltrans.o
 .bss.xdata     0x000000001ff6eaac       0x10 C:\TMP\nn_denoise_rtc_sample.elf.ItDyV2.ltrans1.ltrans.o
 .bss._global_atexit0
                0x000000001ff6eabc       0x8c d:/software/yuyin/qiqiyinqiluntai/riscv-nuclei-elf-gcc-9.2.0.0/gcc_fix_raissrc/bin/../lib/gcc/riscv-nuclei-elf/9.2.0/../../../../riscv-nuclei-elf/lib/rv32imafc/ilp32f\libg_nano.a(lib_a-__atexit.o)
 *(.gnu.linkonce.b.*)
 *(COMMON)
 COMMON         0x000000001ff6eb48        0x4 d:/software/yuyin/qiqiyinqiluntai/riscv-nuclei-elf-gcc-9.2.0.0/gcc_fix_raissrc/bin/../lib/gcc/riscv-nuclei-elf/9.2.0/../../../../riscv-nuclei-elf/lib/rv32imafc/ilp32f\libg_nano.a(lib_a-reent.o)
                0x000000001ff6eb48                errno
                0x000000001ff6eb4c                . = ALIGN (0x4)
                0x000000001ff6eb50                . = ALIGN (0x8)
                0x000000001ff6eb50                PROVIDE (__bss_end = .)

.no_init        0x000000001ff6eb4c        0x0
 *(.no_init)
                0x000000001ff6eb4c                . = ALIGN (0x4)
                0x000000001ff6eb50                . = ALIGN (0x8)
                [!provide]                        PROVIDE (_end = .)
                [!provide]                        PROVIDE (end = .)

.stack          0x000000001ff6eb4c      0xc00
                0x0000000000000c00                . = __stack_size
 *fill*         0x000000001ff6eb4c      0xc00 
                0x000000001ff6f74c                PROVIDE (_sp = .)

.sys_heap       0x000000001ff6f74c    0x37000
                0x000000001ff6f74c                PROVIDE (__FREERTOSHEAP_START = .)
                0x0000000000037000                . = SYS_HEAP_SIZE
 *fill*         0x000000001ff6f74c    0x37000 
                0x000000001ffa674c                PROVIDE (__FREERTOSHEAP_END = .)

.heap_start     0x000000001ffa674c        0x0
                0x000000001ffa674c                PROVIDE (heap_start = .)

.heap_end       0x000000001ffd8000        0x0 load address 0x000000001ffa674c
                0x000000001ffd8000                PROVIDE (heap_end = .)
                0x000000001ffd8000                PROVIDE (__befor_os_int_sp = .)
                0x000000001ff51000                START_ADDR = SRAM_START_ADDR
                0x0000000000000000                LOAD_TYPE = 0x0
                0x0000000000000000                ITCM_EN = 0x0
                0x0000000000000000                STCM_EN = 0x0
                0x0000000000000000                ICACHE_EN = 0x0
                0x00000000ffffffff                ICACHE_START_ADDR = 0xffffffff
                0x00000000ffffffff                ICACHE_END_ADDR = 0xffffffff
                0x00000000ffffffff                ICACHE_ALIAS_ADDR = 0xffffffff
                0x0000000000000000                SCACHE_EN = 0x0
                0x00000000ffffffff                SCACHE_START_ADDR = 0xffffffff
                0x00000000ffffffff                SCACHE_END_ADDR = 0xffffffff
                0x00000000ffffffff                SCACHE_ALIAS_ADDR = 0xffffffff
OUTPUT(build/nn_denoise_rtc_sample.elf elf32-littleriscv)

.debug_info     0x0000000000000000    0x8daec
 .debug_info    0x0000000000000000     0xb468 C:\TMP\nn_denoise_rtc_sample.elf.ItDyV2.ltrans0.ltrans.o
 .debug_info    0x000000000000b468     0xc329 C:\TMP\nn_denoise_rtc_sample.elf.ItDyV2.ltrans1.ltrans.o
 .debug_info    0x0000000000017791     0x134b C:\TMP\cc3X3S1m.debug.temp.o
                0x0000000000017791                ci130x_init.c.a11b3469
 .debug_info    0x0000000000018adc      0xa68 C:\TMP\ccK9AiDN.debug.temp.o
                0x0000000000018adc                ci130x_it.c.d361b7d0
 .debug_info    0x0000000000019544      0xa03 C:\TMP\ccFAoo5d.debug.temp.o
                0x0000000000019544                ci130x_system.c.fd7aa68c
 .debug_info    0x0000000000019f47     0x16f1 C:\TMP\ccSA9VTE.debug.temp.o
                0x0000000000019f47                platform_config.c.0d141092
 .debug_info    0x000000000001b638      0xff7 C:\TMP\cchNT9y5.debug.temp.o
                0x000000000001b638                ci130x_handlers.c.26b938dd
 .debug_info    0x000000000001c62f      0x443 C:\TMP\ccJQIalV.debug.temp.o
                0x000000000001c62f                debug_time_consuming.c.96ad17ad
 .debug_info    0x000000000001ca72      0xf14 C:\TMP\cczM7AUL.debug.temp.o
                0x000000000001ca72                event_groups.c.44c9b65b
 .debug_info    0x000000000001d986      0xb24 C:\TMP\cc4xew4f.debug.temp.o
                0x000000000001d986                list.c.3059c6a9
 .debug_info    0x000000000001e4aa     0x1eb3 C:\TMP\ccDNrH0J.debug.temp.o
                0x000000000001e4aa                queue.c.852fda40
 .debug_info    0x000000000002035d     0x1b1b C:\TMP\ccGs61ne.debug.temp.o
                0x000000000002035d                stream_buffer.c.7d3f34d1
 .debug_info    0x0000000000021e78     0x2697 C:\TMP\ccVNdUBI.debug.temp.o
                0x0000000000021e78                tasks.c.4d5866cf
 .debug_info    0x000000000002450f     0x1285 C:\TMP\ccmvJWWb.debug.temp.o
                0x000000000002450f                timers.c.5b8e9b9e
 .debug_info    0x0000000000025794     0x1463 C:\TMP\cc57r9lF.debug.temp.o
                0x0000000000025794                heap_4.c.9fd5cc48
 .debug_info    0x0000000000026bf7     0x144b C:\TMP\ccgBOmc9.debug.temp.o
                0x0000000000026bf7                ci_log.c.2b401590
 .debug_info    0x0000000000028042      0x946 C:\TMP\ccx74YOC.debug.temp.o
                0x0000000000028042                ota_aes.c.16db77c9
 .debug_info    0x0000000000028988      0xeb6 C:\TMP\ccQmIlX4.debug.temp.o
                0x0000000000028988                ota_partition_verify.c.88e1ce58
 .debug_info    0x000000000002983e      0xbb7 C:\TMP\ccAjjb1Z.debug.temp.o
                0x000000000002983e                UARTCommandConsole.c.3a18bc04
 .debug_info    0x000000000002a3f5      0xc8d C:\TMP\ccWTU55Y.debug.temp.o
                0x000000000002a3f5                Sample_CLI_commands.c.532a33c8
 .debug_info    0x000000000002b082     0x1e69 C:\TMP\ccjveFsv.debug.temp.o
                0x000000000002b082                ci_flash_data_info.c.ef562867
 .debug_info    0x000000000002ceeb      0xd56 C:\TMP\cca0sfg2.debug.temp.o
                0x000000000002ceeb                flash_control_inner_port.c.770add84
 .debug_info    0x000000000002dc41     0x179a C:\TMP\cc9ASeQy.debug.temp.o
                0x000000000002dc41                audio_play_api.c.67d8eee8
 .debug_info    0x000000000002f3db     0x218e C:\TMP\ccgq56w4.debug.temp.o
                0x000000000002f3db                audio_play_decoder.c.19c66228
 .debug_info    0x0000000000031569     0x215f C:\TMP\ccREJ8EA.debug.temp.o
                0x0000000000031569                audio_play_process.c.e5f3e6a6
 .debug_info    0x00000000000336c8     0x15f2 C:\TMP\cczImPGC.debug.temp.o
                0x00000000000336c8                audio_play_device.c.6af226e4
 .debug_info    0x0000000000034cba      0xb00 C:\TMP\cc0YrAe9.debug.temp.o
                0x0000000000034cba                flacdecoder.c.717ce340
 .debug_info    0x00000000000357ba      0xe93 C:\TMP\ccgsRn08.debug.temp.o
                0x00000000000357ba                status_share.c.af82eb86
 .debug_info    0x000000000003664d     0x1dcd C:\TMP\cc5pPHNH.debug.temp.o
                0x000000000003664d                ci_nvdata_manage.c.2c533890
 .debug_info    0x000000000003841a      0xb22 C:\TMP\ccaeaowg.debug.temp.o
                0x000000000003841a                ci_nvdata_port.c.37c20f0f
 .debug_info    0x0000000000038f3c     0x168a C:\TMP\ccLsaXFP.debug.temp.o
                0x0000000000038f3c                command_file_reader.c.55e20849
 .debug_info    0x000000000003a5c6     0x1b79 C:\TMP\ccm5ILBo.debug.temp.o
                0x000000000003a5c6                command_info.c.052bebba
 .debug_info    0x000000000003c13f     0x1226 C:\TMP\ccViTVNW.debug.temp.o
                0x000000000003c13f                prompt_player.c.dc08f156
 .debug_info    0x000000000003d365     0x1329 C:\TMP\ccIhQUQu.debug.temp.o
                0x000000000003d365                audio_in_manage_inner.c.4086c299
 .debug_info    0x000000000003e68e      0xe48 C:\TMP\ccVxDLk3.debug.temp.o
                0x000000000003e68e                ci_key.c.264f2cc9
 .debug_info    0x000000000003f4d6      0x9c1 C:\TMP\cckCR2SB.debug.temp.o
                0x000000000003f4d6                asr_malloc_port.c.b6eb120d
 .debug_info    0x000000000003fe97     0x2405 C:\TMP\ccZxXByf.debug.temp.o
                0x000000000003fe97                codec_manager.c.63f82bad
 .debug_info    0x000000000004229c      0xe91 C:\TMP\ccKBLA4M.debug.temp.o
                0x000000000004229c                codec_manage_inner_port.c.25901215
 .debug_info    0x000000000004312d     0x20c1 C:\TMP\cc5ivjMq.debug.temp.o
                0x000000000004312d                voice_module_uart_protocol.c.fddd7fc4
 .debug_info    0x00000000000451ee      0xc8b C:\TMP\ccGPWdQX.debug.temp.o
                0x00000000000451ee                color_light_control.c.5c7080c6
 .debug_info    0x0000000000045e79     0x14ae C:\TMP\ccMJwy61.debug.temp.o
                0x0000000000045e79                ci130x_audio_pre_rslt_out.c.1bb3147c
 .debug_info    0x0000000000047327      0xf68 C:\TMP\cc5MHpez.debug.temp.o
                0x0000000000047327                ci130x_core_eclic.c.5495010e
 .debug_info    0x000000000004828f      0xafe C:\TMP\ccq9fqja.debug.temp.o
                0x000000000004828f                ci130x_core_timer.c.adb87397
 .debug_info    0x0000000000048d8d     0x1870 C:\TMP\ccVgYQsL.debug.temp.o
                0x0000000000048d8d                ci130x_dma.c.6dbcbed3
 .debug_info    0x000000000004a5fd     0x1d6f C:\TMP\ccE7pPsm.debug.temp.o
                0x000000000004a5fd                ci130x_codec.c.7687d88a
 .debug_info    0x000000000004c36c     0x270c C:\TMP\ccPOvOTX.debug.temp.o
                0x000000000004c36c                ci130x_pdm.c.33e63996
 .debug_info    0x000000000004ea78      0xaed C:\TMP\cchQRsF9.debug.temp.o
                0x000000000004ea78                ci130x_iisdma.c.fac163c6
 .debug_info    0x000000000004f565      0xa8d C:\TMP\ccITeh4J.debug.temp.o
                0x000000000004f565                ci130x_core_misc.c.9627070e
 .debug_info    0x000000000004fff2     0x1a0d C:\TMP\ccjILvxk.debug.temp.o
                0x000000000004fff2                ci130x_iis.c.8afdd38f
 .debug_info    0x00000000000519ff      0x7af C:\TMP\ccoWJTrV.debug.temp.o
                0x00000000000519ff                ci130x_adc.c.b3d1f5ae
 .debug_info    0x00000000000521ae      0xf8e C:\TMP\ccxEOx8v.debug.temp.o
                0x00000000000521ae                ci130x_gpio.c.55239d8d
 .debug_info    0x000000000005313c     0x17fd C:\TMP\ccAlqo55.debug.temp.o
                0x000000000005313c                ci130x_iic.c.4013fdbe
 .debug_info    0x0000000000054939     0x13da C:\TMP\ccbFHsdQ.debug.temp.o
                0x0000000000054939                ci130x_uart.c.e2305cce
 .debug_info    0x0000000000055d13      0xe35 C:\TMP\ccaKKGiq.debug.temp.o
                0x0000000000055d13                ci130x_lowpower.c.aab1964c
 .debug_info    0x0000000000056b48      0xafa C:\TMP\cclDels0.debug.temp.o
                0x0000000000056b48                ci130x_iwdg.c.754fc983
 .debug_info    0x0000000000057642     0x1656 C:\TMP\ccyGtLHI.debug.temp.o
                0x0000000000057642                board.c.b4e28906
 .debug_info    0x0000000000058c98      0xbd6 C:\TMP\ccxToJbi.debug.temp.o
                0x0000000000058c98                board_default.c.c9c7cb58
 .debug_info    0x000000000005986e       0xcd C:\TMP\ccIUK7JR.debug.temp.o
                0x000000000005986e                dichotomy_find.c.4be177d3
 .debug_info    0x000000000005993b      0x208 C:\TMP\ccHlJXav.debug.temp.o
                0x000000000005993b                crc.c.7a683981
 .debug_info    0x0000000000059b43     0x121c C:\TMP\ccW4eus8.debug.temp.o
                0x0000000000059b43                main.c.8380232e
 .debug_info    0x000000000005ad5f     0x1c86 C:\TMP\ccFdcabM.debug.temp.o
                0x000000000005ad5f                iis0_sample.c.62bf1147
 .debug_info    0x000000000005c9e5     0x25da C:\TMP\ccDHSTB3.debug.temp.o
                0x000000000005c9e5                system_msg_deal.c.d9497f31
 .debug_info    0x000000000005efbf     0x1227 C:\TMP\ccu4CsrG.debug.temp.o
                0x000000000005efbf                user_msg_deal.c.fd6c25c1
 .debug_info    0x00000000000601e6     0x107e C:\TMP\ccBfrQ7i.debug.temp.o
                0x00000000000601e6                ci_ssp_config.c.018f918b
 .debug_info    0x0000000000061264     0x1bfb C:\TMP\cc8H55eW.debug.temp.o
                0x0000000000061264                ci_uart_audio_data_handle.c.a1c48469
 .debug_info    0x0000000000062e5f     0x11c7 C:\TMP\ccR0tjvz.debug.temp.o
                0x0000000000062e5f                ci_uart_eq_param.c.053407a8
 .debug_info    0x0000000000064026      0xea9 C:\TMP\ccQ7VlCc.debug.temp.o
                0x0000000000064026                bits.c.d61e4e80
 .debug_info    0x0000000000064ecf     0x12c9 C:\TMP\ccB1yjVO.debug.temp.o
                0x0000000000064ecf                cb_search.c.403b7a49
 .debug_info    0x0000000000066198       0x53 C:\TMP\ccAEVO4q.debug.temp.o
                0x0000000000066198                exc_5_64_table.c.6498f342
 .debug_info    0x00000000000661eb       0x53 C:\TMP\cc17VkF3.debug.temp.o
                0x00000000000661eb                exc_5_256_table.c.7c16051c
 .debug_info    0x000000000006623e       0x53 C:\TMP\ccEVTpkG.debug.temp.o
                0x000000000006623e                exc_8_128_table.c.8b4cd41a
 .debug_info    0x0000000000066291       0x52 C:\TMP\ccRB2MMi.debug.temp.o
                0x0000000000066291                exc_10_16_table.c.8b7dc865
 .debug_info    0x00000000000662e3       0x53 C:\TMP\cc2U52zU.debug.temp.o
                0x00000000000662e3                exc_10_32_table.c.0b0d6940
 .debug_info    0x0000000000066336       0x53 C:\TMP\ccNaYIAw.debug.temp.o
                0x0000000000066336                exc_20_32_table.c.fc187acb
 .debug_info    0x0000000000066389     0x146c C:\TMP\ccEjLGq8.debug.temp.o
                0x0000000000066389                filters.c.96c2fcdd
 .debug_info    0x00000000000677f5       0x53 C:\TMP\cc5y6UmK.debug.temp.o
                0x00000000000677f5                gain_table.c.017c7e8d
 .debug_info    0x0000000000067848       0x52 C:\TMP\ccEeB2fq.debug.temp.o
                0x0000000000067848                gain_table_lbr.c.90f48bfd
 .debug_info    0x000000000006789a       0x53 C:\TMP\ccp64PZ5.debug.temp.o
                0x000000000006789a                hexc_10_32_table.c.3bead03a
 .debug_info    0x00000000000678ed       0x53 C:\TMP\ccuCQm6L.debug.temp.o
                0x00000000000678ed                hexc_table.c.663c1fa0
 .debug_info    0x0000000000067940       0x5f C:\TMP\ccLW2jhs.debug.temp.o
                0x0000000000067940                high_lsp_tables.c.851bd69b
 .debug_info    0x000000000006799f     0x10f5 C:\TMP\cceXHOi8.debug.temp.o
                0x000000000006799f                kiss_fft.c.2da24abb
 .debug_info    0x0000000000068a94      0x175 C:\TMP\ccYlrtAs.debug.temp.o
                0x0000000000068a94                lpc.c.8bb1ec93
 .debug_info    0x0000000000068c09      0xd00 C:\TMP\ccZTwJ57.debug.temp.o
                0x0000000000068c09                lsp.c.e3063bc9
 .debug_info    0x0000000000069909       0x9a C:\TMP\cc8DYgFN.debug.temp.o
                0x0000000000069909                lsp_tables_nb.c.7605cdbf
 .debug_info    0x00000000000699a3     0x153a C:\TMP\ccpsyW0s.debug.temp.o
                0x00000000000699a3                ltp.c.1e0bc84c
 .debug_info    0x000000000006aedd     0x1324 C:\TMP\ccItO6C7.debug.temp.o
                0x000000000006aedd                modes.c.edb36332
 .debug_info    0x000000000006c201     0x129c C:\TMP\cc9cXGjM.debug.temp.o
                0x000000000006c201                modes_wb.c.3435f7a0
 .debug_info    0x000000000006d49d     0x21c7 C:\TMP\ccMCyOQq.debug.temp.o
                0x000000000006d49d                nb_celp.c.18a8eb00
 .debug_info    0x000000000006f664      0xe20 C:\TMP\ccH7DwK5.debug.temp.o
                0x000000000006f664                quant_lsp.c.d4cd3405
 .debug_info    0x0000000000070484     0x1d2e C:\TMP\ccQZXNIK.debug.temp.o
                0x0000000000070484                sb_celp.c.8c52e003
 .debug_info    0x00000000000721b2     0x1363 C:\TMP\ccipevy3.debug.temp.o
                0x00000000000721b2                speex.c.02a745af
 .debug_info    0x0000000000073515      0xec7 C:\TMP\ccBWaVpH.debug.temp.o
                0x0000000000073515                speex_callbacks.c.5483de13
 .debug_info    0x00000000000743dc      0x294 C:\TMP\ccNYpr8p.debug.temp.o
                0x00000000000743dc                vq.c.53c25454
 .debug_info    0x0000000000074670       0xbe C:\TMP\ccg3Ule8.debug.temp.o
                0x0000000000074670                window.c.f51247f9
 .debug_info    0x000000000007472e     0x10a0 C:\TMP\cc1GnIGQ.debug.temp.o
                0x000000000007472e                ci110x_speex.c.bc774158
 .debug_info    0x00000000000757ce     0x151b C:\TMP\ccYwPKZy.debug.temp.o
                0x00000000000757ce                asr_top_outside_port.c.2e466c91
 .debug_info    0x0000000000076ce9     0x110d C:\TMP\ccVwGhzg.debug.temp.o
                0x0000000000076ce9                decoder_inner_port_rpmsg.c.b310a49b
 .debug_info    0x0000000000077df6     0x34a2 C:\TMP\cc2hHedY.debug.temp.o
                0x0000000000077df6                decoder_manage.c.760e2675
 .debug_info    0x000000000007b298      0x1b4 C:\TMP\cclJaJHF.debug.temp.o
                0x000000000007b298                dynmic_confidence.c.9bb26918
 .debug_info    0x000000000007b44c      0xfbb C:\TMP\cccGDnDn.debug.temp.o
                0x000000000007b44c                dnn_outside_port.c.c37167a0
 .debug_info    0x000000000007c407     0x12c0 C:\TMP\cc53Vhl5.debug.temp.o
                0x000000000007c407                flash_manage_outside_port.c.b48baff3
 .debug_info    0x000000000007d6c7      0xeb2 C:\TMP\ccWwjpjM.debug.temp.o
                0x000000000007d6c7                vad_fe_outside_port.c.04b8d3a2
 .debug_info    0x000000000007e579     0x14a2 C:\TMP\cc9XAYDR.debug.temp.o
                0x000000000007e579                cmp_twice_confidence.c.9e6ca063
 .debug_info    0x000000000007fa1b      0xf6d C:\TMP\ccZxa8Uf.debug.temp.o
                0x000000000007fa1b                port.c.4d161114
 .debug_info    0x0000000000080988      0x9af C:\TMP\ccYQipmW.debug.temp.o
                0x0000000000080988                ci130x_dsu.c.25c59ad6
 .debug_info    0x0000000000081337      0xdcc C:\TMP\cc1DxWzC.debug.temp.o
                0x0000000000081337                ci130x_mailbox.c.3231987c
 .debug_info    0x0000000000082103     0x136f C:\TMP\ccIzkMij.debug.temp.o
                0x0000000000082103                ci130x_scu.c.3fdfa867
 .debug_info    0x0000000000083472      0x395 C:\TMP\ccFjbrSZ.debug.temp.o
                0x0000000000083472                ci130x_efuse.c.7f29a68f
 .debug_info    0x0000000000083807     0x1355 C:\TMP\ccybxXoK.debug.temp.o
                0x0000000000083807                ci130x_dpmu.c.785f8ec3
 .debug_info    0x0000000000084b5c     0x1126 C:\TMP\ccvxZJHu.debug.temp.o
                0x0000000000084b5c                ci130x_nuclear_com.c.93f914cc
 .debug_info    0x0000000000085c82     0x179e C:\TMP\ccWiTFrf.debug.temp.o
                0x0000000000085c82                remote_api_for_host.c.45421faa
 .debug_info    0x0000000000087420       0x26 build/objs/ci130x_startup.o
 .debug_info    0x0000000000087446     0x1f7f ../../../libs\libnewlib_port.a(sbrk.o)
 .debug_info    0x00000000000893c5       0x26 ../../../libs\libfreertos_port.a(portasm.o)
 .debug_info    0x00000000000893eb       0x26 d:/software/yuyin/qiqiyinqiluntai/riscv-nuclei-elf-gcc-9.2.0.0/gcc_fix_raissrc/bin/../lib/gcc/riscv-nuclei-elf/9.2.0/rv32imafc/ilp32f\libgcc.a(save-restore.o)
 .debug_info    0x0000000000089411      0x5e4 d:/software/yuyin/qiqiyinqiluntai/riscv-nuclei-elf-gcc-9.2.0.0/gcc_fix_raissrc/bin/../lib/gcc/riscv-nuclei-elf/9.2.0/rv32imafc/ilp32f\libgcc.a(adddf3.o)
 .debug_info    0x00000000000899f5      0x76f d:/software/yuyin/qiqiyinqiluntai/riscv-nuclei-elf-gcc-9.2.0.0/gcc_fix_raissrc/bin/../lib/gcc/riscv-nuclei-elf/9.2.0/rv32imafc/ilp32f\libgcc.a(divdf3.o)
 .debug_info    0x000000000008a164      0x2a1 d:/software/yuyin/qiqiyinqiluntai/riscv-nuclei-elf-gcc-9.2.0.0/gcc_fix_raissrc/bin/../lib/gcc/riscv-nuclei-elf/9.2.0/rv32imafc/ilp32f\libgcc.a(eqdf2.o)
 .debug_info    0x000000000008a405      0x28c d:/software/yuyin/qiqiyinqiluntai/riscv-nuclei-elf-gcc-9.2.0.0/gcc_fix_raissrc/bin/../lib/gcc/riscv-nuclei-elf/9.2.0/rv32imafc/ilp32f\libgcc.a(gedf2.o)
 .debug_info    0x000000000008a691      0x28c d:/software/yuyin/qiqiyinqiluntai/riscv-nuclei-elf-gcc-9.2.0.0/gcc_fix_raissrc/bin/../lib/gcc/riscv-nuclei-elf/9.2.0/rv32imafc/ilp32f\libgcc.a(ledf2.o)
 .debug_info    0x000000000008a91d      0x79b d:/software/yuyin/qiqiyinqiluntai/riscv-nuclei-elf-gcc-9.2.0.0/gcc_fix_raissrc/bin/../lib/gcc/riscv-nuclei-elf/9.2.0/rv32imafc/ilp32f\libgcc.a(muldf3.o)
 .debug_info    0x000000000008b0b8      0x5e4 d:/software/yuyin/qiqiyinqiluntai/riscv-nuclei-elf-gcc-9.2.0.0/gcc_fix_raissrc/bin/../lib/gcc/riscv-nuclei-elf/9.2.0/rv32imafc/ilp32f\libgcc.a(subdf3.o)
 .debug_info    0x000000000008b69c      0x294 d:/software/yuyin/qiqiyinqiluntai/riscv-nuclei-elf-gcc-9.2.0.0/gcc_fix_raissrc/bin/../lib/gcc/riscv-nuclei-elf/9.2.0/rv32imafc/ilp32f\libgcc.a(unorddf2.o)
 .debug_info    0x000000000008b930      0x21d d:/software/yuyin/qiqiyinqiluntai/riscv-nuclei-elf-gcc-9.2.0.0/gcc_fix_raissrc/bin/../lib/gcc/riscv-nuclei-elf/9.2.0/rv32imafc/ilp32f\libgcc.a(fixdfsi.o)
 .debug_info    0x000000000008bb4d      0x2bc d:/software/yuyin/qiqiyinqiluntai/riscv-nuclei-elf-gcc-9.2.0.0/gcc_fix_raissrc/bin/../lib/gcc/riscv-nuclei-elf/9.2.0/rv32imafc/ilp32f\libgcc.a(floatsidf.o)
 .debug_info    0x000000000008be09      0x2af d:/software/yuyin/qiqiyinqiluntai/riscv-nuclei-elf-gcc-9.2.0.0/gcc_fix_raissrc/bin/../lib/gcc/riscv-nuclei-elf/9.2.0/rv32imafc/ilp32f\libgcc.a(extendsfdf2.o)
 .debug_info    0x000000000008c0b8      0x2f3 d:/software/yuyin/qiqiyinqiluntai/riscv-nuclei-elf-gcc-9.2.0.0/gcc_fix_raissrc/bin/../lib/gcc/riscv-nuclei-elf/9.2.0/rv32imafc/ilp32f\libgcc.a(truncdfsf2.o)
 .debug_info    0x000000000008c3ab      0xbd7 d:/software/yuyin/qiqiyinqiluntai/riscv-nuclei-elf-gcc-9.2.0.0/gcc_fix_raissrc/bin/../lib/gcc/riscv-nuclei-elf/9.2.0/rv32imafc/ilp32f\libgcc.a(_clzsi2.o)
 .debug_info    0x000000000008cf82      0xb6a d:/software/yuyin/qiqiyinqiluntai/riscv-nuclei-elf-gcc-9.2.0.0/gcc_fix_raissrc/bin/../lib/gcc/riscv-nuclei-elf/9.2.0/rv32imafc/ilp32f\libgcc.a(_clz.o)

.debug_abbrev   0x0000000000000000    0x1198d
 .debug_abbrev  0x0000000000000000      0x35e C:\TMP\nn_denoise_rtc_sample.elf.ItDyV2.ltrans0.ltrans.o
 .debug_abbrev  0x000000000000035e      0x29e C:\TMP\nn_denoise_rtc_sample.elf.ItDyV2.ltrans1.ltrans.o
 .debug_abbrev  0x00000000000005fc      0x2b7 C:\TMP\cc3X3S1m.debug.temp.o
 .debug_abbrev  0x00000000000008b3      0x1e9 C:\TMP\ccK9AiDN.debug.temp.o
 .debug_abbrev  0x0000000000000a9c      0x1ec C:\TMP\ccFAoo5d.debug.temp.o
 .debug_abbrev  0x0000000000000c88      0x331 C:\TMP\ccSA9VTE.debug.temp.o
 .debug_abbrev  0x0000000000000fb9      0x266 C:\TMP\cchNT9y5.debug.temp.o
 .debug_abbrev  0x000000000000121f      0x125 C:\TMP\ccJQIalV.debug.temp.o
 .debug_abbrev  0x0000000000001344      0x25c C:\TMP\cczM7AUL.debug.temp.o
 .debug_abbrev  0x00000000000015a0      0x20f C:\TMP\cc4xew4f.debug.temp.o
 .debug_abbrev  0x00000000000017af      0x2ab C:\TMP\ccDNrH0J.debug.temp.o
 .debug_abbrev  0x0000000000001a5a      0x2b5 C:\TMP\ccGs61ne.debug.temp.o
 .debug_abbrev  0x0000000000001d0f      0x2e2 C:\TMP\ccVNdUBI.debug.temp.o
 .debug_abbrev  0x0000000000001ff1      0x25c C:\TMP\ccmvJWWb.debug.temp.o
 .debug_abbrev  0x000000000000224d      0x2d6 C:\TMP\cc57r9lF.debug.temp.o
 .debug_abbrev  0x0000000000002523      0x2ba C:\TMP\ccgBOmc9.debug.temp.o
 .debug_abbrev  0x00000000000027dd      0x1d5 C:\TMP\ccx74YOC.debug.temp.o
 .debug_abbrev  0x00000000000029b2      0x26d C:\TMP\ccQmIlX4.debug.temp.o
 .debug_abbrev  0x0000000000002c1f      0x27e C:\TMP\ccAjjb1Z.debug.temp.o
 .debug_abbrev  0x0000000000002e9d      0x265 C:\TMP\ccWTU55Y.debug.temp.o
 .debug_abbrev  0x0000000000003102      0x353 C:\TMP\ccjveFsv.debug.temp.o
 .debug_abbrev  0x0000000000003455      0x26a C:\TMP\cca0sfg2.debug.temp.o
 .debug_abbrev  0x00000000000036bf      0x30f C:\TMP\cc9ASeQy.debug.temp.o
 .debug_abbrev  0x00000000000039ce      0x2fa C:\TMP\ccgq56w4.debug.temp.o
 .debug_abbrev  0x0000000000003cc8      0x377 C:\TMP\ccREJ8EA.debug.temp.o
 .debug_abbrev  0x000000000000403f      0x2db C:\TMP\cczImPGC.debug.temp.o
 .debug_abbrev  0x000000000000431a      0x1d6 C:\TMP\cc0YrAe9.debug.temp.o
 .debug_abbrev  0x00000000000044f0      0x274 C:\TMP\ccgsRn08.debug.temp.o
 .debug_abbrev  0x0000000000004764      0x352 C:\TMP\cc5pPHNH.debug.temp.o
 .debug_abbrev  0x0000000000004ab6      0x242 C:\TMP\ccaeaowg.debug.temp.o
 .debug_abbrev  0x0000000000004cf8      0x2ce C:\TMP\ccLsaXFP.debug.temp.o
 .debug_abbrev  0x0000000000004fc6      0x310 C:\TMP\ccm5ILBo.debug.temp.o
 .debug_abbrev  0x00000000000052d6      0x347 C:\TMP\ccViTVNW.debug.temp.o
 .debug_abbrev  0x000000000000561d      0x308 C:\TMP\ccIhQUQu.debug.temp.o
 .debug_abbrev  0x0000000000005925      0x28f C:\TMP\ccVxDLk3.debug.temp.o
 .debug_abbrev  0x0000000000005bb4      0x22d C:\TMP\cckCR2SB.debug.temp.o
 .debug_abbrev  0x0000000000005de1      0x39c C:\TMP\ccZxXByf.debug.temp.o
 .debug_abbrev  0x000000000000617d      0x294 C:\TMP\ccKBLA4M.debug.temp.o
 .debug_abbrev  0x0000000000006411      0x388 C:\TMP\cc5ivjMq.debug.temp.o
 .debug_abbrev  0x0000000000006799      0x294 C:\TMP\ccGPWdQX.debug.temp.o
 .debug_abbrev  0x0000000000006a2d      0x2d7 C:\TMP\ccMJwy61.debug.temp.o
 .debug_abbrev  0x0000000000006d04      0x2be C:\TMP\cc5MHpez.debug.temp.o
 .debug_abbrev  0x0000000000006fc2      0x250 C:\TMP\ccq9fqja.debug.temp.o
 .debug_abbrev  0x0000000000007212      0x304 C:\TMP\ccVgYQsL.debug.temp.o
 .debug_abbrev  0x0000000000007516      0x342 C:\TMP\ccE7pPsm.debug.temp.o
 .debug_abbrev  0x0000000000007858      0x34b C:\TMP\ccPOvOTX.debug.temp.o
 .debug_abbrev  0x0000000000007ba3      0x171 C:\TMP\cchQRsF9.debug.temp.o
 .debug_abbrev  0x0000000000007d14      0x203 C:\TMP\ccITeh4J.debug.temp.o
 .debug_abbrev  0x0000000000007f17      0x2e1 C:\TMP\ccjILvxk.debug.temp.o
 .debug_abbrev  0x00000000000081f8      0x191 C:\TMP\ccoWJTrV.debug.temp.o
 .debug_abbrev  0x0000000000008389      0x2d2 C:\TMP\ccxEOx8v.debug.temp.o
 .debug_abbrev  0x000000000000865b      0x301 C:\TMP\ccAlqo55.debug.temp.o
 .debug_abbrev  0x000000000000895c      0x2d0 C:\TMP\ccbFHsdQ.debug.temp.o
 .debug_abbrev  0x0000000000008c2c      0x32f C:\TMP\ccaKKGiq.debug.temp.o
 .debug_abbrev  0x0000000000008f5b      0x20c C:\TMP\cclDels0.debug.temp.o
 .debug_abbrev  0x0000000000009167      0x2de C:\TMP\ccyGtLHI.debug.temp.o
 .debug_abbrev  0x0000000000009445      0x236 C:\TMP\ccxToJbi.debug.temp.o
 .debug_abbrev  0x000000000000967b       0x82 C:\TMP\ccIUK7JR.debug.temp.o
 .debug_abbrev  0x00000000000096fd       0xc2 C:\TMP\ccHlJXav.debug.temp.o
 .debug_abbrev  0x00000000000097bf      0x2c5 C:\TMP\ccW4eus8.debug.temp.o
 .debug_abbrev  0x0000000000009a84      0x2dd C:\TMP\ccFdcabM.debug.temp.o
 .debug_abbrev  0x0000000000009d61      0x35c C:\TMP\ccDHSTB3.debug.temp.o
 .debug_abbrev  0x000000000000a0bd      0x310 C:\TMP\ccu4CsrG.debug.temp.o
 .debug_abbrev  0x000000000000a3cd      0x268 C:\TMP\ccBfrQ7i.debug.temp.o
 .debug_abbrev  0x000000000000a635      0x327 C:\TMP\cc8H55eW.debug.temp.o
 .debug_abbrev  0x000000000000a95c      0x2e6 C:\TMP\ccR0tjvz.debug.temp.o
 .debug_abbrev  0x000000000000ac42      0x2de C:\TMP\ccQ7VlCc.debug.temp.o
 .debug_abbrev  0x000000000000af20      0x291 C:\TMP\ccB1yjVO.debug.temp.o
 .debug_abbrev  0x000000000000b1b1       0x45 C:\TMP\ccAEVO4q.debug.temp.o
 .debug_abbrev  0x000000000000b1f6       0x45 C:\TMP\cc17VkF3.debug.temp.o
 .debug_abbrev  0x000000000000b23b       0x45 C:\TMP\ccEVTpkG.debug.temp.o
 .debug_abbrev  0x000000000000b280       0x45 C:\TMP\ccRB2MMi.debug.temp.o
 .debug_abbrev  0x000000000000b2c5       0x45 C:\TMP\cc2U52zU.debug.temp.o
 .debug_abbrev  0x000000000000b30a       0x45 C:\TMP\ccNaYIAw.debug.temp.o
 .debug_abbrev  0x000000000000b34f      0x2b9 C:\TMP\ccEjLGq8.debug.temp.o
 .debug_abbrev  0x000000000000b608       0x45 C:\TMP\cc5y6UmK.debug.temp.o
 .debug_abbrev  0x000000000000b64d       0x45 C:\TMP\ccEeB2fq.debug.temp.o
 .debug_abbrev  0x000000000000b692       0x45 C:\TMP\ccp64PZ5.debug.temp.o
 .debug_abbrev  0x000000000000b6d7       0x45 C:\TMP\ccuCQm6L.debug.temp.o
 .debug_abbrev  0x000000000000b71c       0x45 C:\TMP\ccLW2jhs.debug.temp.o
 .debug_abbrev  0x000000000000b761      0x2b7 C:\TMP\cceXHOi8.debug.temp.o
 .debug_abbrev  0x000000000000ba18       0x9f C:\TMP\ccYlrtAs.debug.temp.o
 .debug_abbrev  0x000000000000bab7      0x28e C:\TMP\ccZTwJ57.debug.temp.o
 .debug_abbrev  0x000000000000bd45       0x56 C:\TMP\cc8DYgFN.debug.temp.o
 .debug_abbrev  0x000000000000bd9b      0x2e6 C:\TMP\ccpsyW0s.debug.temp.o
 .debug_abbrev  0x000000000000c081      0x24f C:\TMP\ccItO6C7.debug.temp.o
 .debug_abbrev  0x000000000000c2d0      0x28d C:\TMP\cc9cXGjM.debug.temp.o
 .debug_abbrev  0x000000000000c55d      0x37f C:\TMP\ccMCyOQq.debug.temp.o
 .debug_abbrev  0x000000000000c8dc      0x29d C:\TMP\ccH7DwK5.debug.temp.o
 .debug_abbrev  0x000000000000cb79      0x340 C:\TMP\ccQZXNIK.debug.temp.o
 .debug_abbrev  0x000000000000ceb9      0x26a C:\TMP\ccipevy3.debug.temp.o
 .debug_abbrev  0x000000000000d123      0x22e C:\TMP\ccBWaVpH.debug.temp.o
 .debug_abbrev  0x000000000000d351       0xc1 C:\TMP\ccNYpr8p.debug.temp.o
 .debug_abbrev  0x000000000000d412       0x5f C:\TMP\ccg3Ule8.debug.temp.o
 .debug_abbrev  0x000000000000d471      0x280 C:\TMP\cc1GnIGQ.debug.temp.o
 .debug_abbrev  0x000000000000d6f1      0x2b1 C:\TMP\ccYwPKZy.debug.temp.o
 .debug_abbrev  0x000000000000d9a2      0x32e C:\TMP\ccVwGhzg.debug.temp.o
 .debug_abbrev  0x000000000000dcd0      0x425 C:\TMP\cc2hHedY.debug.temp.o
 .debug_abbrev  0x000000000000e0f5       0xbe C:\TMP\cclJaJHF.debug.temp.o
 .debug_abbrev  0x000000000000e1b3      0x298 C:\TMP\cccGDnDn.debug.temp.o
 .debug_abbrev  0x000000000000e44b      0x2fd C:\TMP\cc53Vhl5.debug.temp.o
 .debug_abbrev  0x000000000000e748      0x258 C:\TMP\ccWwjpjM.debug.temp.o
 .debug_abbrev  0x000000000000e9a0      0x2ad C:\TMP\cc9XAYDR.debug.temp.o
 .debug_abbrev  0x000000000000ec4d      0x2d1 C:\TMP\ccZxa8Uf.debug.temp.o
 .debug_abbrev  0x000000000000ef1e      0x12c C:\TMP\ccYQipmW.debug.temp.o
 .debug_abbrev  0x000000000000f04a      0x2c6 C:\TMP\cc1DxWzC.debug.temp.o
 .debug_abbrev  0x000000000000f310      0x236 C:\TMP\ccIzkMij.debug.temp.o
 .debug_abbrev  0x000000000000f546       0xf9 C:\TMP\ccFjbrSZ.debug.temp.o
 .debug_abbrev  0x000000000000f63f      0x27f C:\TMP\ccybxXoK.debug.temp.o
 .debug_abbrev  0x000000000000f8be      0x308 C:\TMP\ccvxZJHu.debug.temp.o
 .debug_abbrev  0x000000000000fbc6      0x351 C:\TMP\ccWiTFrf.debug.temp.o
 .debug_abbrev  0x000000000000ff17       0x14 build/objs/ci130x_startup.o
 .debug_abbrev  0x000000000000ff2b      0x3f8 ../../../libs\libnewlib_port.a(sbrk.o)
 .debug_abbrev  0x0000000000010323       0x14 ../../../libs\libfreertos_port.a(portasm.o)
 .debug_abbrev  0x0000000000010337       0x14 d:/software/yuyin/qiqiyinqiluntai/riscv-nuclei-elf-gcc-9.2.0.0/gcc_fix_raissrc/bin/../lib/gcc/riscv-nuclei-elf/9.2.0/rv32imafc/ilp32f\libgcc.a(save-restore.o)
 .debug_abbrev  0x000000000001034b      0x189 d:/software/yuyin/qiqiyinqiluntai/riscv-nuclei-elf-gcc-9.2.0.0/gcc_fix_raissrc/bin/../lib/gcc/riscv-nuclei-elf/9.2.0/rv32imafc/ilp32f\libgcc.a(adddf3.o)
 .debug_abbrev  0x00000000000104d4      0x176 d:/software/yuyin/qiqiyinqiluntai/riscv-nuclei-elf-gcc-9.2.0.0/gcc_fix_raissrc/bin/../lib/gcc/riscv-nuclei-elf/9.2.0/rv32imafc/ilp32f\libgcc.a(divdf3.o)
 .debug_abbrev  0x000000000001064a      0x193 d:/software/yuyin/qiqiyinqiluntai/riscv-nuclei-elf-gcc-9.2.0.0/gcc_fix_raissrc/bin/../lib/gcc/riscv-nuclei-elf/9.2.0/rv32imafc/ilp32f\libgcc.a(eqdf2.o)
 .debug_abbrev  0x00000000000107dd      0x193 d:/software/yuyin/qiqiyinqiluntai/riscv-nuclei-elf-gcc-9.2.0.0/gcc_fix_raissrc/bin/../lib/gcc/riscv-nuclei-elf/9.2.0/rv32imafc/ilp32f\libgcc.a(gedf2.o)
 .debug_abbrev  0x0000000000010970      0x193 d:/software/yuyin/qiqiyinqiluntai/riscv-nuclei-elf-gcc-9.2.0.0/gcc_fix_raissrc/bin/../lib/gcc/riscv-nuclei-elf/9.2.0/rv32imafc/ilp32f\libgcc.a(ledf2.o)
 .debug_abbrev  0x0000000000010b03      0x186 d:/software/yuyin/qiqiyinqiluntai/riscv-nuclei-elf-gcc-9.2.0.0/gcc_fix_raissrc/bin/../lib/gcc/riscv-nuclei-elf/9.2.0/rv32imafc/ilp32f\libgcc.a(muldf3.o)
 .debug_abbrev  0x0000000000010c89      0x189 d:/software/yuyin/qiqiyinqiluntai/riscv-nuclei-elf-gcc-9.2.0.0/gcc_fix_raissrc/bin/../lib/gcc/riscv-nuclei-elf/9.2.0/rv32imafc/ilp32f\libgcc.a(subdf3.o)
 .debug_abbrev  0x0000000000010e12      0x184 d:/software/yuyin/qiqiyinqiluntai/riscv-nuclei-elf-gcc-9.2.0.0/gcc_fix_raissrc/bin/../lib/gcc/riscv-nuclei-elf/9.2.0/rv32imafc/ilp32f\libgcc.a(unorddf2.o)
 .debug_abbrev  0x0000000000010f96      0x170 d:/software/yuyin/qiqiyinqiluntai/riscv-nuclei-elf-gcc-9.2.0.0/gcc_fix_raissrc/bin/../lib/gcc/riscv-nuclei-elf/9.2.0/rv32imafc/ilp32f\libgcc.a(fixdfsi.o)
 .debug_abbrev  0x0000000000011106      0x178 d:/software/yuyin/qiqiyinqiluntai/riscv-nuclei-elf-gcc-9.2.0.0/gcc_fix_raissrc/bin/../lib/gcc/riscv-nuclei-elf/9.2.0/rv32imafc/ilp32f\libgcc.a(floatsidf.o)
 .debug_abbrev  0x000000000001127e      0x16c d:/software/yuyin/qiqiyinqiluntai/riscv-nuclei-elf-gcc-9.2.0.0/gcc_fix_raissrc/bin/../lib/gcc/riscv-nuclei-elf/9.2.0/rv32imafc/ilp32f\libgcc.a(extendsfdf2.o)
 .debug_abbrev  0x00000000000113ea      0x179 d:/software/yuyin/qiqiyinqiluntai/riscv-nuclei-elf-gcc-9.2.0.0/gcc_fix_raissrc/bin/../lib/gcc/riscv-nuclei-elf/9.2.0/rv32imafc/ilp32f\libgcc.a(truncdfsf2.o)
 .debug_abbrev  0x0000000000011563      0x242 d:/software/yuyin/qiqiyinqiluntai/riscv-nuclei-elf-gcc-9.2.0.0/gcc_fix_raissrc/bin/../lib/gcc/riscv-nuclei-elf/9.2.0/rv32imafc/ilp32f\libgcc.a(_clzsi2.o)
 .debug_abbrev  0x00000000000117a5      0x1e8 d:/software/yuyin/qiqiyinqiluntai/riscv-nuclei-elf-gcc-9.2.0.0/gcc_fix_raissrc/bin/../lib/gcc/riscv-nuclei-elf/9.2.0/rv32imafc/ilp32f\libgcc.a(_clz.o)

.debug_loc      0x0000000000000000    0x22255
 .debug_loc     0x0000000000000000    0x11150 C:\TMP\nn_denoise_rtc_sample.elf.ItDyV2.ltrans0.ltrans.o
 .debug_loc     0x0000000000011150     0x997b C:\TMP\nn_denoise_rtc_sample.elf.ItDyV2.ltrans1.ltrans.o
 .debug_loc     0x000000000001aacb      0xa71 ../../../libs\libnewlib_port.a(sbrk.o)
 .debug_loc     0x000000000001b53c     0x1a85 d:/software/yuyin/qiqiyinqiluntai/riscv-nuclei-elf-gcc-9.2.0.0/gcc_fix_raissrc/bin/../lib/gcc/riscv-nuclei-elf/9.2.0/rv32imafc/ilp32f\libgcc.a(adddf3.o)
 .debug_loc     0x000000000001cfc1     0x14a9 d:/software/yuyin/qiqiyinqiluntai/riscv-nuclei-elf-gcc-9.2.0.0/gcc_fix_raissrc/bin/../lib/gcc/riscv-nuclei-elf/9.2.0/rv32imafc/ilp32f\libgcc.a(divdf3.o)
 .debug_loc     0x000000000001e46a      0x19a d:/software/yuyin/qiqiyinqiluntai/riscv-nuclei-elf-gcc-9.2.0.0/gcc_fix_raissrc/bin/../lib/gcc/riscv-nuclei-elf/9.2.0/rv32imafc/ilp32f\libgcc.a(eqdf2.o)
 .debug_loc     0x000000000001e604      0x155 d:/software/yuyin/qiqiyinqiluntai/riscv-nuclei-elf-gcc-9.2.0.0/gcc_fix_raissrc/bin/../lib/gcc/riscv-nuclei-elf/9.2.0/rv32imafc/ilp32f\libgcc.a(gedf2.o)
 .debug_loc     0x000000000001e759      0x155 d:/software/yuyin/qiqiyinqiluntai/riscv-nuclei-elf-gcc-9.2.0.0/gcc_fix_raissrc/bin/../lib/gcc/riscv-nuclei-elf/9.2.0/rv32imafc/ilp32f\libgcc.a(ledf2.o)
 .debug_loc     0x000000000001e8ae     0x10d8 d:/software/yuyin/qiqiyinqiluntai/riscv-nuclei-elf-gcc-9.2.0.0/gcc_fix_raissrc/bin/../lib/gcc/riscv-nuclei-elf/9.2.0/rv32imafc/ilp32f\libgcc.a(muldf3.o)
 .debug_loc     0x000000000001f986     0x1b31 d:/software/yuyin/qiqiyinqiluntai/riscv-nuclei-elf-gcc-9.2.0.0/gcc_fix_raissrc/bin/../lib/gcc/riscv-nuclei-elf/9.2.0/rv32imafc/ilp32f\libgcc.a(subdf3.o)
 .debug_loc     0x00000000000214b7       0xc9 d:/software/yuyin/qiqiyinqiluntai/riscv-nuclei-elf-gcc-9.2.0.0/gcc_fix_raissrc/bin/../lib/gcc/riscv-nuclei-elf/9.2.0/rv32imafc/ilp32f\libgcc.a(unorddf2.o)
 .debug_loc     0x0000000000021580      0x2a8 d:/software/yuyin/qiqiyinqiluntai/riscv-nuclei-elf-gcc-9.2.0.0/gcc_fix_raissrc/bin/../lib/gcc/riscv-nuclei-elf/9.2.0/rv32imafc/ilp32f\libgcc.a(fixdfsi.o)
 .debug_loc     0x0000000000021828      0x14c d:/software/yuyin/qiqiyinqiluntai/riscv-nuclei-elf-gcc-9.2.0.0/gcc_fix_raissrc/bin/../lib/gcc/riscv-nuclei-elf/9.2.0/rv32imafc/ilp32f\libgcc.a(floatsidf.o)
 .debug_loc     0x0000000000021974      0x264 d:/software/yuyin/qiqiyinqiluntai/riscv-nuclei-elf-gcc-9.2.0.0/gcc_fix_raissrc/bin/../lib/gcc/riscv-nuclei-elf/9.2.0/rv32imafc/ilp32f\libgcc.a(extendsfdf2.o)
 .debug_loc     0x0000000000021bd8      0x612 d:/software/yuyin/qiqiyinqiluntai/riscv-nuclei-elf-gcc-9.2.0.0/gcc_fix_raissrc/bin/../lib/gcc/riscv-nuclei-elf/9.2.0/rv32imafc/ilp32f\libgcc.a(truncdfsf2.o)
 .debug_loc     0x00000000000221ea       0x6b d:/software/yuyin/qiqiyinqiluntai/riscv-nuclei-elf-gcc-9.2.0.0/gcc_fix_raissrc/bin/../lib/gcc/riscv-nuclei-elf/9.2.0/rv32imafc/ilp32f\libgcc.a(_clzsi2.o)

.debug_aranges  0x0000000000000000      0xc18
 .debug_aranges
                0x0000000000000000      0x4f8 C:\TMP\nn_denoise_rtc_sample.elf.ItDyV2.ltrans0.ltrans.o
 .debug_aranges
                0x00000000000004f8      0x398 C:\TMP\nn_denoise_rtc_sample.elf.ItDyV2.ltrans1.ltrans.o
 .debug_aranges
                0x0000000000000890       0x20 build/objs/ci130x_startup.o
 .debug_aranges
                0x00000000000008b0      0x170 ../../../libs\libnewlib_port.a(sbrk.o)
 .debug_aranges
                0x0000000000000a20       0x20 ../../../libs\libfreertos_port.a(portasm.o)
 .debug_aranges
                0x0000000000000a40       0x20 d:/software/yuyin/qiqiyinqiluntai/riscv-nuclei-elf-gcc-9.2.0.0/gcc_fix_raissrc/bin/../lib/gcc/riscv-nuclei-elf/9.2.0/rv32imafc/ilp32f\libgcc.a(save-restore.o)
 .debug_aranges
                0x0000000000000a60       0x20 d:/software/yuyin/qiqiyinqiluntai/riscv-nuclei-elf-gcc-9.2.0.0/gcc_fix_raissrc/bin/../lib/gcc/riscv-nuclei-elf/9.2.0/rv32imafc/ilp32f\libgcc.a(adddf3.o)
 .debug_aranges
                0x0000000000000a80       0x20 d:/software/yuyin/qiqiyinqiluntai/riscv-nuclei-elf-gcc-9.2.0.0/gcc_fix_raissrc/bin/../lib/gcc/riscv-nuclei-elf/9.2.0/rv32imafc/ilp32f\libgcc.a(divdf3.o)
 .debug_aranges
                0x0000000000000aa0       0x20 d:/software/yuyin/qiqiyinqiluntai/riscv-nuclei-elf-gcc-9.2.0.0/gcc_fix_raissrc/bin/../lib/gcc/riscv-nuclei-elf/9.2.0/rv32imafc/ilp32f\libgcc.a(eqdf2.o)
 .debug_aranges
                0x0000000000000ac0       0x20 d:/software/yuyin/qiqiyinqiluntai/riscv-nuclei-elf-gcc-9.2.0.0/gcc_fix_raissrc/bin/../lib/gcc/riscv-nuclei-elf/9.2.0/rv32imafc/ilp32f\libgcc.a(gedf2.o)
 .debug_aranges
                0x0000000000000ae0       0x20 d:/software/yuyin/qiqiyinqiluntai/riscv-nuclei-elf-gcc-9.2.0.0/gcc_fix_raissrc/bin/../lib/gcc/riscv-nuclei-elf/9.2.0/rv32imafc/ilp32f\libgcc.a(ledf2.o)
 .debug_aranges
                0x0000000000000b00       0x20 d:/software/yuyin/qiqiyinqiluntai/riscv-nuclei-elf-gcc-9.2.0.0/gcc_fix_raissrc/bin/../lib/gcc/riscv-nuclei-elf/9.2.0/rv32imafc/ilp32f\libgcc.a(muldf3.o)
 .debug_aranges
                0x0000000000000b20       0x20 d:/software/yuyin/qiqiyinqiluntai/riscv-nuclei-elf-gcc-9.2.0.0/gcc_fix_raissrc/bin/../lib/gcc/riscv-nuclei-elf/9.2.0/rv32imafc/ilp32f\libgcc.a(subdf3.o)
 .debug_aranges
                0x0000000000000b40       0x20 d:/software/yuyin/qiqiyinqiluntai/riscv-nuclei-elf-gcc-9.2.0.0/gcc_fix_raissrc/bin/../lib/gcc/riscv-nuclei-elf/9.2.0/rv32imafc/ilp32f\libgcc.a(unorddf2.o)
 .debug_aranges
                0x0000000000000b60       0x20 d:/software/yuyin/qiqiyinqiluntai/riscv-nuclei-elf-gcc-9.2.0.0/gcc_fix_raissrc/bin/../lib/gcc/riscv-nuclei-elf/9.2.0/rv32imafc/ilp32f\libgcc.a(fixdfsi.o)
 .debug_aranges
                0x0000000000000b80       0x20 d:/software/yuyin/qiqiyinqiluntai/riscv-nuclei-elf-gcc-9.2.0.0/gcc_fix_raissrc/bin/../lib/gcc/riscv-nuclei-elf/9.2.0/rv32imafc/ilp32f\libgcc.a(floatsidf.o)
 .debug_aranges
                0x0000000000000ba0       0x20 d:/software/yuyin/qiqiyinqiluntai/riscv-nuclei-elf-gcc-9.2.0.0/gcc_fix_raissrc/bin/../lib/gcc/riscv-nuclei-elf/9.2.0/rv32imafc/ilp32f\libgcc.a(extendsfdf2.o)
 .debug_aranges
                0x0000000000000bc0       0x20 d:/software/yuyin/qiqiyinqiluntai/riscv-nuclei-elf-gcc-9.2.0.0/gcc_fix_raissrc/bin/../lib/gcc/riscv-nuclei-elf/9.2.0/rv32imafc/ilp32f\libgcc.a(truncdfsf2.o)
 .debug_aranges
                0x0000000000000be0       0x20 d:/software/yuyin/qiqiyinqiluntai/riscv-nuclei-elf-gcc-9.2.0.0/gcc_fix_raissrc/bin/../lib/gcc/riscv-nuclei-elf/9.2.0/rv32imafc/ilp32f\libgcc.a(_clzsi2.o)
 .debug_aranges
                0x0000000000000c00       0x18 d:/software/yuyin/qiqiyinqiluntai/riscv-nuclei-elf-gcc-9.2.0.0/gcc_fix_raissrc/bin/../lib/gcc/riscv-nuclei-elf/9.2.0/rv32imafc/ilp32f\libgcc.a(_clz.o)

.debug_ranges   0x0000000000000000     0x6290
 .debug_ranges  0x0000000000000000     0x2668 C:\TMP\nn_denoise_rtc_sample.elf.ItDyV2.ltrans0.ltrans.o
 .debug_ranges  0x0000000000002668     0x2cd8 C:\TMP\nn_denoise_rtc_sample.elf.ItDyV2.ltrans1.ltrans.o
 .debug_ranges  0x0000000000005340      0x160 ../../../libs\libnewlib_port.a(sbrk.o)
 .debug_ranges  0x00000000000054a0      0x3b8 d:/software/yuyin/qiqiyinqiluntai/riscv-nuclei-elf-gcc-9.2.0.0/gcc_fix_raissrc/bin/../lib/gcc/riscv-nuclei-elf/9.2.0/rv32imafc/ilp32f\libgcc.a(adddf3.o)
 .debug_ranges  0x0000000000005858      0x1b8 d:/software/yuyin/qiqiyinqiluntai/riscv-nuclei-elf-gcc-9.2.0.0/gcc_fix_raissrc/bin/../lib/gcc/riscv-nuclei-elf/9.2.0/rv32imafc/ilp32f\libgcc.a(divdf3.o)
 .debug_ranges  0x0000000000005a10       0x60 d:/software/yuyin/qiqiyinqiluntai/riscv-nuclei-elf-gcc-9.2.0.0/gcc_fix_raissrc/bin/../lib/gcc/riscv-nuclei-elf/9.2.0/rv32imafc/ilp32f\libgcc.a(eqdf2.o)
 .debug_ranges  0x0000000000005a70       0x38 d:/software/yuyin/qiqiyinqiluntai/riscv-nuclei-elf-gcc-9.2.0.0/gcc_fix_raissrc/bin/../lib/gcc/riscv-nuclei-elf/9.2.0/rv32imafc/ilp32f\libgcc.a(gedf2.o)
 .debug_ranges  0x0000000000005aa8       0x38 d:/software/yuyin/qiqiyinqiluntai/riscv-nuclei-elf-gcc-9.2.0.0/gcc_fix_raissrc/bin/../lib/gcc/riscv-nuclei-elf/9.2.0/rv32imafc/ilp32f\libgcc.a(ledf2.o)
 .debug_ranges  0x0000000000005ae0      0x258 d:/software/yuyin/qiqiyinqiluntai/riscv-nuclei-elf-gcc-9.2.0.0/gcc_fix_raissrc/bin/../lib/gcc/riscv-nuclei-elf/9.2.0/rv32imafc/ilp32f\libgcc.a(muldf3.o)
 .debug_ranges  0x0000000000005d38      0x3a8 d:/software/yuyin/qiqiyinqiluntai/riscv-nuclei-elf-gcc-9.2.0.0/gcc_fix_raissrc/bin/../lib/gcc/riscv-nuclei-elf/9.2.0/rv32imafc/ilp32f\libgcc.a(subdf3.o)
 .debug_ranges  0x00000000000060e0       0x38 d:/software/yuyin/qiqiyinqiluntai/riscv-nuclei-elf-gcc-9.2.0.0/gcc_fix_raissrc/bin/../lib/gcc/riscv-nuclei-elf/9.2.0/rv32imafc/ilp32f\libgcc.a(unorddf2.o)
 .debug_ranges  0x0000000000006118       0x58 d:/software/yuyin/qiqiyinqiluntai/riscv-nuclei-elf-gcc-9.2.0.0/gcc_fix_raissrc/bin/../lib/gcc/riscv-nuclei-elf/9.2.0/rv32imafc/ilp32f\libgcc.a(fixdfsi.o)
 .debug_ranges  0x0000000000006170       0x68 d:/software/yuyin/qiqiyinqiluntai/riscv-nuclei-elf-gcc-9.2.0.0/gcc_fix_raissrc/bin/../lib/gcc/riscv-nuclei-elf/9.2.0/rv32imafc/ilp32f\libgcc.a(floatsidf.o)
 .debug_ranges  0x00000000000061d8       0x20 d:/software/yuyin/qiqiyinqiluntai/riscv-nuclei-elf-gcc-9.2.0.0/gcc_fix_raissrc/bin/../lib/gcc/riscv-nuclei-elf/9.2.0/rv32imafc/ilp32f\libgcc.a(extendsfdf2.o)
 .debug_ranges  0x00000000000061f8       0x78 d:/software/yuyin/qiqiyinqiluntai/riscv-nuclei-elf-gcc-9.2.0.0/gcc_fix_raissrc/bin/../lib/gcc/riscv-nuclei-elf/9.2.0/rv32imafc/ilp32f\libgcc.a(truncdfsf2.o)
 .debug_ranges  0x0000000000006270       0x20 d:/software/yuyin/qiqiyinqiluntai/riscv-nuclei-elf-gcc-9.2.0.0/gcc_fix_raissrc/bin/../lib/gcc/riscv-nuclei-elf/9.2.0/rv32imafc/ilp32f\libgcc.a(_clzsi2.o)

.debug_line     0x0000000000000000    0x41804
 .debug_line    0x0000000000000000    0x16c33 C:\TMP\nn_denoise_rtc_sample.elf.ItDyV2.ltrans0.ltrans.o
 .debug_line    0x0000000000016c33    0x10dda C:\TMP\nn_denoise_rtc_sample.elf.ItDyV2.ltrans1.ltrans.o
 .debug_line    0x0000000000027a0d      0x2c9 C:\TMP\cc3X3S1m.debug.temp.o
 .debug_line    0x0000000000027cd6      0x1ca C:\TMP\ccK9AiDN.debug.temp.o
 .debug_line    0x0000000000027ea0      0x26a C:\TMP\ccFAoo5d.debug.temp.o
 .debug_line    0x000000000002810a      0x335 C:\TMP\ccSA9VTE.debug.temp.o
 .debug_line    0x000000000002843f      0x263 C:\TMP\cchNT9y5.debug.temp.o
 .debug_line    0x00000000000286a2      0x1c0 C:\TMP\ccJQIalV.debug.temp.o
 .debug_line    0x0000000000028862      0x304 C:\TMP\cczM7AUL.debug.temp.o
 .debug_line    0x0000000000028b66      0x2ea C:\TMP\cc4xew4f.debug.temp.o
 .debug_line    0x0000000000028e50      0x32a C:\TMP\ccDNrH0J.debug.temp.o
 .debug_line    0x000000000002917a      0x330 C:\TMP\ccGs61ne.debug.temp.o
 .debug_line    0x00000000000294aa      0x32d C:\TMP\ccVNdUBI.debug.temp.o
 .debug_line    0x00000000000297d7      0x30d C:\TMP\ccmvJWWb.debug.temp.o
 .debug_line    0x0000000000029ae4      0x2ba C:\TMP\cc57r9lF.debug.temp.o
 .debug_line    0x0000000000029d9e      0x2db C:\TMP\ccgBOmc9.debug.temp.o
 .debug_line    0x000000000002a079      0x257 C:\TMP\ccx74YOC.debug.temp.o
 .debug_line    0x000000000002a2d0      0x2d3 C:\TMP\ccQmIlX4.debug.temp.o
 .debug_line    0x000000000002a5a3      0x2c3 C:\TMP\ccAjjb1Z.debug.temp.o
 .debug_line    0x000000000002a866      0x302 C:\TMP\ccWTU55Y.debug.temp.o
 .debug_line    0x000000000002ab68      0x39c C:\TMP\ccjveFsv.debug.temp.o
 .debug_line    0x000000000002af04      0x24b C:\TMP\cca0sfg2.debug.temp.o
 .debug_line    0x000000000002b14f      0x2e9 C:\TMP\cc9ASeQy.debug.temp.o
 .debug_line    0x000000000002b438      0x3bc C:\TMP\ccgq56w4.debug.temp.o
 .debug_line    0x000000000002b7f4      0x448 C:\TMP\ccREJ8EA.debug.temp.o
 .debug_line    0x000000000002bc3c      0x3dc C:\TMP\cczImPGC.debug.temp.o
 .debug_line    0x000000000002c018      0x17c C:\TMP\cc0YrAe9.debug.temp.o
 .debug_line    0x000000000002c194      0x23e C:\TMP\ccgsRn08.debug.temp.o
 .debug_line    0x000000000002c3d2      0x2dc C:\TMP\cc5pPHNH.debug.temp.o
 .debug_line    0x000000000002c6ae      0x2a0 C:\TMP\ccaeaowg.debug.temp.o
 .debug_line    0x000000000002c94e      0x2b9 C:\TMP\ccLsaXFP.debug.temp.o
 .debug_line    0x000000000002cc07      0x35d C:\TMP\ccm5ILBo.debug.temp.o
 .debug_line    0x000000000002cf64      0x40a C:\TMP\ccViTVNW.debug.temp.o
 .debug_line    0x000000000002d36e      0x3bd C:\TMP\ccIhQUQu.debug.temp.o
 .debug_line    0x000000000002d72b      0x334 C:\TMP\ccVxDLk3.debug.temp.o
 .debug_line    0x000000000002da5f      0x1f2 C:\TMP\cckCR2SB.debug.temp.o
 .debug_line    0x000000000002dc51      0x3e3 C:\TMP\ccZxXByf.debug.temp.o
 .debug_line    0x000000000002e034      0x2dc C:\TMP\ccKBLA4M.debug.temp.o
 .debug_line    0x000000000002e310      0x483 C:\TMP\cc5ivjMq.debug.temp.o
 .debug_line    0x000000000002e793      0x2de C:\TMP\ccGPWdQX.debug.temp.o
 .debug_line    0x000000000002ea71      0x4b0 C:\TMP\ccMJwy61.debug.temp.o
 .debug_line    0x000000000002ef21      0x27c C:\TMP\cc5MHpez.debug.temp.o
 .debug_line    0x000000000002f19d      0x27c C:\TMP\ccq9fqja.debug.temp.o
 .debug_line    0x000000000002f419      0x24f C:\TMP\ccVgYQsL.debug.temp.o
 .debug_line    0x000000000002f668      0x336 C:\TMP\ccE7pPsm.debug.temp.o
 .debug_line    0x000000000002f99e      0x2fd C:\TMP\ccPOvOTX.debug.temp.o
 .debug_line    0x000000000002fc9b      0x1b2 C:\TMP\cchQRsF9.debug.temp.o
 .debug_line    0x000000000002fe4d      0x27b C:\TMP\ccITeh4J.debug.temp.o
 .debug_line    0x00000000000300c8      0x2b4 C:\TMP\ccjILvxk.debug.temp.o
 .debug_line    0x000000000003037c      0x1ac C:\TMP\ccoWJTrV.debug.temp.o
 .debug_line    0x0000000000030528      0x2a2 C:\TMP\ccxEOx8v.debug.temp.o
 .debug_line    0x00000000000307ca      0x2c3 C:\TMP\ccAlqo55.debug.temp.o
 .debug_line    0x0000000000030a8d      0x202 C:\TMP\ccbFHsdQ.debug.temp.o
 .debug_line    0x0000000000030c8f      0x27e C:\TMP\ccaKKGiq.debug.temp.o
 .debug_line    0x0000000000030f0d      0x19d C:\TMP\cclDels0.debug.temp.o
 .debug_line    0x00000000000310aa      0x3cc C:\TMP\ccyGtLHI.debug.temp.o
 .debug_line    0x0000000000031476      0x2af C:\TMP\ccxToJbi.debug.temp.o
 .debug_line    0x0000000000031725       0x55 C:\TMP\ccIUK7JR.debug.temp.o
 .debug_line    0x000000000003177a      0x133 C:\TMP\ccHlJXav.debug.temp.o
 .debug_line    0x00000000000318ad      0x469 C:\TMP\ccW4eus8.debug.temp.o
 .debug_line    0x0000000000031d16      0x44c C:\TMP\ccFdcabM.debug.temp.o
 .debug_line    0x0000000000032162      0x57b C:\TMP\ccDHSTB3.debug.temp.o
 .debug_line    0x00000000000326dd      0x42d C:\TMP\ccu4CsrG.debug.temp.o
 .debug_line    0x0000000000032b0a      0x3c4 C:\TMP\ccBfrQ7i.debug.temp.o
 .debug_line    0x0000000000032ece      0x4de C:\TMP\cc8H55eW.debug.temp.o
 .debug_line    0x00000000000333ac      0x3f1 C:\TMP\ccR0tjvz.debug.temp.o
 .debug_line    0x000000000003379d      0x1de C:\TMP\ccQ7VlCc.debug.temp.o
 .debug_line    0x000000000003397b      0x298 C:\TMP\ccB1yjVO.debug.temp.o
 .debug_line    0x0000000000033c13       0x5a C:\TMP\ccAEVO4q.debug.temp.o
 .debug_line    0x0000000000033c6d       0x5b C:\TMP\cc17VkF3.debug.temp.o
 .debug_line    0x0000000000033cc8       0x5b C:\TMP\ccEVTpkG.debug.temp.o
 .debug_line    0x0000000000033d23       0x5b C:\TMP\ccRB2MMi.debug.temp.o
 .debug_line    0x0000000000033d7e       0x5b C:\TMP\cc2U52zU.debug.temp.o
 .debug_line    0x0000000000033dd9       0x5b C:\TMP\ccNaYIAw.debug.temp.o
 .debug_line    0x0000000000033e34      0x1de C:\TMP\ccEjLGq8.debug.temp.o
 .debug_line    0x0000000000034012       0x56 C:\TMP\cc5y6UmK.debug.temp.o
 .debug_line    0x0000000000034068       0x5a C:\TMP\ccEeB2fq.debug.temp.o
 .debug_line    0x00000000000340c2       0x5c C:\TMP\ccp64PZ5.debug.temp.o
 .debug_line    0x000000000003411e       0x56 C:\TMP\ccuCQm6L.debug.temp.o
 .debug_line    0x0000000000034174       0x5b C:\TMP\ccLW2jhs.debug.temp.o
 .debug_line    0x00000000000341cf      0x317 C:\TMP\cceXHOi8.debug.temp.o
 .debug_line    0x00000000000344e6       0x59 C:\TMP\ccYlrtAs.debug.temp.o
 .debug_line    0x000000000003453f      0x1eb C:\TMP\ccZTwJ57.debug.temp.o
 .debug_line    0x000000000003472a       0x59 C:\TMP\cc8DYgFN.debug.temp.o
 .debug_line    0x0000000000034783      0x244 C:\TMP\ccpsyW0s.debug.temp.o
 .debug_line    0x00000000000349c7      0x308 C:\TMP\ccItO6C7.debug.temp.o
 .debug_line    0x0000000000034ccf      0x336 C:\TMP\cc9cXGjM.debug.temp.o
 .debug_line    0x0000000000035005      0x367 C:\TMP\ccMCyOQq.debug.temp.o
 .debug_line    0x000000000003536c      0x250 C:\TMP\ccH7DwK5.debug.temp.o
 .debug_line    0x00000000000355bc      0x352 C:\TMP\ccQZXNIK.debug.temp.o
 .debug_line    0x000000000003590e      0x30c C:\TMP\ccipevy3.debug.temp.o
 .debug_line    0x0000000000035c1a      0x317 C:\TMP\ccBWaVpH.debug.temp.o
 .debug_line    0x0000000000035f31       0x58 C:\TMP\ccNYpr8p.debug.temp.o
 .debug_line    0x0000000000035f89       0x5c C:\TMP\ccg3Ule8.debug.temp.o
 .debug_line    0x0000000000035fe5      0x2e6 C:\TMP\cc1GnIGQ.debug.temp.o
 .debug_line    0x00000000000362cb      0x3d3 C:\TMP\ccYwPKZy.debug.temp.o
 .debug_line    0x000000000003669e      0x365 C:\TMP\ccVwGhzg.debug.temp.o
 .debug_line    0x0000000000036a03      0x4bd C:\TMP\cc2hHedY.debug.temp.o
 .debug_line    0x0000000000036ec0       0x9c C:\TMP\cclJaJHF.debug.temp.o
 .debug_line    0x0000000000036f5c      0x347 C:\TMP\cccGDnDn.debug.temp.o
 .debug_line    0x00000000000372a3      0x430 C:\TMP\cc53Vhl5.debug.temp.o
 .debug_line    0x00000000000376d3      0x34d C:\TMP\ccWwjpjM.debug.temp.o
 .debug_line    0x0000000000037a20      0x2e8 C:\TMP\cc9XAYDR.debug.temp.o
 .debug_line    0x0000000000037d08      0x2d4 C:\TMP\ccZxa8Uf.debug.temp.o
 .debug_line    0x0000000000037fdc      0x1b1 C:\TMP\ccYQipmW.debug.temp.o
 .debug_line    0x000000000003818d      0x347 C:\TMP\cc1DxWzC.debug.temp.o
 .debug_line    0x00000000000384d4      0x19e C:\TMP\ccIzkMij.debug.temp.o
 .debug_line    0x0000000000038672      0x1a2 C:\TMP\ccFjbrSZ.debug.temp.o
 .debug_line    0x0000000000038814      0x1b0 C:\TMP\ccybxXoK.debug.temp.o
 .debug_line    0x00000000000389c4      0x374 C:\TMP\ccvxZJHu.debug.temp.o
 .debug_line    0x0000000000038d38      0x39b C:\TMP\ccWiTFrf.debug.temp.o
 .debug_line    0x00000000000390d3      0x1f0 build/objs/ci130x_startup.o
 .debug_line    0x00000000000392c3      0xcea ../../../libs\libnewlib_port.a(sbrk.o)
 .debug_line    0x0000000000039fad      0x2c8 ../../../libs\libfreertos_port.a(portasm.o)
 .debug_line    0x000000000003a275      0x19c d:/software/yuyin/qiqiyinqiluntai/riscv-nuclei-elf-gcc-9.2.0.0/gcc_fix_raissrc/bin/../lib/gcc/riscv-nuclei-elf/9.2.0/rv32imafc/ilp32f\libgcc.a(save-restore.o)
 .debug_line    0x000000000003a411     0x1637 d:/software/yuyin/qiqiyinqiluntai/riscv-nuclei-elf-gcc-9.2.0.0/gcc_fix_raissrc/bin/../lib/gcc/riscv-nuclei-elf/9.2.0/rv32imafc/ilp32f\libgcc.a(adddf3.o)
 .debug_line    0x000000000003ba48     0x1289 d:/software/yuyin/qiqiyinqiluntai/riscv-nuclei-elf-gcc-9.2.0.0/gcc_fix_raissrc/bin/../lib/gcc/riscv-nuclei-elf/9.2.0/rv32imafc/ilp32f\libgcc.a(divdf3.o)
 .debug_line    0x000000000003ccd1      0x34a d:/software/yuyin/qiqiyinqiluntai/riscv-nuclei-elf-gcc-9.2.0.0/gcc_fix_raissrc/bin/../lib/gcc/riscv-nuclei-elf/9.2.0/rv32imafc/ilp32f\libgcc.a(eqdf2.o)
 .debug_line    0x000000000003d01b      0x377 d:/software/yuyin/qiqiyinqiluntai/riscv-nuclei-elf-gcc-9.2.0.0/gcc_fix_raissrc/bin/../lib/gcc/riscv-nuclei-elf/9.2.0/rv32imafc/ilp32f\libgcc.a(gedf2.o)
 .debug_line    0x000000000003d392      0x377 d:/software/yuyin/qiqiyinqiluntai/riscv-nuclei-elf-gcc-9.2.0.0/gcc_fix_raissrc/bin/../lib/gcc/riscv-nuclei-elf/9.2.0/rv32imafc/ilp32f\libgcc.a(ledf2.o)
 .debug_line    0x000000000003d709     0x1099 d:/software/yuyin/qiqiyinqiluntai/riscv-nuclei-elf-gcc-9.2.0.0/gcc_fix_raissrc/bin/../lib/gcc/riscv-nuclei-elf/9.2.0/rv32imafc/ilp32f\libgcc.a(muldf3.o)
 .debug_line    0x000000000003e7a2     0x1673 d:/software/yuyin/qiqiyinqiluntai/riscv-nuclei-elf-gcc-9.2.0.0/gcc_fix_raissrc/bin/../lib/gcc/riscv-nuclei-elf/9.2.0/rv32imafc/ilp32f\libgcc.a(subdf3.o)
 .debug_line    0x000000000003fe15      0x2a3 d:/software/yuyin/qiqiyinqiluntai/riscv-nuclei-elf-gcc-9.2.0.0/gcc_fix_raissrc/bin/../lib/gcc/riscv-nuclei-elf/9.2.0/rv32imafc/ilp32f\libgcc.a(unorddf2.o)
 .debug_line    0x00000000000400b8      0x345 d:/software/yuyin/qiqiyinqiluntai/riscv-nuclei-elf-gcc-9.2.0.0/gcc_fix_raissrc/bin/../lib/gcc/riscv-nuclei-elf/9.2.0/rv32imafc/ilp32f\libgcc.a(fixdfsi.o)
 .debug_line    0x00000000000403fd      0x2bb d:/software/yuyin/qiqiyinqiluntai/riscv-nuclei-elf-gcc-9.2.0.0/gcc_fix_raissrc/bin/../lib/gcc/riscv-nuclei-elf/9.2.0/rv32imafc/ilp32f\libgcc.a(floatsidf.o)
 .debug_line    0x00000000000406b8      0x41f d:/software/yuyin/qiqiyinqiluntai/riscv-nuclei-elf-gcc-9.2.0.0/gcc_fix_raissrc/bin/../lib/gcc/riscv-nuclei-elf/9.2.0/rv32imafc/ilp32f\libgcc.a(extendsfdf2.o)
 .debug_line    0x0000000000040ad7      0x701 d:/software/yuyin/qiqiyinqiluntai/riscv-nuclei-elf-gcc-9.2.0.0/gcc_fix_raissrc/bin/../lib/gcc/riscv-nuclei-elf/9.2.0/rv32imafc/ilp32f\libgcc.a(truncdfsf2.o)
 .debug_line    0x00000000000411d8      0x35c d:/software/yuyin/qiqiyinqiluntai/riscv-nuclei-elf-gcc-9.2.0.0/gcc_fix_raissrc/bin/../lib/gcc/riscv-nuclei-elf/9.2.0/rv32imafc/ilp32f\libgcc.a(_clzsi2.o)
 .debug_line    0x0000000000041534      0x2d0 d:/software/yuyin/qiqiyinqiluntai/riscv-nuclei-elf-gcc-9.2.0.0/gcc_fix_raissrc/bin/../lib/gcc/riscv-nuclei-elf/9.2.0/rv32imafc/ilp32f\libgcc.a(_clz.o)

.debug_str      0x0000000000000000    0x1c6be
 .debug_str     0x0000000000000000      0x48d C:\TMP\nn_denoise_rtc_sample.elf.ItDyV2.ltrans0.ltrans.o
                                        0x593 (size before relaxing)
 .debug_str     0x000000000000048d      0x1f6 C:\TMP\nn_denoise_rtc_sample.elf.ItDyV2.ltrans1.ltrans.o
                                        0x67c (size before relaxing)
 .debug_str     0x0000000000000683      0x8cd C:\TMP\cc3X3S1m.debug.temp.o
                                        0xe60 (size before relaxing)
 .debug_str     0x0000000000000f50      0x22c C:\TMP\ccK9AiDN.debug.temp.o
                                        0x8da (size before relaxing)
 .debug_str     0x000000000000117c       0x31 C:\TMP\ccFAoo5d.debug.temp.o
                                        0x6cc (size before relaxing)
 .debug_str     0x00000000000011ad      0x744 C:\TMP\ccSA9VTE.debug.temp.o
                                       0x126e (size before relaxing)
 .debug_str     0x00000000000018f1      0x298 C:\TMP\cchNT9y5.debug.temp.o
                                        0x94c (size before relaxing)
 .debug_str     0x0000000000001b89      0x300 C:\TMP\ccJQIalV.debug.temp.o
                                        0x5c2 (size before relaxing)
 .debug_str     0x0000000000001e89      0x3cb C:\TMP\cczM7AUL.debug.temp.o
                                        0xa6d (size before relaxing)
 .debug_str     0x0000000000002254       0xb1 C:\TMP\cc4xew4f.debug.temp.o
                                        0x7bc (size before relaxing)
 .debug_str     0x0000000000002305      0x61a C:\TMP\ccDNrH0J.debug.temp.o
                                       0x124e (size before relaxing)
 .debug_str     0x000000000000291f      0x4e6 C:\TMP\ccGs61ne.debug.temp.o
                                       0x10ca (size before relaxing)
 .debug_str     0x0000000000002e05      0xd29 C:\TMP\ccVNdUBI.debug.temp.o
                                       0x1a45 (size before relaxing)
 .debug_str     0x0000000000003b2e      0x514 C:\TMP\ccmvJWWb.debug.temp.o
                                        0xce7 (size before relaxing)
 .debug_str     0x0000000000004042      0x237 C:\TMP\cc57r9lF.debug.temp.o
                                        0xd4f (size before relaxing)
 .debug_str     0x0000000000004279      0x235 C:\TMP\ccgBOmc9.debug.temp.o
                                        0xd2b (size before relaxing)
 .debug_str     0x00000000000044ae       0x4b C:\TMP\ccx74YOC.debug.temp.o
                                        0x690 (size before relaxing)
 .debug_str     0x00000000000044f9      0x3a7 C:\TMP\ccQmIlX4.debug.temp.o
                                        0xb0c (size before relaxing)
 .debug_str     0x00000000000048a0      0x214 C:\TMP\ccAjjb1Z.debug.temp.o
                                        0x8dc (size before relaxing)
 .debug_str     0x0000000000004ab4      0x224 C:\TMP\ccWTU55Y.debug.temp.o
                                        0x904 (size before relaxing)
 .debug_str     0x0000000000004cd8      0x545 C:\TMP\ccjveFsv.debug.temp.o
                                       0x18ad (size before relaxing)
 .debug_str     0x000000000000521d     0x11d3 C:\TMP\cca0sfg2.debug.temp.o
                                       0x18a6 (size before relaxing)
 .debug_str     0x00000000000063f0      0x46f C:\TMP\cc9ASeQy.debug.temp.o
                                       0x107f (size before relaxing)
 .debug_str     0x000000000000685f      0xb90 C:\TMP\ccgq56w4.debug.temp.o
                                       0x18e6 (size before relaxing)
 .debug_str     0x00000000000073ef      0x7af C:\TMP\ccREJ8EA.debug.temp.o
                                       0x1dfc (size before relaxing)
 .debug_str     0x0000000000007b9e      0x24c C:\TMP\cczImPGC.debug.temp.o
                                       0x106b (size before relaxing)
 .debug_str     0x0000000000007dea      0x2a1 C:\TMP\cc0YrAe9.debug.temp.o
                                        0x6fd (size before relaxing)
 .debug_str     0x000000000000808b       0x98 C:\TMP\ccgsRn08.debug.temp.o
                                       0x1bcf (size before relaxing)
 .debug_str     0x0000000000008123      0x5fc C:\TMP\cc5pPHNH.debug.temp.o
                                       0x116c (size before relaxing)
 .debug_str     0x000000000000871f      0x16a C:\TMP\ccaeaowg.debug.temp.o
                                        0x840 (size before relaxing)
 .debug_str     0x0000000000008889      0x429 C:\TMP\ccLsaXFP.debug.temp.o
                                       0x104f (size before relaxing)
 .debug_str     0x0000000000008cb2      0x63d C:\TMP\ccm5ILBo.debug.temp.o
                                       0x12b6 (size before relaxing)
 .debug_str     0x00000000000092ef      0x2ca C:\TMP\ccViTVNW.debug.temp.o
                                       0x11f2 (size before relaxing)
 .debug_str     0x00000000000095b9      0x32a C:\TMP\ccIhQUQu.debug.temp.o
                                       0x1fdc (size before relaxing)
 .debug_str     0x00000000000098e3      0x32f C:\TMP\ccVxDLk3.debug.temp.o
                                        0xbb7 (size before relaxing)
 .debug_str     0x0000000000009c12       0x94 C:\TMP\cckCR2SB.debug.temp.o
                                        0x6de (size before relaxing)
 .debug_str     0x0000000000009ca6     0x1373 C:\TMP\ccZxXByf.debug.temp.o
                                       0x1fd6 (size before relaxing)
 .debug_str     0x000000000000b019       0xb3 C:\TMP\ccKBLA4M.debug.temp.o
                                       0x197d (size before relaxing)
 .debug_str     0x000000000000b0cc      0xa04 C:\TMP\cc5ivjMq.debug.temp.o
                                       0x1b4f (size before relaxing)
 .debug_str     0x000000000000bad0      0x160 C:\TMP\ccGPWdQX.debug.temp.o
                                        0x8a4 (size before relaxing)
 .debug_str     0x000000000000bc30      0x726 C:\TMP\ccMJwy61.debug.temp.o
                                       0x11bb (size before relaxing)
 .debug_str     0x000000000000c356      0x37c C:\TMP\cc5MHpez.debug.temp.o
                                        0xa59 (size before relaxing)
 .debug_str     0x000000000000c6d2      0x164 C:\TMP\ccq9fqja.debug.temp.o
                                        0x822 (size before relaxing)
 .debug_str     0x000000000000c836      0x82e C:\TMP\ccVgYQsL.debug.temp.o
                                       0x1291 (size before relaxing)
 .debug_str     0x000000000000d064     0x1794 C:\TMP\ccE7pPsm.debug.temp.o
                                       0x255a (size before relaxing)
 .debug_str     0x000000000000e7f8     0x1750 C:\TMP\ccPOvOTX.debug.temp.o
                                       0x260d (size before relaxing)
 .debug_str     0x000000000000ff48      0x470 C:\TMP\cchQRsF9.debug.temp.o
                                        0xb63 (size before relaxing)
 .debug_str     0x00000000000103b8       0x76 C:\TMP\ccITeh4J.debug.temp.o
                                        0x714 (size before relaxing)
 .debug_str     0x000000000001042e      0x497 C:\TMP\ccjILvxk.debug.temp.o
                                       0x12bb (size before relaxing)
 .debug_str     0x00000000000108c5      0x512 C:\TMP\ccoWJTrV.debug.temp.o
                                        0x88a (size before relaxing)
 .debug_str     0x0000000000010dd7      0x344 C:\TMP\ccxEOx8v.debug.temp.o
                                        0xaac (size before relaxing)
 .debug_str     0x000000000001111b      0x4b6 C:\TMP\ccAlqo55.debug.temp.o
                                        0xdb9 (size before relaxing)
 .debug_str     0x00000000000115d1      0x5c3 C:\TMP\ccbFHsdQ.debug.temp.o
                                       0x11ef (size before relaxing)
 .debug_str     0x0000000000011b94      0x263 C:\TMP\ccaKKGiq.debug.temp.o
                                        0xbab (size before relaxing)
 .debug_str     0x0000000000011df7      0x145 C:\TMP\cclDels0.debug.temp.o
                                        0x786 (size before relaxing)
 .debug_str     0x0000000000011f3c      0x1e1 C:\TMP\ccyGtLHI.debug.temp.o
                                       0x1472 (size before relaxing)
 .debug_str     0x000000000001211d       0xf9 C:\TMP\ccxToJbi.debug.temp.o
                                        0x8a5 (size before relaxing)
 .debug_str     0x0000000000012216       0x5e C:\TMP\ccIUK7JR.debug.temp.o
                                        0x21c (size before relaxing)
 .debug_str     0x0000000000012274       0x40 C:\TMP\ccHlJXav.debug.temp.o
                                        0x2d0 (size before relaxing)
 .debug_str     0x00000000000122b4      0x12b C:\TMP\ccW4eus8.debug.temp.o
                                       0x10c2 (size before relaxing)
 .debug_str     0x00000000000123df      0x18f C:\TMP\ccFdcabM.debug.temp.o
                                       0x168e (size before relaxing)
 .debug_str     0x000000000001256e      0x938 C:\TMP\ccDHSTB3.debug.temp.o
                                       0x213b (size before relaxing)
 .debug_str     0x0000000000012ea6      0x116 C:\TMP\ccu4CsrG.debug.temp.o
                                       0x1277 (size before relaxing)
 .debug_str     0x0000000000012fbc      0x292 C:\TMP\ccBfrQ7i.debug.temp.o
                                        0xccd (size before relaxing)
 .debug_str     0x000000000001324e      0x441 C:\TMP\cc8H55eW.debug.temp.o
                                       0x122d (size before relaxing)
 .debug_str     0x000000000001368f      0x118 C:\TMP\ccR0tjvz.debug.temp.o
                                        0xde1 (size before relaxing)
 .debug_str     0x00000000000137a7      0x240 C:\TMP\ccQ7VlCc.debug.temp.o
                                        0x904 (size before relaxing)
 .debug_str     0x00000000000139e7      0x1dc C:\TMP\ccB1yjVO.debug.temp.o
                                        0x8e9 (size before relaxing)
 .debug_str     0x0000000000013bc3       0x48 C:\TMP\ccAEVO4q.debug.temp.o
                                        0x20b (size before relaxing)
 .debug_str     0x0000000000013c0b       0x4a C:\TMP\cc17VkF3.debug.temp.o
                                        0x20d (size before relaxing)
 .debug_str     0x0000000000013c55       0x4a C:\TMP\ccEVTpkG.debug.temp.o
                                        0x20d (size before relaxing)
 .debug_str     0x0000000000013c9f       0x4a C:\TMP\ccRB2MMi.debug.temp.o
                                        0x20d (size before relaxing)
 .debug_str     0x0000000000013ce9       0x3a C:\TMP\cc2U52zU.debug.temp.o
                                        0x20d (size before relaxing)
 .debug_str     0x0000000000013d23       0x4a C:\TMP\ccNaYIAw.debug.temp.o
                                        0x20d (size before relaxing)
 .debug_str     0x0000000000013d6d      0x20f C:\TMP\ccEjLGq8.debug.temp.o
                                        0x904 (size before relaxing)
 .debug_str     0x0000000000013f7c       0x42 C:\TMP\cc5y6UmK.debug.temp.o
                                        0x205 (size before relaxing)
 .debug_str     0x0000000000013fbe       0x47 C:\TMP\ccEeB2fq.debug.temp.o
                                        0x20a (size before relaxing)
 .debug_str     0x0000000000014005       0x4c C:\TMP\ccp64PZ5.debug.temp.o
                                        0x20f (size before relaxing)
 .debug_str     0x0000000000014051       0x40 C:\TMP\ccuCQm6L.debug.temp.o
                                        0x203 (size before relaxing)
 .debug_str     0x0000000000014091       0x57 C:\TMP\ccLW2jhs.debug.temp.o
                                        0x21a (size before relaxing)
 .debug_str     0x00000000000140e8      0x189 C:\TMP\cceXHOi8.debug.temp.o
                                        0x88b (size before relaxing)
 .debug_str     0x0000000000014271       0x4a C:\TMP\ccYlrtAs.debug.temp.o
                                        0x2ae (size before relaxing)
 .debug_str     0x00000000000142bb       0xd7 C:\TMP\ccZTwJ57.debug.temp.o
                                        0x7ba (size before relaxing)
 .debug_str     0x0000000000014392       0x6e C:\TMP\cc8DYgFN.debug.temp.o
                                        0x239 (size before relaxing)
 .debug_str     0x0000000000014400      0x236 C:\TMP\ccpsyW0s.debug.temp.o
                                        0x9fa (size before relaxing)
 .debug_str     0x0000000000014636      0x157 C:\TMP\ccItO6C7.debug.temp.o
                                        0xcc6 (size before relaxing)
 .debug_str     0x000000000001478d       0xc2 C:\TMP\cc9cXGjM.debug.temp.o
                                        0xc05 (size before relaxing)
 .debug_str     0x000000000001484f      0x443 C:\TMP\ccMCyOQq.debug.temp.o
                                       0x10cc (size before relaxing)
 .debug_str     0x0000000000014c92       0xd6 C:\TMP\ccH7DwK5.debug.temp.o
                                        0x889 (size before relaxing)
 .debug_str     0x0000000000014d68      0x1b6 C:\TMP\ccQZXNIK.debug.temp.o
                                        0xe96 (size before relaxing)
 .debug_str     0x0000000000014f1e      0x145 C:\TMP\ccipevy3.debug.temp.o
                                        0xbc7 (size before relaxing)
 .debug_str     0x0000000000015063      0x11a C:\TMP\ccBWaVpH.debug.temp.o
                                        0x973 (size before relaxing)
 .debug_str     0x000000000001517d       0x6d C:\TMP\ccNYpr8p.debug.temp.o
                                        0x2ee (size before relaxing)
 .debug_str     0x00000000000151ea       0x31 C:\TMP\ccg3Ule8.debug.temp.o
                                        0x288 (size before relaxing)
 .debug_str     0x000000000001521b       0x98 C:\TMP\cc1GnIGQ.debug.temp.o
                                        0x9ca (size before relaxing)
 .debug_str     0x00000000000152b3     0x1411 C:\TMP\ccYwPKZy.debug.temp.o
                                       0x2ba6 (size before relaxing)
 .debug_str     0x00000000000166c4      0x391 C:\TMP\ccVwGhzg.debug.temp.o
                                       0x1bc4 (size before relaxing)
 .debug_str     0x0000000000016a55     0x14f1 C:\TMP\cc2hHedY.debug.temp.o
                                       0x3aab (size before relaxing)
 .debug_str     0x0000000000017f46      0x210 C:\TMP\cclJaJHF.debug.temp.o
                                        0x3e8 (size before relaxing)
 .debug_str     0x0000000000018156      0x21c C:\TMP\cccGDnDn.debug.temp.o
                                       0x1a20 (size before relaxing)
 .debug_str     0x0000000000018372      0x27e C:\TMP\cc53Vhl5.debug.temp.o
                                       0x2013 (size before relaxing)
 .debug_str     0x00000000000185f0      0x11e C:\TMP\ccWwjpjM.debug.temp.o
                                       0x193b (size before relaxing)
 .debug_str     0x000000000001870e      0x370 C:\TMP\cc9XAYDR.debug.temp.o
                                        0xe88 (size before relaxing)
 .debug_str     0x0000000000018a7e      0x17b C:\TMP\ccZxa8Uf.debug.temp.o
                                        0xa13 (size before relaxing)
 .debug_str     0x0000000000018bf9      0x119 C:\TMP\ccYQipmW.debug.temp.o
                                        0x9a5 (size before relaxing)
 .debug_str     0x0000000000018d12      0x1d0 C:\TMP\cc1DxWzC.debug.temp.o
                                        0xaea (size before relaxing)
 .debug_str     0x0000000000018ee2      0x778 C:\TMP\ccIzkMij.debug.temp.o
                                       0x127d (size before relaxing)
 .debug_str     0x000000000001965a      0x20b C:\TMP\ccFjbrSZ.debug.temp.o
                                        0x528 (size before relaxing)
 .debug_str     0x0000000000019865      0xade C:\TMP\ccybxXoK.debug.temp.o
                                       0x1486 (size before relaxing)
 .debug_str     0x000000000001a343      0x680 C:\TMP\ccvxZJHu.debug.temp.o
                                        0xf18 (size before relaxing)
 .debug_str     0x000000000001a9c3      0x246 C:\TMP\ccWiTFrf.debug.temp.o
                                       0x1244 (size before relaxing)
 .debug_str     0x000000000001ac09       0xb9 build/objs/ci130x_startup.o
 .debug_str     0x000000000001acc2      0xd05 ../../../libs\libnewlib_port.a(sbrk.o)
                                        0xe31 (size before relaxing)
 .debug_str     0x000000000001b9c7       0x7e ../../../libs\libfreertos_port.a(portasm.o)
                                         0x8a (size before relaxing)
 .debug_str     0x000000000001ba45       0xdd d:/software/yuyin/qiqiyinqiluntai/riscv-nuclei-elf-gcc-9.2.0.0/gcc_fix_raissrc/bin/../lib/gcc/riscv-nuclei-elf/9.2.0/rv32imafc/ilp32f\libgcc.a(save-restore.o)
                                         0xe9 (size before relaxing)
 .debug_str     0x000000000001bb22      0x25b d:/software/yuyin/qiqiyinqiluntai/riscv-nuclei-elf-gcc-9.2.0.0/gcc_fix_raissrc/bin/../lib/gcc/riscv-nuclei-elf/9.2.0/rv32imafc/ilp32f\libgcc.a(adddf3.o)
                                        0x371 (size before relaxing)
 .debug_str     0x000000000001bd7d      0x1fd d:/software/yuyin/qiqiyinqiluntai/riscv-nuclei-elf-gcc-9.2.0.0/gcc_fix_raissrc/bin/../lib/gcc/riscv-nuclei-elf/9.2.0/rv32imafc/ilp32f\libgcc.a(divdf3.o)
                                        0x433 (size before relaxing)
 .debug_str     0x000000000001bf7a       0x72 d:/software/yuyin/qiqiyinqiluntai/riscv-nuclei-elf-gcc-9.2.0.0/gcc_fix_raissrc/bin/../lib/gcc/riscv-nuclei-elf/9.2.0/rv32imafc/ilp32f\libgcc.a(eqdf2.o)
                                        0x28b (size before relaxing)
 .debug_str     0x000000000001bfec       0x77 d:/software/yuyin/qiqiyinqiluntai/riscv-nuclei-elf-gcc-9.2.0.0/gcc_fix_raissrc/bin/../lib/gcc/riscv-nuclei-elf/9.2.0/rv32imafc/ilp32f\libgcc.a(gedf2.o)
                                        0x2af (size before relaxing)
 .debug_str     0x000000000001c063       0x53 d:/software/yuyin/qiqiyinqiluntai/riscv-nuclei-elf-gcc-9.2.0.0/gcc_fix_raissrc/bin/../lib/gcc/riscv-nuclei-elf/9.2.0/rv32imafc/ilp32f\libgcc.a(ledf2.o)
                                        0x2af (size before relaxing)
 .debug_str     0x000000000001c0b6      0x17a d:/software/yuyin/qiqiyinqiluntai/riscv-nuclei-elf-gcc-9.2.0.0/gcc_fix_raissrc/bin/../lib/gcc/riscv-nuclei-elf/9.2.0/rv32imafc/ilp32f\libgcc.a(muldf3.o)
                                        0x48b (size before relaxing)
 .debug_str     0x000000000001c230       0x55 d:/software/yuyin/qiqiyinqiluntai/riscv-nuclei-elf-gcc-9.2.0.0/gcc_fix_raissrc/bin/../lib/gcc/riscv-nuclei-elf/9.2.0/rv32imafc/ilp32f\libgcc.a(subdf3.o)
                                        0x371 (size before relaxing)
 .debug_str     0x000000000001c285       0x59 d:/software/yuyin/qiqiyinqiluntai/riscv-nuclei-elf-gcc-9.2.0.0/gcc_fix_raissrc/bin/../lib/gcc/riscv-nuclei-elf/9.2.0/rv32imafc/ilp32f\libgcc.a(unorddf2.o)
                                        0x291 (size before relaxing)
 .debug_str     0x000000000001c2de       0x72 d:/software/yuyin/qiqiyinqiluntai/riscv-nuclei-elf-gcc-9.2.0.0/gcc_fix_raissrc/bin/../lib/gcc/riscv-nuclei-elf/9.2.0/rv32imafc/ilp32f\libgcc.a(fixdfsi.o)
                                        0x288 (size before relaxing)
 .debug_str     0x000000000001c350       0x88 d:/software/yuyin/qiqiyinqiluntai/riscv-nuclei-elf-gcc-9.2.0.0/gcc_fix_raissrc/bin/../lib/gcc/riscv-nuclei-elf/9.2.0/rv32imafc/ilp32f\libgcc.a(floatsidf.o)
                                        0x31e (size before relaxing)
 .debug_str     0x000000000001c3d8       0x99 d:/software/yuyin/qiqiyinqiluntai/riscv-nuclei-elf-gcc-9.2.0.0/gcc_fix_raissrc/bin/../lib/gcc/riscv-nuclei-elf/9.2.0/rv32imafc/ilp32f\libgcc.a(extendsfdf2.o)
                                        0x2ac (size before relaxing)
 .debug_str     0x000000000001c471       0x85 d:/software/yuyin/qiqiyinqiluntai/riscv-nuclei-elf-gcc-9.2.0.0/gcc_fix_raissrc/bin/../lib/gcc/riscv-nuclei-elf/9.2.0/rv32imafc/ilp32f\libgcc.a(truncdfsf2.o)
                                        0x30a (size before relaxing)
 .debug_str     0x000000000001c4f6      0x1c8 d:/software/yuyin/qiqiyinqiluntai/riscv-nuclei-elf-gcc-9.2.0.0/gcc_fix_raissrc/bin/../lib/gcc/riscv-nuclei-elf/9.2.0/rv32imafc/ilp32f\libgcc.a(_clzsi2.o)
                                        0x80f (size before relaxing)
 .debug_str     0x000000000001c6be      0x7f2 d:/software/yuyin/qiqiyinqiluntai/riscv-nuclei-elf-gcc-9.2.0.0/gcc_fix_raissrc/bin/../lib/gcc/riscv-nuclei-elf/9.2.0/rv32imafc/ilp32f\libgcc.a(_clz.o)

.comment        0x0000000000000000       0x11
 .comment       0x0000000000000000       0x12 C:\TMP\nn_denoise_rtc_sample.elf.ItDyV2.ltrans0.ltrans.o
 .comment       0x0000000000000000       0x12 C:\TMP\nn_denoise_rtc_sample.elf.ItDyV2.ltrans1.ltrans.o
 .comment       0x0000000000000000       0x11 ../../../libs\libnewlib_port.a(sbrk.o)
                                         0x12 (size before relaxing)
 .comment       0x0000000000000011       0x12 d:/software/yuyin/qiqiyinqiluntai/riscv-nuclei-elf-gcc-9.2.0.0/gcc_fix_raissrc/bin/../lib/gcc/riscv-nuclei-elf/9.2.0/rv32imafc/ilp32f\libgcc.a(adddf3.o)
 .comment       0x0000000000000011       0x12 d:/software/yuyin/qiqiyinqiluntai/riscv-nuclei-elf-gcc-9.2.0.0/gcc_fix_raissrc/bin/../lib/gcc/riscv-nuclei-elf/9.2.0/rv32imafc/ilp32f\libgcc.a(divdf3.o)
 .comment       0x0000000000000011       0x12 d:/software/yuyin/qiqiyinqiluntai/riscv-nuclei-elf-gcc-9.2.0.0/gcc_fix_raissrc/bin/../lib/gcc/riscv-nuclei-elf/9.2.0/rv32imafc/ilp32f\libgcc.a(eqdf2.o)
 .comment       0x0000000000000011       0x12 d:/software/yuyin/qiqiyinqiluntai/riscv-nuclei-elf-gcc-9.2.0.0/gcc_fix_raissrc/bin/../lib/gcc/riscv-nuclei-elf/9.2.0/rv32imafc/ilp32f\libgcc.a(gedf2.o)
 .comment       0x0000000000000011       0x12 d:/software/yuyin/qiqiyinqiluntai/riscv-nuclei-elf-gcc-9.2.0.0/gcc_fix_raissrc/bin/../lib/gcc/riscv-nuclei-elf/9.2.0/rv32imafc/ilp32f\libgcc.a(ledf2.o)
 .comment       0x0000000000000011       0x12 d:/software/yuyin/qiqiyinqiluntai/riscv-nuclei-elf-gcc-9.2.0.0/gcc_fix_raissrc/bin/../lib/gcc/riscv-nuclei-elf/9.2.0/rv32imafc/ilp32f\libgcc.a(muldf3.o)
 .comment       0x0000000000000011       0x12 d:/software/yuyin/qiqiyinqiluntai/riscv-nuclei-elf-gcc-9.2.0.0/gcc_fix_raissrc/bin/../lib/gcc/riscv-nuclei-elf/9.2.0/rv32imafc/ilp32f\libgcc.a(subdf3.o)
 .comment       0x0000000000000011       0x12 d:/software/yuyin/qiqiyinqiluntai/riscv-nuclei-elf-gcc-9.2.0.0/gcc_fix_raissrc/bin/../lib/gcc/riscv-nuclei-elf/9.2.0/rv32imafc/ilp32f\libgcc.a(unorddf2.o)
 .comment       0x0000000000000011       0x12 d:/software/yuyin/qiqiyinqiluntai/riscv-nuclei-elf-gcc-9.2.0.0/gcc_fix_raissrc/bin/../lib/gcc/riscv-nuclei-elf/9.2.0/rv32imafc/ilp32f\libgcc.a(fixdfsi.o)
 .comment       0x0000000000000011       0x12 d:/software/yuyin/qiqiyinqiluntai/riscv-nuclei-elf-gcc-9.2.0.0/gcc_fix_raissrc/bin/../lib/gcc/riscv-nuclei-elf/9.2.0/rv32imafc/ilp32f\libgcc.a(floatsidf.o)
 .comment       0x0000000000000011       0x12 d:/software/yuyin/qiqiyinqiluntai/riscv-nuclei-elf-gcc-9.2.0.0/gcc_fix_raissrc/bin/../lib/gcc/riscv-nuclei-elf/9.2.0/rv32imafc/ilp32f\libgcc.a(extendsfdf2.o)
 .comment       0x0000000000000011       0x12 d:/software/yuyin/qiqiyinqiluntai/riscv-nuclei-elf-gcc-9.2.0.0/gcc_fix_raissrc/bin/../lib/gcc/riscv-nuclei-elf/9.2.0/rv32imafc/ilp32f\libgcc.a(truncdfsf2.o)
 .comment       0x0000000000000011       0x12 d:/software/yuyin/qiqiyinqiluntai/riscv-nuclei-elf-gcc-9.2.0.0/gcc_fix_raissrc/bin/../lib/gcc/riscv-nuclei-elf/9.2.0/rv32imafc/ilp32f\libgcc.a(_clzsi2.o)
 .comment       0x0000000000000011       0x12 d:/software/yuyin/qiqiyinqiluntai/riscv-nuclei-elf-gcc-9.2.0.0/gcc_fix_raissrc/bin/../lib/gcc/riscv-nuclei-elf/9.2.0/rv32imafc/ilp32f\libgcc.a(_clz.o)
 .comment       0x0000000000000011       0x12 d:/software/yuyin/qiqiyinqiluntai/riscv-nuclei-elf-gcc-9.2.0.0/gcc_fix_raissrc/bin/../lib/gcc/riscv-nuclei-elf/9.2.0/../../../../riscv-nuclei-elf/lib/rv32imafc/ilp32f\libg_nano.a(lib_a-atexit.o)
 .comment       0x0000000000000011       0x12 d:/software/yuyin/qiqiyinqiluntai/riscv-nuclei-elf-gcc-9.2.0.0/gcc_fix_raissrc/bin/../lib/gcc/riscv-nuclei-elf/9.2.0/../../../../riscv-nuclei-elf/lib/rv32imafc/ilp32f\libg_nano.a(lib_a-exit.o)
 .comment       0x0000000000000011       0x12 d:/software/yuyin/qiqiyinqiluntai/riscv-nuclei-elf-gcc-9.2.0.0/gcc_fix_raissrc/bin/../lib/gcc/riscv-nuclei-elf/9.2.0/../../../../riscv-nuclei-elf/lib/rv32imafc/ilp32f\libg_nano.a(lib_a-fini.o)
 .comment       0x0000000000000011       0x12 d:/software/yuyin/qiqiyinqiluntai/riscv-nuclei-elf-gcc-9.2.0.0/gcc_fix_raissrc/bin/../lib/gcc/riscv-nuclei-elf/9.2.0/../../../../riscv-nuclei-elf/lib/rv32imafc/ilp32f\libg_nano.a(lib_a-impure.o)
 .comment       0x0000000000000011       0x12 d:/software/yuyin/qiqiyinqiluntai/riscv-nuclei-elf-gcc-9.2.0.0/gcc_fix_raissrc/bin/../lib/gcc/riscv-nuclei-elf/9.2.0/../../../../riscv-nuclei-elf/lib/rv32imafc/ilp32f\libg_nano.a(lib_a-init.o)
 .comment       0x0000000000000011       0x12 d:/software/yuyin/qiqiyinqiluntai/riscv-nuclei-elf-gcc-9.2.0.0/gcc_fix_raissrc/bin/../lib/gcc/riscv-nuclei-elf/9.2.0/../../../../riscv-nuclei-elf/lib/rv32imafc/ilp32f\libg_nano.a(lib_a-__atexit.o)
 .comment       0x0000000000000011       0x12 d:/software/yuyin/qiqiyinqiluntai/riscv-nuclei-elf-gcc-9.2.0.0/gcc_fix_raissrc/bin/../lib/gcc/riscv-nuclei-elf/9.2.0/../../../../riscv-nuclei-elf/lib/rv32imafc/ilp32f\libg_nano.a(lib_a-__call_atexit.o)
 .comment       0x0000000000000011       0x12 d:/software/yuyin/qiqiyinqiluntai/riscv-nuclei-elf-gcc-9.2.0.0/gcc_fix_raissrc/bin/../lib/gcc/riscv-nuclei-elf/9.2.0/../../../../riscv-nuclei-elf/lib/rv32imafc/ilp32f\libg_nano.a(lib_a-calloc.o)
 .comment       0x0000000000000011       0x12 d:/software/yuyin/qiqiyinqiluntai/riscv-nuclei-elf-gcc-9.2.0.0/gcc_fix_raissrc/bin/../lib/gcc/riscv-nuclei-elf/9.2.0/../../../../riscv-nuclei-elf/lib/rv32imafc/ilp32f\libg_nano.a(lib_a-fprintf.o)
 .comment       0x0000000000000011       0x12 d:/software/yuyin/qiqiyinqiluntai/riscv-nuclei-elf-gcc-9.2.0.0/gcc_fix_raissrc/bin/../lib/gcc/riscv-nuclei-elf/9.2.0/../../../../riscv-nuclei-elf/lib/rv32imafc/ilp32f\libg_nano.a(lib_a-nano-callocr.o)
 .comment       0x0000000000000011       0x12 d:/software/yuyin/qiqiyinqiluntai/riscv-nuclei-elf-gcc-9.2.0.0/gcc_fix_raissrc/bin/../lib/gcc/riscv-nuclei-elf/9.2.0/../../../../riscv-nuclei-elf/lib/rv32imafc/ilp32f\libg_nano.a(lib_a-nano-mallocr.o)
 .comment       0x0000000000000011       0x12 d:/software/yuyin/qiqiyinqiluntai/riscv-nuclei-elf-gcc-9.2.0.0/gcc_fix_raissrc/bin/../lib/gcc/riscv-nuclei-elf/9.2.0/../../../../riscv-nuclei-elf/lib/rv32imafc/ilp32f\libg_nano.a(lib_a-nano-vfprintf.o)
 .comment       0x0000000000000011       0x12 d:/software/yuyin/qiqiyinqiluntai/riscv-nuclei-elf-gcc-9.2.0.0/gcc_fix_raissrc/bin/../lib/gcc/riscv-nuclei-elf/9.2.0/../../../../riscv-nuclei-elf/lib/rv32imafc/ilp32f\libg_nano.a(lib_a-realloc.o)
 .comment       0x0000000000000011       0x12 d:/software/yuyin/qiqiyinqiluntai/riscv-nuclei-elf-gcc-9.2.0.0/gcc_fix_raissrc/bin/../lib/gcc/riscv-nuclei-elf/9.2.0/../../../../riscv-nuclei-elf/lib/rv32imafc/ilp32f\libg_nano.a(lib_a-sbrkr.o)
 .comment       0x0000000000000011       0x12 d:/software/yuyin/qiqiyinqiluntai/riscv-nuclei-elf-gcc-9.2.0.0/gcc_fix_raissrc/bin/../lib/gcc/riscv-nuclei-elf/9.2.0/../../../../riscv-nuclei-elf/lib/rv32imafc/ilp32f\libg_nano.a(lib_a-wbuf.o)
 .comment       0x0000000000000011       0x12 d:/software/yuyin/qiqiyinqiluntai/riscv-nuclei-elf-gcc-9.2.0.0/gcc_fix_raissrc/bin/../lib/gcc/riscv-nuclei-elf/9.2.0/../../../../riscv-nuclei-elf/lib/rv32imafc/ilp32f\libg_nano.a(lib_a-wsetup.o)
 .comment       0x0000000000000011       0x12 d:/software/yuyin/qiqiyinqiluntai/riscv-nuclei-elf-gcc-9.2.0.0/gcc_fix_raissrc/bin/../lib/gcc/riscv-nuclei-elf/9.2.0/../../../../riscv-nuclei-elf/lib/rv32imafc/ilp32f\libg_nano.a(lib_a-fflush.o)
 .comment       0x0000000000000011       0x12 d:/software/yuyin/qiqiyinqiluntai/riscv-nuclei-elf-gcc-9.2.0.0/gcc_fix_raissrc/bin/../lib/gcc/riscv-nuclei-elf/9.2.0/../../../../riscv-nuclei-elf/lib/rv32imafc/ilp32f\libg_nano.a(lib_a-findfp.o)
 .comment       0x0000000000000011       0x12 d:/software/yuyin/qiqiyinqiluntai/riscv-nuclei-elf-gcc-9.2.0.0/gcc_fix_raissrc/bin/../lib/gcc/riscv-nuclei-elf/9.2.0/../../../../riscv-nuclei-elf/lib/rv32imafc/ilp32f\libg_nano.a(lib_a-fwalk.o)
 .comment       0x0000000000000011       0x12 d:/software/yuyin/qiqiyinqiluntai/riscv-nuclei-elf-gcc-9.2.0.0/gcc_fix_raissrc/bin/../lib/gcc/riscv-nuclei-elf/9.2.0/../../../../riscv-nuclei-elf/lib/rv32imafc/ilp32f\libg_nano.a(lib_a-makebuf.o)
 .comment       0x0000000000000011       0x12 d:/software/yuyin/qiqiyinqiluntai/riscv-nuclei-elf-gcc-9.2.0.0/gcc_fix_raissrc/bin/../lib/gcc/riscv-nuclei-elf/9.2.0/../../../../riscv-nuclei-elf/lib/rv32imafc/ilp32f\libg_nano.a(lib_a-memchr.o)
 .comment       0x0000000000000011       0x12 d:/software/yuyin/qiqiyinqiluntai/riscv-nuclei-elf-gcc-9.2.0.0/gcc_fix_raissrc/bin/../lib/gcc/riscv-nuclei-elf/9.2.0/../../../../riscv-nuclei-elf/lib/rv32imafc/ilp32f\libg_nano.a(lib_a-nano-freer.o)
 .comment       0x0000000000000011       0x12 d:/software/yuyin/qiqiyinqiluntai/riscv-nuclei-elf-gcc-9.2.0.0/gcc_fix_raissrc/bin/../lib/gcc/riscv-nuclei-elf/9.2.0/../../../../riscv-nuclei-elf/lib/rv32imafc/ilp32f\libg_nano.a(lib_a-nano-reallocr.o)
 .comment       0x0000000000000011       0x12 d:/software/yuyin/qiqiyinqiluntai/riscv-nuclei-elf-gcc-9.2.0.0/gcc_fix_raissrc/bin/../lib/gcc/riscv-nuclei-elf/9.2.0/../../../../riscv-nuclei-elf/lib/rv32imafc/ilp32f\libg_nano.a(lib_a-nano-vfprintf_i.o)
 .comment       0x0000000000000011       0x12 d:/software/yuyin/qiqiyinqiluntai/riscv-nuclei-elf-gcc-9.2.0.0/gcc_fix_raissrc/bin/../lib/gcc/riscv-nuclei-elf/9.2.0/../../../../riscv-nuclei-elf/lib/rv32imafc/ilp32f\libg_nano.a(lib_a-reent.o)
 .comment       0x0000000000000011       0x12 d:/software/yuyin/qiqiyinqiluntai/riscv-nuclei-elf-gcc-9.2.0.0/gcc_fix_raissrc/bin/../lib/gcc/riscv-nuclei-elf/9.2.0/../../../../riscv-nuclei-elf/lib/rv32imafc/ilp32f\libg_nano.a(lib_a-stdio.o)
 .comment       0x0000000000000011       0x12 d:/software/yuyin/qiqiyinqiluntai/riscv-nuclei-elf-gcc-9.2.0.0/gcc_fix_raissrc/bin/../lib/gcc/riscv-nuclei-elf/9.2.0/../../../../riscv-nuclei-elf/lib/rv32imafc/ilp32f\libg_nano.a(lib_a-writer.o)
 .comment       0x0000000000000011       0x12 d:/software/yuyin/qiqiyinqiluntai/riscv-nuclei-elf-gcc-9.2.0.0/gcc_fix_raissrc/bin/../lib/gcc/riscv-nuclei-elf/9.2.0/../../../../riscv-nuclei-elf/lib/rv32imafc/ilp32f\libg_nano.a(lib_a-closer.o)
 .comment       0x0000000000000011       0x12 d:/software/yuyin/qiqiyinqiluntai/riscv-nuclei-elf-gcc-9.2.0.0/gcc_fix_raissrc/bin/../lib/gcc/riscv-nuclei-elf/9.2.0/../../../../riscv-nuclei-elf/lib/rv32imafc/ilp32f\libg_nano.a(lib_a-fstatr.o)
 .comment       0x0000000000000011       0x12 d:/software/yuyin/qiqiyinqiluntai/riscv-nuclei-elf-gcc-9.2.0.0/gcc_fix_raissrc/bin/../lib/gcc/riscv-nuclei-elf/9.2.0/../../../../riscv-nuclei-elf/lib/rv32imafc/ilp32f\libg_nano.a(lib_a-isattyr.o)
 .comment       0x0000000000000011       0x12 d:/software/yuyin/qiqiyinqiluntai/riscv-nuclei-elf-gcc-9.2.0.0/gcc_fix_raissrc/bin/../lib/gcc/riscv-nuclei-elf/9.2.0/../../../../riscv-nuclei-elf/lib/rv32imafc/ilp32f\libg_nano.a(lib_a-lseekr.o)
 .comment       0x0000000000000011       0x12 d:/software/yuyin/qiqiyinqiluntai/riscv-nuclei-elf-gcc-9.2.0.0/gcc_fix_raissrc/bin/../lib/gcc/riscv-nuclei-elf/9.2.0/../../../../riscv-nuclei-elf/lib/rv32imafc/ilp32f\libg_nano.a(lib_a-nano-msizer.o)
 .comment       0x0000000000000011       0x12 d:/software/yuyin/qiqiyinqiluntai/riscv-nuclei-elf-gcc-9.2.0.0/gcc_fix_raissrc/bin/../lib/gcc/riscv-nuclei-elf/9.2.0/../../../../riscv-nuclei-elf/lib/rv32imafc/ilp32f\libg_nano.a(lib_a-readr.o)
 .comment       0x0000000000000011       0x12 d:/software/yuyin/qiqiyinqiluntai/riscv-nuclei-elf-gcc-9.2.0.0/gcc_fix_raissrc/bin/../lib/gcc/riscv-nuclei-elf/9.2.0/../../../../riscv-nuclei-elf/lib/rv32imafc/ilp32f\libgloss_nano.a(sys_exit.o)
 .comment       0x0000000000000011       0x12 d:/software/yuyin/qiqiyinqiluntai/riscv-nuclei-elf-gcc-9.2.0.0/gcc_fix_raissrc/bin/../lib/gcc/riscv-nuclei-elf/9.2.0/../../../../riscv-nuclei-elf/lib/rv32imafc/ilp32f\libgloss_nano.a(sys_close.o)
 .comment       0x0000000000000011       0x12 d:/software/yuyin/qiqiyinqiluntai/riscv-nuclei-elf-gcc-9.2.0.0/gcc_fix_raissrc/bin/../lib/gcc/riscv-nuclei-elf/9.2.0/../../../../riscv-nuclei-elf/lib/rv32imafc/ilp32f\libgloss_nano.a(sys_fstat.o)
 .comment       0x0000000000000011       0x12 d:/software/yuyin/qiqiyinqiluntai/riscv-nuclei-elf-gcc-9.2.0.0/gcc_fix_raissrc/bin/../lib/gcc/riscv-nuclei-elf/9.2.0/../../../../riscv-nuclei-elf/lib/rv32imafc/ilp32f\libgloss_nano.a(sys_isatty.o)
 .comment       0x0000000000000011       0x12 d:/software/yuyin/qiqiyinqiluntai/riscv-nuclei-elf-gcc-9.2.0.0/gcc_fix_raissrc/bin/../lib/gcc/riscv-nuclei-elf/9.2.0/../../../../riscv-nuclei-elf/lib/rv32imafc/ilp32f\libgloss_nano.a(sys_lseek.o)
 .comment       0x0000000000000011       0x12 d:/software/yuyin/qiqiyinqiluntai/riscv-nuclei-elf-gcc-9.2.0.0/gcc_fix_raissrc/bin/../lib/gcc/riscv-nuclei-elf/9.2.0/../../../../riscv-nuclei-elf/lib/rv32imafc/ilp32f\libgloss_nano.a(sys_read.o)
 .comment       0x0000000000000011       0x12 d:/software/yuyin/qiqiyinqiluntai/riscv-nuclei-elf-gcc-9.2.0.0/gcc_fix_raissrc/bin/../lib/gcc/riscv-nuclei-elf/9.2.0/../../../../riscv-nuclei-elf/lib/rv32imafc/ilp32f\libgloss_nano.a(sys_write.o)
 .comment       0x0000000000000011       0x12 d:/software/yuyin/qiqiyinqiluntai/riscv-nuclei-elf-gcc-9.2.0.0/gcc_fix_raissrc/bin/../lib/gcc/riscv-nuclei-elf/9.2.0/../../../../riscv-nuclei-elf/lib/rv32imafc/ilp32f\libgloss_nano.a(sys_conv_stat.o)
 .comment       0x0000000000000011       0x12 d:/software/yuyin/qiqiyinqiluntai/riscv-nuclei-elf-gcc-9.2.0.0/gcc_fix_raissrc/bin/../lib/gcc/riscv-nuclei-elf/9.2.0/../../../../riscv-nuclei-elf/lib/rv32imafc/ilp32f\libc_nano.a(lib_a-errno.o)
 .comment       0x0000000000000011       0x12 d:/software/yuyin/qiqiyinqiluntai/riscv-nuclei-elf-gcc-9.2.0.0/gcc_fix_raissrc/bin/../lib/gcc/riscv-nuclei-elf/9.2.0/../../../../riscv-nuclei-elf/lib/rv32imafc/ilp32f\libm.a(lib_a-s_floor.o)
 .comment       0x0000000000000011       0x12 d:/software/yuyin/qiqiyinqiluntai/riscv-nuclei-elf-gcc-9.2.0.0/gcc_fix_raissrc/bin/../lib/gcc/riscv-nuclei-elf/9.2.0/../../../../riscv-nuclei-elf/lib/rv32imafc/ilp32f\libm.a(lib_a-w_acos.o)
 .comment       0x0000000000000011       0x12 d:/software/yuyin/qiqiyinqiluntai/riscv-nuclei-elf-gcc-9.2.0.0/gcc_fix_raissrc/bin/../lib/gcc/riscv-nuclei-elf/9.2.0/../../../../riscv-nuclei-elf/lib/rv32imafc/ilp32f\libm.a(lib_a-w_exp.o)
 .comment       0x0000000000000011       0x12 d:/software/yuyin/qiqiyinqiluntai/riscv-nuclei-elf-gcc-9.2.0.0/gcc_fix_raissrc/bin/../lib/gcc/riscv-nuclei-elf/9.2.0/../../../../riscv-nuclei-elf/lib/rv32imafc/ilp32f\libm.a(lib_a-wf_pow.o)
 .comment       0x0000000000000011       0x12 d:/software/yuyin/qiqiyinqiluntai/riscv-nuclei-elf-gcc-9.2.0.0/gcc_fix_raissrc/bin/../lib/gcc/riscv-nuclei-elf/9.2.0/../../../../riscv-nuclei-elf/lib/rv32imafc/ilp32f\libm.a(lib_a-w_log.o)
 .comment       0x0000000000000011       0x12 d:/software/yuyin/qiqiyinqiluntai/riscv-nuclei-elf-gcc-9.2.0.0/gcc_fix_raissrc/bin/../lib/gcc/riscv-nuclei-elf/9.2.0/../../../../riscv-nuclei-elf/lib/rv32imafc/ilp32f\libm.a(lib_a-w_sqrt.o)
 .comment       0x0000000000000011       0x12 d:/software/yuyin/qiqiyinqiluntai/riscv-nuclei-elf-gcc-9.2.0.0/gcc_fix_raissrc/bin/../lib/gcc/riscv-nuclei-elf/9.2.0/../../../../riscv-nuclei-elf/lib/rv32imafc/ilp32f\libm.a(lib_a-e_acos.o)
 .comment       0x0000000000000011       0x12 d:/software/yuyin/qiqiyinqiluntai/riscv-nuclei-elf-gcc-9.2.0.0/gcc_fix_raissrc/bin/../lib/gcc/riscv-nuclei-elf/9.2.0/../../../../riscv-nuclei-elf/lib/rv32imafc/ilp32f\libm.a(lib_a-e_exp.o)
 .comment       0x0000000000000011       0x12 d:/software/yuyin/qiqiyinqiluntai/riscv-nuclei-elf-gcc-9.2.0.0/gcc_fix_raissrc/bin/../lib/gcc/riscv-nuclei-elf/9.2.0/../../../../riscv-nuclei-elf/lib/rv32imafc/ilp32f\libm.a(lib_a-ef_pow.o)
 .comment       0x0000000000000011       0x12 d:/software/yuyin/qiqiyinqiluntai/riscv-nuclei-elf-gcc-9.2.0.0/gcc_fix_raissrc/bin/../lib/gcc/riscv-nuclei-elf/9.2.0/../../../../riscv-nuclei-elf/lib/rv32imafc/ilp32f\libm.a(lib_a-ef_sqrt.o)
 .comment       0x0000000000000011       0x12 d:/software/yuyin/qiqiyinqiluntai/riscv-nuclei-elf-gcc-9.2.0.0/gcc_fix_raissrc/bin/../lib/gcc/riscv-nuclei-elf/9.2.0/../../../../riscv-nuclei-elf/lib/rv32imafc/ilp32f\libm.a(lib_a-e_log.o)
 .comment       0x0000000000000011       0x12 d:/software/yuyin/qiqiyinqiluntai/riscv-nuclei-elf-gcc-9.2.0.0/gcc_fix_raissrc/bin/../lib/gcc/riscv-nuclei-elf/9.2.0/../../../../riscv-nuclei-elf/lib/rv32imafc/ilp32f\libm.a(lib_a-e_sqrt.o)
 .comment       0x0000000000000011       0x12 d:/software/yuyin/qiqiyinqiluntai/riscv-nuclei-elf-gcc-9.2.0.0/gcc_fix_raissrc/bin/../lib/gcc/riscv-nuclei-elf/9.2.0/../../../../riscv-nuclei-elf/lib/rv32imafc/ilp32f\libm.a(lib_a-s_fabs.o)
 .comment       0x0000000000000011       0x12 d:/software/yuyin/qiqiyinqiluntai/riscv-nuclei-elf-gcc-9.2.0.0/gcc_fix_raissrc/bin/../lib/gcc/riscv-nuclei-elf/9.2.0/../../../../riscv-nuclei-elf/lib/rv32imafc/ilp32f\libm.a(lib_a-sf_finite.o)
 .comment       0x0000000000000011       0x12 d:/software/yuyin/qiqiyinqiluntai/riscv-nuclei-elf-gcc-9.2.0.0/gcc_fix_raissrc/bin/../lib/gcc/riscv-nuclei-elf/9.2.0/../../../../riscv-nuclei-elf/lib/rv32imafc/ilp32f\libm.a(lib_a-s_finite.o)
 .comment       0x0000000000000011       0x12 d:/software/yuyin/qiqiyinqiluntai/riscv-nuclei-elf-gcc-9.2.0.0/gcc_fix_raissrc/bin/../lib/gcc/riscv-nuclei-elf/9.2.0/../../../../riscv-nuclei-elf/lib/rv32imafc/ilp32f\libm.a(lib_a-sf_nan.o)
 .comment       0x0000000000000011       0x12 d:/software/yuyin/qiqiyinqiluntai/riscv-nuclei-elf-gcc-9.2.0.0/gcc_fix_raissrc/bin/../lib/gcc/riscv-nuclei-elf/9.2.0/../../../../riscv-nuclei-elf/lib/rv32imafc/ilp32f\libm.a(lib_a-sf_rint.o)
 .comment       0x0000000000000011       0x12 d:/software/yuyin/qiqiyinqiluntai/riscv-nuclei-elf-gcc-9.2.0.0/gcc_fix_raissrc/bin/../lib/gcc/riscv-nuclei-elf/9.2.0/../../../../riscv-nuclei-elf/lib/rv32imafc/ilp32f\libm.a(lib_a-sf_scalbn.o)
 .comment       0x0000000000000011       0x12 d:/software/yuyin/qiqiyinqiluntai/riscv-nuclei-elf-gcc-9.2.0.0/gcc_fix_raissrc/bin/../lib/gcc/riscv-nuclei-elf/9.2.0/../../../../riscv-nuclei-elf/lib/rv32imafc/ilp32f\libm.a(lib_a-s_lib_ver.o)
 .comment       0x0000000000000011       0x12 d:/software/yuyin/qiqiyinqiluntai/riscv-nuclei-elf-gcc-9.2.0.0/gcc_fix_raissrc/bin/../lib/gcc/riscv-nuclei-elf/9.2.0/../../../../riscv-nuclei-elf/lib/rv32imafc/ilp32f\libm.a(lib_a-s_matherr.o)
 .comment       0x0000000000000011       0x12 d:/software/yuyin/qiqiyinqiluntai/riscv-nuclei-elf-gcc-9.2.0.0/gcc_fix_raissrc/bin/../lib/gcc/riscv-nuclei-elf/9.2.0/../../../../riscv-nuclei-elf/lib/rv32imafc/ilp32f\libm.a(lib_a-s_nan.o)
 .comment       0x0000000000000011       0x12 d:/software/yuyin/qiqiyinqiluntai/riscv-nuclei-elf-gcc-9.2.0.0/gcc_fix_raissrc/bin/../lib/gcc/riscv-nuclei-elf/9.2.0/../../../../riscv-nuclei-elf/lib/rv32imafc/ilp32f\libm.a(lib_a-sf_copysign.o)

.riscv.attributes
                0x0000000000000000       0x30
 .riscv.attributes
                0x0000000000000000       0x30 C:\TMP\nn_denoise_rtc_sample.elf.ItDyV2.ltrans0.ltrans.o
 .riscv.attributes
                0x0000000000000030       0x30 C:\TMP\nn_denoise_rtc_sample.elf.ItDyV2.ltrans1.ltrans.o
 .riscv.attributes
                0x0000000000000060       0x2e build/objs/ci130x_startup.o
 .riscv.attributes
                0x000000000000008e       0x30 ../../../libs\libnewlib_port.a(sbrk.o)
 .riscv.attributes
                0x00000000000000be       0x2e ../../../libs\libfreertos_port.a(portasm.o)
 .riscv.attributes
                0x00000000000000ec       0x2e d:/software/yuyin/qiqiyinqiluntai/riscv-nuclei-elf-gcc-9.2.0.0/gcc_fix_raissrc/bin/../lib/gcc/riscv-nuclei-elf/9.2.0/rv32imafc/ilp32f\libgcc.a(save-restore.o)
 .riscv.attributes
                0x000000000000011a       0x30 d:/software/yuyin/qiqiyinqiluntai/riscv-nuclei-elf-gcc-9.2.0.0/gcc_fix_raissrc/bin/../lib/gcc/riscv-nuclei-elf/9.2.0/rv32imafc/ilp32f\libgcc.a(adddf3.o)
 .riscv.attributes
                0x000000000000014a       0x30 d:/software/yuyin/qiqiyinqiluntai/riscv-nuclei-elf-gcc-9.2.0.0/gcc_fix_raissrc/bin/../lib/gcc/riscv-nuclei-elf/9.2.0/rv32imafc/ilp32f\libgcc.a(divdf3.o)
 .riscv.attributes
                0x000000000000017a       0x30 d:/software/yuyin/qiqiyinqiluntai/riscv-nuclei-elf-gcc-9.2.0.0/gcc_fix_raissrc/bin/../lib/gcc/riscv-nuclei-elf/9.2.0/rv32imafc/ilp32f\libgcc.a(eqdf2.o)
 .riscv.attributes
                0x00000000000001aa       0x30 d:/software/yuyin/qiqiyinqiluntai/riscv-nuclei-elf-gcc-9.2.0.0/gcc_fix_raissrc/bin/../lib/gcc/riscv-nuclei-elf/9.2.0/rv32imafc/ilp32f\libgcc.a(gedf2.o)
 .riscv.attributes
                0x00000000000001da       0x30 d:/software/yuyin/qiqiyinqiluntai/riscv-nuclei-elf-gcc-9.2.0.0/gcc_fix_raissrc/bin/../lib/gcc/riscv-nuclei-elf/9.2.0/rv32imafc/ilp32f\libgcc.a(ledf2.o)
 .riscv.attributes
                0x000000000000020a       0x30 d:/software/yuyin/qiqiyinqiluntai/riscv-nuclei-elf-gcc-9.2.0.0/gcc_fix_raissrc/bin/../lib/gcc/riscv-nuclei-elf/9.2.0/rv32imafc/ilp32f\libgcc.a(muldf3.o)
 .riscv.attributes
                0x000000000000023a       0x30 d:/software/yuyin/qiqiyinqiluntai/riscv-nuclei-elf-gcc-9.2.0.0/gcc_fix_raissrc/bin/../lib/gcc/riscv-nuclei-elf/9.2.0/rv32imafc/ilp32f\libgcc.a(subdf3.o)
 .riscv.attributes
                0x000000000000026a       0x30 d:/software/yuyin/qiqiyinqiluntai/riscv-nuclei-elf-gcc-9.2.0.0/gcc_fix_raissrc/bin/../lib/gcc/riscv-nuclei-elf/9.2.0/rv32imafc/ilp32f\libgcc.a(unorddf2.o)
 .riscv.attributes
                0x000000000000029a       0x30 d:/software/yuyin/qiqiyinqiluntai/riscv-nuclei-elf-gcc-9.2.0.0/gcc_fix_raissrc/bin/../lib/gcc/riscv-nuclei-elf/9.2.0/rv32imafc/ilp32f\libgcc.a(fixdfsi.o)
 .riscv.attributes
                0x00000000000002ca       0x30 d:/software/yuyin/qiqiyinqiluntai/riscv-nuclei-elf-gcc-9.2.0.0/gcc_fix_raissrc/bin/../lib/gcc/riscv-nuclei-elf/9.2.0/rv32imafc/ilp32f\libgcc.a(floatsidf.o)
 .riscv.attributes
                0x00000000000002fa       0x30 d:/software/yuyin/qiqiyinqiluntai/riscv-nuclei-elf-gcc-9.2.0.0/gcc_fix_raissrc/bin/../lib/gcc/riscv-nuclei-elf/9.2.0/rv32imafc/ilp32f\libgcc.a(extendsfdf2.o)
 .riscv.attributes
                0x000000000000032a       0x30 d:/software/yuyin/qiqiyinqiluntai/riscv-nuclei-elf-gcc-9.2.0.0/gcc_fix_raissrc/bin/../lib/gcc/riscv-nuclei-elf/9.2.0/rv32imafc/ilp32f\libgcc.a(truncdfsf2.o)
 .riscv.attributes
                0x000000000000035a       0x30 d:/software/yuyin/qiqiyinqiluntai/riscv-nuclei-elf-gcc-9.2.0.0/gcc_fix_raissrc/bin/../lib/gcc/riscv-nuclei-elf/9.2.0/rv32imafc/ilp32f\libgcc.a(_clzsi2.o)
 .riscv.attributes
                0x000000000000038a       0x30 d:/software/yuyin/qiqiyinqiluntai/riscv-nuclei-elf-gcc-9.2.0.0/gcc_fix_raissrc/bin/../lib/gcc/riscv-nuclei-elf/9.2.0/rv32imafc/ilp32f\libgcc.a(_clz.o)
 .riscv.attributes
                0x00000000000003ba       0x30 d:/software/yuyin/qiqiyinqiluntai/riscv-nuclei-elf-gcc-9.2.0.0/gcc_fix_raissrc/bin/../lib/gcc/riscv-nuclei-elf/9.2.0/../../../../riscv-nuclei-elf/lib/rv32imafc/ilp32f\libg_nano.a(lib_a-atexit.o)
 .riscv.attributes
                0x00000000000003ea       0x30 d:/software/yuyin/qiqiyinqiluntai/riscv-nuclei-elf-gcc-9.2.0.0/gcc_fix_raissrc/bin/../lib/gcc/riscv-nuclei-elf/9.2.0/../../../../riscv-nuclei-elf/lib/rv32imafc/ilp32f\libg_nano.a(lib_a-exit.o)
 .riscv.attributes
                0x000000000000041a       0x30 d:/software/yuyin/qiqiyinqiluntai/riscv-nuclei-elf-gcc-9.2.0.0/gcc_fix_raissrc/bin/../lib/gcc/riscv-nuclei-elf/9.2.0/../../../../riscv-nuclei-elf/lib/rv32imafc/ilp32f\libg_nano.a(lib_a-fini.o)
 .riscv.attributes
                0x000000000000044a       0x30 d:/software/yuyin/qiqiyinqiluntai/riscv-nuclei-elf-gcc-9.2.0.0/gcc_fix_raissrc/bin/../lib/gcc/riscv-nuclei-elf/9.2.0/../../../../riscv-nuclei-elf/lib/rv32imafc/ilp32f\libg_nano.a(lib_a-impure.o)
 .riscv.attributes
                0x000000000000047a       0x30 d:/software/yuyin/qiqiyinqiluntai/riscv-nuclei-elf-gcc-9.2.0.0/gcc_fix_raissrc/bin/../lib/gcc/riscv-nuclei-elf/9.2.0/../../../../riscv-nuclei-elf/lib/rv32imafc/ilp32f\libg_nano.a(lib_a-init.o)
 .riscv.attributes
                0x00000000000004aa       0x30 d:/software/yuyin/qiqiyinqiluntai/riscv-nuclei-elf-gcc-9.2.0.0/gcc_fix_raissrc/bin/../lib/gcc/riscv-nuclei-elf/9.2.0/../../../../riscv-nuclei-elf/lib/rv32imafc/ilp32f\libg_nano.a(lib_a-__atexit.o)
 .riscv.attributes
                0x00000000000004da       0x30 d:/software/yuyin/qiqiyinqiluntai/riscv-nuclei-elf-gcc-9.2.0.0/gcc_fix_raissrc/bin/../lib/gcc/riscv-nuclei-elf/9.2.0/../../../../riscv-nuclei-elf/lib/rv32imafc/ilp32f\libg_nano.a(lib_a-__call_atexit.o)
 .riscv.attributes
                0x000000000000050a       0x30 d:/software/yuyin/qiqiyinqiluntai/riscv-nuclei-elf-gcc-9.2.0.0/gcc_fix_raissrc/bin/../lib/gcc/riscv-nuclei-elf/9.2.0/../../../../riscv-nuclei-elf/lib/rv32imafc/ilp32f\libg_nano.a(lib_a-calloc.o)
 .riscv.attributes
                0x000000000000053a       0x30 d:/software/yuyin/qiqiyinqiluntai/riscv-nuclei-elf-gcc-9.2.0.0/gcc_fix_raissrc/bin/../lib/gcc/riscv-nuclei-elf/9.2.0/../../../../riscv-nuclei-elf/lib/rv32imafc/ilp32f\libg_nano.a(lib_a-fprintf.o)
 .riscv.attributes
                0x000000000000056a       0x30 d:/software/yuyin/qiqiyinqiluntai/riscv-nuclei-elf-gcc-9.2.0.0/gcc_fix_raissrc/bin/../lib/gcc/riscv-nuclei-elf/9.2.0/../../../../riscv-nuclei-elf/lib/rv32imafc/ilp32f\libg_nano.a(lib_a-nano-callocr.o)
 .riscv.attributes
                0x000000000000059a       0x30 d:/software/yuyin/qiqiyinqiluntai/riscv-nuclei-elf-gcc-9.2.0.0/gcc_fix_raissrc/bin/../lib/gcc/riscv-nuclei-elf/9.2.0/../../../../riscv-nuclei-elf/lib/rv32imafc/ilp32f\libg_nano.a(lib_a-nano-mallocr.o)
 .riscv.attributes
                0x00000000000005ca       0x30 d:/software/yuyin/qiqiyinqiluntai/riscv-nuclei-elf-gcc-9.2.0.0/gcc_fix_raissrc/bin/../lib/gcc/riscv-nuclei-elf/9.2.0/../../../../riscv-nuclei-elf/lib/rv32imafc/ilp32f\libg_nano.a(lib_a-nano-vfprintf.o)
 .riscv.attributes
                0x00000000000005fa       0x30 d:/software/yuyin/qiqiyinqiluntai/riscv-nuclei-elf-gcc-9.2.0.0/gcc_fix_raissrc/bin/../lib/gcc/riscv-nuclei-elf/9.2.0/../../../../riscv-nuclei-elf/lib/rv32imafc/ilp32f\libg_nano.a(lib_a-realloc.o)
 .riscv.attributes
                0x000000000000062a       0x30 d:/software/yuyin/qiqiyinqiluntai/riscv-nuclei-elf-gcc-9.2.0.0/gcc_fix_raissrc/bin/../lib/gcc/riscv-nuclei-elf/9.2.0/../../../../riscv-nuclei-elf/lib/rv32imafc/ilp32f\libg_nano.a(lib_a-sbrkr.o)
 .riscv.attributes
                0x000000000000065a       0x30 d:/software/yuyin/qiqiyinqiluntai/riscv-nuclei-elf-gcc-9.2.0.0/gcc_fix_raissrc/bin/../lib/gcc/riscv-nuclei-elf/9.2.0/../../../../riscv-nuclei-elf/lib/rv32imafc/ilp32f\libg_nano.a(lib_a-wbuf.o)
 .riscv.attributes
                0x000000000000068a       0x30 d:/software/yuyin/qiqiyinqiluntai/riscv-nuclei-elf-gcc-9.2.0.0/gcc_fix_raissrc/bin/../lib/gcc/riscv-nuclei-elf/9.2.0/../../../../riscv-nuclei-elf/lib/rv32imafc/ilp32f\libg_nano.a(lib_a-wsetup.o)
 .riscv.attributes
                0x00000000000006ba       0x30 d:/software/yuyin/qiqiyinqiluntai/riscv-nuclei-elf-gcc-9.2.0.0/gcc_fix_raissrc/bin/../lib/gcc/riscv-nuclei-elf/9.2.0/../../../../riscv-nuclei-elf/lib/rv32imafc/ilp32f\libg_nano.a(lib_a-fflush.o)
 .riscv.attributes
                0x00000000000006ea       0x30 d:/software/yuyin/qiqiyinqiluntai/riscv-nuclei-elf-gcc-9.2.0.0/gcc_fix_raissrc/bin/../lib/gcc/riscv-nuclei-elf/9.2.0/../../../../riscv-nuclei-elf/lib/rv32imafc/ilp32f\libg_nano.a(lib_a-findfp.o)
 .riscv.attributes
                0x000000000000071a       0x30 d:/software/yuyin/qiqiyinqiluntai/riscv-nuclei-elf-gcc-9.2.0.0/gcc_fix_raissrc/bin/../lib/gcc/riscv-nuclei-elf/9.2.0/../../../../riscv-nuclei-elf/lib/rv32imafc/ilp32f\libg_nano.a(lib_a-fwalk.o)
 .riscv.attributes
                0x000000000000074a       0x30 d:/software/yuyin/qiqiyinqiluntai/riscv-nuclei-elf-gcc-9.2.0.0/gcc_fix_raissrc/bin/../lib/gcc/riscv-nuclei-elf/9.2.0/../../../../riscv-nuclei-elf/lib/rv32imafc/ilp32f\libg_nano.a(lib_a-makebuf.o)
 .riscv.attributes
                0x000000000000077a       0x30 d:/software/yuyin/qiqiyinqiluntai/riscv-nuclei-elf-gcc-9.2.0.0/gcc_fix_raissrc/bin/../lib/gcc/riscv-nuclei-elf/9.2.0/../../../../riscv-nuclei-elf/lib/rv32imafc/ilp32f\libg_nano.a(lib_a-memchr.o)
 .riscv.attributes
                0x00000000000007aa       0x30 d:/software/yuyin/qiqiyinqiluntai/riscv-nuclei-elf-gcc-9.2.0.0/gcc_fix_raissrc/bin/../lib/gcc/riscv-nuclei-elf/9.2.0/../../../../riscv-nuclei-elf/lib/rv32imafc/ilp32f\libg_nano.a(lib_a-nano-freer.o)
 .riscv.attributes
                0x00000000000007da       0x30 d:/software/yuyin/qiqiyinqiluntai/riscv-nuclei-elf-gcc-9.2.0.0/gcc_fix_raissrc/bin/../lib/gcc/riscv-nuclei-elf/9.2.0/../../../../riscv-nuclei-elf/lib/rv32imafc/ilp32f\libg_nano.a(lib_a-nano-reallocr.o)
 .riscv.attributes
                0x000000000000080a       0x30 d:/software/yuyin/qiqiyinqiluntai/riscv-nuclei-elf-gcc-9.2.0.0/gcc_fix_raissrc/bin/../lib/gcc/riscv-nuclei-elf/9.2.0/../../../../riscv-nuclei-elf/lib/rv32imafc/ilp32f\libg_nano.a(lib_a-nano-vfprintf_i.o)
 .riscv.attributes
                0x000000000000083a       0x30 d:/software/yuyin/qiqiyinqiluntai/riscv-nuclei-elf-gcc-9.2.0.0/gcc_fix_raissrc/bin/../lib/gcc/riscv-nuclei-elf/9.2.0/../../../../riscv-nuclei-elf/lib/rv32imafc/ilp32f\libg_nano.a(lib_a-reent.o)
 .riscv.attributes
                0x000000000000086a       0x30 d:/software/yuyin/qiqiyinqiluntai/riscv-nuclei-elf-gcc-9.2.0.0/gcc_fix_raissrc/bin/../lib/gcc/riscv-nuclei-elf/9.2.0/../../../../riscv-nuclei-elf/lib/rv32imafc/ilp32f\libg_nano.a(lib_a-stdio.o)
 .riscv.attributes
                0x000000000000089a       0x30 d:/software/yuyin/qiqiyinqiluntai/riscv-nuclei-elf-gcc-9.2.0.0/gcc_fix_raissrc/bin/../lib/gcc/riscv-nuclei-elf/9.2.0/../../../../riscv-nuclei-elf/lib/rv32imafc/ilp32f\libg_nano.a(lib_a-writer.o)
 .riscv.attributes
                0x00000000000008ca       0x30 d:/software/yuyin/qiqiyinqiluntai/riscv-nuclei-elf-gcc-9.2.0.0/gcc_fix_raissrc/bin/../lib/gcc/riscv-nuclei-elf/9.2.0/../../../../riscv-nuclei-elf/lib/rv32imafc/ilp32f\libg_nano.a(lib_a-closer.o)
 .riscv.attributes
                0x00000000000008fa       0x30 d:/software/yuyin/qiqiyinqiluntai/riscv-nuclei-elf-gcc-9.2.0.0/gcc_fix_raissrc/bin/../lib/gcc/riscv-nuclei-elf/9.2.0/../../../../riscv-nuclei-elf/lib/rv32imafc/ilp32f\libg_nano.a(lib_a-fstatr.o)
 .riscv.attributes
                0x000000000000092a       0x30 d:/software/yuyin/qiqiyinqiluntai/riscv-nuclei-elf-gcc-9.2.0.0/gcc_fix_raissrc/bin/../lib/gcc/riscv-nuclei-elf/9.2.0/../../../../riscv-nuclei-elf/lib/rv32imafc/ilp32f\libg_nano.a(lib_a-isattyr.o)
 .riscv.attributes
                0x000000000000095a       0x30 d:/software/yuyin/qiqiyinqiluntai/riscv-nuclei-elf-gcc-9.2.0.0/gcc_fix_raissrc/bin/../lib/gcc/riscv-nuclei-elf/9.2.0/../../../../riscv-nuclei-elf/lib/rv32imafc/ilp32f\libg_nano.a(lib_a-lseekr.o)
 .riscv.attributes
                0x000000000000098a       0x30 d:/software/yuyin/qiqiyinqiluntai/riscv-nuclei-elf-gcc-9.2.0.0/gcc_fix_raissrc/bin/../lib/gcc/riscv-nuclei-elf/9.2.0/../../../../riscv-nuclei-elf/lib/rv32imafc/ilp32f\libg_nano.a(lib_a-nano-msizer.o)
 .riscv.attributes
                0x00000000000009ba       0x30 d:/software/yuyin/qiqiyinqiluntai/riscv-nuclei-elf-gcc-9.2.0.0/gcc_fix_raissrc/bin/../lib/gcc/riscv-nuclei-elf/9.2.0/../../../../riscv-nuclei-elf/lib/rv32imafc/ilp32f\libg_nano.a(lib_a-readr.o)
 .riscv.attributes
                0x00000000000009ea       0x30 d:/software/yuyin/qiqiyinqiluntai/riscv-nuclei-elf-gcc-9.2.0.0/gcc_fix_raissrc/bin/../lib/gcc/riscv-nuclei-elf/9.2.0/../../../../riscv-nuclei-elf/lib/rv32imafc/ilp32f\libgloss_nano.a(sys_exit.o)
 .riscv.attributes
                0x0000000000000a1a       0x30 d:/software/yuyin/qiqiyinqiluntai/riscv-nuclei-elf-gcc-9.2.0.0/gcc_fix_raissrc/bin/../lib/gcc/riscv-nuclei-elf/9.2.0/../../../../riscv-nuclei-elf/lib/rv32imafc/ilp32f\libgloss_nano.a(sys_close.o)
 .riscv.attributes
                0x0000000000000a4a       0x30 d:/software/yuyin/qiqiyinqiluntai/riscv-nuclei-elf-gcc-9.2.0.0/gcc_fix_raissrc/bin/../lib/gcc/riscv-nuclei-elf/9.2.0/../../../../riscv-nuclei-elf/lib/rv32imafc/ilp32f\libgloss_nano.a(sys_fstat.o)
 .riscv.attributes
                0x0000000000000a7a       0x30 d:/software/yuyin/qiqiyinqiluntai/riscv-nuclei-elf-gcc-9.2.0.0/gcc_fix_raissrc/bin/../lib/gcc/riscv-nuclei-elf/9.2.0/../../../../riscv-nuclei-elf/lib/rv32imafc/ilp32f\libgloss_nano.a(sys_isatty.o)
 .riscv.attributes
                0x0000000000000aaa       0x30 d:/software/yuyin/qiqiyinqiluntai/riscv-nuclei-elf-gcc-9.2.0.0/gcc_fix_raissrc/bin/../lib/gcc/riscv-nuclei-elf/9.2.0/../../../../riscv-nuclei-elf/lib/rv32imafc/ilp32f\libgloss_nano.a(sys_lseek.o)
 .riscv.attributes
                0x0000000000000ada       0x30 d:/software/yuyin/qiqiyinqiluntai/riscv-nuclei-elf-gcc-9.2.0.0/gcc_fix_raissrc/bin/../lib/gcc/riscv-nuclei-elf/9.2.0/../../../../riscv-nuclei-elf/lib/rv32imafc/ilp32f\libgloss_nano.a(sys_read.o)
 .riscv.attributes
                0x0000000000000b0a       0x30 d:/software/yuyin/qiqiyinqiluntai/riscv-nuclei-elf-gcc-9.2.0.0/gcc_fix_raissrc/bin/../lib/gcc/riscv-nuclei-elf/9.2.0/../../../../riscv-nuclei-elf/lib/rv32imafc/ilp32f\libgloss_nano.a(sys_write.o)
 .riscv.attributes
                0x0000000000000b3a       0x30 d:/software/yuyin/qiqiyinqiluntai/riscv-nuclei-elf-gcc-9.2.0.0/gcc_fix_raissrc/bin/../lib/gcc/riscv-nuclei-elf/9.2.0/../../../../riscv-nuclei-elf/lib/rv32imafc/ilp32f\libgloss_nano.a(sys_conv_stat.o)
 .riscv.attributes
                0x0000000000000b6a       0x30 d:/software/yuyin/qiqiyinqiluntai/riscv-nuclei-elf-gcc-9.2.0.0/gcc_fix_raissrc/bin/../lib/gcc/riscv-nuclei-elf/9.2.0/../../../../riscv-nuclei-elf/lib/rv32imafc/ilp32f\libc_nano.a(lib_a-errno.o)
 .riscv.attributes
                0x0000000000000b9a       0x30 d:/software/yuyin/qiqiyinqiluntai/riscv-nuclei-elf-gcc-9.2.0.0/gcc_fix_raissrc/bin/../lib/gcc/riscv-nuclei-elf/9.2.0/../../../../riscv-nuclei-elf/lib/rv32imafc/ilp32f\libm.a(lib_a-s_floor.o)
 .riscv.attributes
                0x0000000000000bca       0x30 d:/software/yuyin/qiqiyinqiluntai/riscv-nuclei-elf-gcc-9.2.0.0/gcc_fix_raissrc/bin/../lib/gcc/riscv-nuclei-elf/9.2.0/../../../../riscv-nuclei-elf/lib/rv32imafc/ilp32f\libm.a(lib_a-w_acos.o)
 .riscv.attributes
                0x0000000000000bfa       0x30 d:/software/yuyin/qiqiyinqiluntai/riscv-nuclei-elf-gcc-9.2.0.0/gcc_fix_raissrc/bin/../lib/gcc/riscv-nuclei-elf/9.2.0/../../../../riscv-nuclei-elf/lib/rv32imafc/ilp32f\libm.a(lib_a-w_exp.o)
 .riscv.attributes
                0x0000000000000c2a       0x30 d:/software/yuyin/qiqiyinqiluntai/riscv-nuclei-elf-gcc-9.2.0.0/gcc_fix_raissrc/bin/../lib/gcc/riscv-nuclei-elf/9.2.0/../../../../riscv-nuclei-elf/lib/rv32imafc/ilp32f\libm.a(lib_a-wf_pow.o)
 .riscv.attributes
                0x0000000000000c5a       0x30 d:/software/yuyin/qiqiyinqiluntai/riscv-nuclei-elf-gcc-9.2.0.0/gcc_fix_raissrc/bin/../lib/gcc/riscv-nuclei-elf/9.2.0/../../../../riscv-nuclei-elf/lib/rv32imafc/ilp32f\libm.a(lib_a-w_log.o)
 .riscv.attributes
                0x0000000000000c8a       0x30 d:/software/yuyin/qiqiyinqiluntai/riscv-nuclei-elf-gcc-9.2.0.0/gcc_fix_raissrc/bin/../lib/gcc/riscv-nuclei-elf/9.2.0/../../../../riscv-nuclei-elf/lib/rv32imafc/ilp32f\libm.a(lib_a-w_sqrt.o)
 .riscv.attributes
                0x0000000000000cba       0x30 d:/software/yuyin/qiqiyinqiluntai/riscv-nuclei-elf-gcc-9.2.0.0/gcc_fix_raissrc/bin/../lib/gcc/riscv-nuclei-elf/9.2.0/../../../../riscv-nuclei-elf/lib/rv32imafc/ilp32f\libm.a(lib_a-e_acos.o)
 .riscv.attributes
                0x0000000000000cea       0x30 d:/software/yuyin/qiqiyinqiluntai/riscv-nuclei-elf-gcc-9.2.0.0/gcc_fix_raissrc/bin/../lib/gcc/riscv-nuclei-elf/9.2.0/../../../../riscv-nuclei-elf/lib/rv32imafc/ilp32f\libm.a(lib_a-e_exp.o)
 .riscv.attributes
                0x0000000000000d1a       0x30 d:/software/yuyin/qiqiyinqiluntai/riscv-nuclei-elf-gcc-9.2.0.0/gcc_fix_raissrc/bin/../lib/gcc/riscv-nuclei-elf/9.2.0/../../../../riscv-nuclei-elf/lib/rv32imafc/ilp32f\libm.a(lib_a-ef_pow.o)
 .riscv.attributes
                0x0000000000000d4a       0x30 d:/software/yuyin/qiqiyinqiluntai/riscv-nuclei-elf-gcc-9.2.0.0/gcc_fix_raissrc/bin/../lib/gcc/riscv-nuclei-elf/9.2.0/../../../../riscv-nuclei-elf/lib/rv32imafc/ilp32f\libm.a(lib_a-ef_sqrt.o)
 .riscv.attributes
                0x0000000000000d7a       0x30 d:/software/yuyin/qiqiyinqiluntai/riscv-nuclei-elf-gcc-9.2.0.0/gcc_fix_raissrc/bin/../lib/gcc/riscv-nuclei-elf/9.2.0/../../../../riscv-nuclei-elf/lib/rv32imafc/ilp32f\libm.a(lib_a-e_log.o)
 .riscv.attributes
                0x0000000000000daa       0x30 d:/software/yuyin/qiqiyinqiluntai/riscv-nuclei-elf-gcc-9.2.0.0/gcc_fix_raissrc/bin/../lib/gcc/riscv-nuclei-elf/9.2.0/../../../../riscv-nuclei-elf/lib/rv32imafc/ilp32f\libm.a(lib_a-e_sqrt.o)
 .riscv.attributes
                0x0000000000000dda       0x30 d:/software/yuyin/qiqiyinqiluntai/riscv-nuclei-elf-gcc-9.2.0.0/gcc_fix_raissrc/bin/../lib/gcc/riscv-nuclei-elf/9.2.0/../../../../riscv-nuclei-elf/lib/rv32imafc/ilp32f\libm.a(lib_a-s_fabs.o)
 .riscv.attributes
                0x0000000000000e0a       0x30 d:/software/yuyin/qiqiyinqiluntai/riscv-nuclei-elf-gcc-9.2.0.0/gcc_fix_raissrc/bin/../lib/gcc/riscv-nuclei-elf/9.2.0/../../../../riscv-nuclei-elf/lib/rv32imafc/ilp32f\libm.a(lib_a-sf_finite.o)
 .riscv.attributes
                0x0000000000000e3a       0x30 d:/software/yuyin/qiqiyinqiluntai/riscv-nuclei-elf-gcc-9.2.0.0/gcc_fix_raissrc/bin/../lib/gcc/riscv-nuclei-elf/9.2.0/../../../../riscv-nuclei-elf/lib/rv32imafc/ilp32f\libm.a(lib_a-s_finite.o)
 .riscv.attributes
                0x0000000000000e6a       0x30 d:/software/yuyin/qiqiyinqiluntai/riscv-nuclei-elf-gcc-9.2.0.0/gcc_fix_raissrc/bin/../lib/gcc/riscv-nuclei-elf/9.2.0/../../../../riscv-nuclei-elf/lib/rv32imafc/ilp32f\libm.a(lib_a-sf_nan.o)
 .riscv.attributes
                0x0000000000000e9a       0x30 d:/software/yuyin/qiqiyinqiluntai/riscv-nuclei-elf-gcc-9.2.0.0/gcc_fix_raissrc/bin/../lib/gcc/riscv-nuclei-elf/9.2.0/../../../../riscv-nuclei-elf/lib/rv32imafc/ilp32f\libm.a(lib_a-sf_rint.o)
 .riscv.attributes
                0x0000000000000eca       0x30 d:/software/yuyin/qiqiyinqiluntai/riscv-nuclei-elf-gcc-9.2.0.0/gcc_fix_raissrc/bin/../lib/gcc/riscv-nuclei-elf/9.2.0/../../../../riscv-nuclei-elf/lib/rv32imafc/ilp32f\libm.a(lib_a-sf_scalbn.o)
 .riscv.attributes
                0x0000000000000efa       0x30 d:/software/yuyin/qiqiyinqiluntai/riscv-nuclei-elf-gcc-9.2.0.0/gcc_fix_raissrc/bin/../lib/gcc/riscv-nuclei-elf/9.2.0/../../../../riscv-nuclei-elf/lib/rv32imafc/ilp32f\libm.a(lib_a-s_lib_ver.o)
 .riscv.attributes
                0x0000000000000f2a       0x30 d:/software/yuyin/qiqiyinqiluntai/riscv-nuclei-elf-gcc-9.2.0.0/gcc_fix_raissrc/bin/../lib/gcc/riscv-nuclei-elf/9.2.0/../../../../riscv-nuclei-elf/lib/rv32imafc/ilp32f\libm.a(lib_a-s_matherr.o)
 .riscv.attributes
                0x0000000000000f5a       0x30 d:/software/yuyin/qiqiyinqiluntai/riscv-nuclei-elf-gcc-9.2.0.0/gcc_fix_raissrc/bin/../lib/gcc/riscv-nuclei-elf/9.2.0/../../../../riscv-nuclei-elf/lib/rv32imafc/ilp32f\libm.a(lib_a-s_nan.o)
 .riscv.attributes
                0x0000000000000f8a       0x30 d:/software/yuyin/qiqiyinqiluntai/riscv-nuclei-elf-gcc-9.2.0.0/gcc_fix_raissrc/bin/../lib/gcc/riscv-nuclei-elf/9.2.0/../../../../riscv-nuclei-elf/lib/rv32imafc/ilp32f\libm.a(lib_a-sf_copysign.o)

.debug_frame    0x0000000000000000     0x315c
 .debug_frame   0x0000000000000000     0x1940 C:\TMP\nn_denoise_rtc_sample.elf.ItDyV2.ltrans0.ltrans.o
 .debug_frame   0x0000000000001940     0x10cc C:\TMP\nn_denoise_rtc_sample.elf.ItDyV2.ltrans1.ltrans.o
 .debug_frame   0x0000000000002a0c      0x4c4 ../../../libs\libnewlib_port.a(sbrk.o)
 .debug_frame   0x0000000000002ed0       0x44 d:/software/yuyin/qiqiyinqiluntai/riscv-nuclei-elf-gcc-9.2.0.0/gcc_fix_raissrc/bin/../lib/gcc/riscv-nuclei-elf/9.2.0/rv32imafc/ilp32f\libgcc.a(adddf3.o)
 .debug_frame   0x0000000000002f14       0x58 d:/software/yuyin/qiqiyinqiluntai/riscv-nuclei-elf-gcc-9.2.0.0/gcc_fix_raissrc/bin/../lib/gcc/riscv-nuclei-elf/9.2.0/rv32imafc/ilp32f\libgcc.a(divdf3.o)
 .debug_frame   0x0000000000002f6c       0x20 d:/software/yuyin/qiqiyinqiluntai/riscv-nuclei-elf-gcc-9.2.0.0/gcc_fix_raissrc/bin/../lib/gcc/riscv-nuclei-elf/9.2.0/rv32imafc/ilp32f\libgcc.a(eqdf2.o)
 .debug_frame   0x0000000000002f8c       0x20 d:/software/yuyin/qiqiyinqiluntai/riscv-nuclei-elf-gcc-9.2.0.0/gcc_fix_raissrc/bin/../lib/gcc/riscv-nuclei-elf/9.2.0/rv32imafc/ilp32f\libgcc.a(gedf2.o)
 .debug_frame   0x0000000000002fac       0x20 d:/software/yuyin/qiqiyinqiluntai/riscv-nuclei-elf-gcc-9.2.0.0/gcc_fix_raissrc/bin/../lib/gcc/riscv-nuclei-elf/9.2.0/rv32imafc/ilp32f\libgcc.a(ledf2.o)
 .debug_frame   0x0000000000002fcc       0x58 d:/software/yuyin/qiqiyinqiluntai/riscv-nuclei-elf-gcc-9.2.0.0/gcc_fix_raissrc/bin/../lib/gcc/riscv-nuclei-elf/9.2.0/rv32imafc/ilp32f\libgcc.a(muldf3.o)
 .debug_frame   0x0000000000003024       0x44 d:/software/yuyin/qiqiyinqiluntai/riscv-nuclei-elf-gcc-9.2.0.0/gcc_fix_raissrc/bin/../lib/gcc/riscv-nuclei-elf/9.2.0/rv32imafc/ilp32f\libgcc.a(subdf3.o)
 .debug_frame   0x0000000000003068       0x20 d:/software/yuyin/qiqiyinqiluntai/riscv-nuclei-elf-gcc-9.2.0.0/gcc_fix_raissrc/bin/../lib/gcc/riscv-nuclei-elf/9.2.0/rv32imafc/ilp32f\libgcc.a(unorddf2.o)
 .debug_frame   0x0000000000003088       0x20 d:/software/yuyin/qiqiyinqiluntai/riscv-nuclei-elf-gcc-9.2.0.0/gcc_fix_raissrc/bin/../lib/gcc/riscv-nuclei-elf/9.2.0/rv32imafc/ilp32f\libgcc.a(fixdfsi.o)
 .debug_frame   0x00000000000030a8       0x38 d:/software/yuyin/qiqiyinqiluntai/riscv-nuclei-elf-gcc-9.2.0.0/gcc_fix_raissrc/bin/../lib/gcc/riscv-nuclei-elf/9.2.0/rv32imafc/ilp32f\libgcc.a(floatsidf.o)
 .debug_frame   0x00000000000030e0       0x3c d:/software/yuyin/qiqiyinqiluntai/riscv-nuclei-elf-gcc-9.2.0.0/gcc_fix_raissrc/bin/../lib/gcc/riscv-nuclei-elf/9.2.0/rv32imafc/ilp32f\libgcc.a(extendsfdf2.o)
 .debug_frame   0x000000000000311c       0x20 d:/software/yuyin/qiqiyinqiluntai/riscv-nuclei-elf-gcc-9.2.0.0/gcc_fix_raissrc/bin/../lib/gcc/riscv-nuclei-elf/9.2.0/rv32imafc/ilp32f\libgcc.a(truncdfsf2.o)
 .debug_frame   0x000000000000313c       0x20 d:/software/yuyin/qiqiyinqiluntai/riscv-nuclei-elf-gcc-9.2.0.0/gcc_fix_raissrc/bin/../lib/gcc/riscv-nuclei-elf/9.2.0/rv32imafc/ilp32f\libgcc.a(_clzsi2.o)
